
BMS.elf:     file format elf32-littlearm

Sections:
Idx Name          Size      VMA       LMA       File off  Algn
  0 .isr_vector   000001c4  08000000  08000000  00001000  2**0
                  CONTENTS, ALLOC, LOAD, READONLY, DATA
  1 .text         0000804c  080001d0  080001d0  000011d0  2**4
                  CONTENTS, ALLOC, LOAD, READONLY, CODE
  2 .rodata       000005d4  0800821c  0800821c  0000921c  2**2
                  CONTENTS, ALLOC, LOAD, READONLY, DATA
  3 .ARM.extab    00000000  080087f0  080087f0  0000a068  2**0
                  CONTENTS, READONLY
  4 .ARM          00000008  080087f0  080087f0  000097f0  2**2
                  CONTENTS, ALLOC, LOAD, READONLY, DATA
  5 .preinit_array 00000000  080087f8  080087f8  0000a068  2**0
                  CONTENTS, ALLOC, LOAD, DATA
  6 .init_array   00000004  080087f8  080087f8  000097f8  2**2
                  CONTENTS, ALLOC, LOAD, READONLY, DATA
  7 .fini_array   00000004  080087fc  080087fc  000097fc  2**2
                  CONTENTS, ALLOC, LOAD, READONLY, DATA
  8 .data         00000068  20000000  08008800  0000a000  2**2
                  CONTENTS, ALLOC, LOAD, DATA
  9 .bss          00000570  20000068  08008868  0000a068  2**2
                  ALLOC
 10 ._user_heap_stack 00000600  200005d8  08008868  0000a5d8  2**0
                  ALLOC
 11 .ARM.attributes 00000030  00000000  00000000  0000a068  2**0
                  CONTENTS, READONLY
 12 .debug_info   000140eb  00000000  00000000  0000a098  2**0
                  CONTENTS, READONLY, DEBUGGING, OCTETS
 13 .debug_abbrev 00002f80  00000000  00000000  0001e183  2**0
                  CONTENTS, READONLY, DEBUGGING, OCTETS
 14 .debug_aranges 00001008  00000000  00000000  00021108  2**3
                  CONTENTS, READONLY, DEBUGGING, OCTETS
 15 .debug_rnglists 00000c70  00000000  00000000  00022110  2**0
                  CONTENTS, READONLY, DEBUGGING, OCTETS
 16 .debug_macro  00023f6f  00000000  00000000  00022d80  2**0
                  CONTENTS, READONLY, DEBUGGING, OCTETS
 17 .debug_line   000163e1  00000000  00000000  00046cef  2**0
                  CONTENTS, READONLY, DEBUGGING, OCTETS
 18 .debug_str    000d4d8e  00000000  00000000  0005d0d0  2**0
                  CONTENTS, READONLY, DEBUGGING, OCTETS
 19 .comment      00000043  00000000  00000000  00131e5e  2**0
                  CONTENTS, READONLY
 20 .debug_frame  00004a00  00000000  00000000  00131ea4  2**2
                  CONTENTS, READONLY, DEBUGGING, OCTETS
 21 .debug_line_str 0000005f  00000000  00000000  001368a4  2**0
                  CONTENTS, READONLY, DEBUGGING, OCTETS

Disassembly of section .text:

080001d0 <__do_global_dtors_aux>:
 80001d0:	b510      	push	{r4, lr}
 80001d2:	4c05      	ldr	r4, [pc, #20]	@ (80001e8 <__do_global_dtors_aux+0x18>)
 80001d4:	7823      	ldrb	r3, [r4, #0]
 80001d6:	b933      	cbnz	r3, 80001e6 <__do_global_dtors_aux+0x16>
 80001d8:	4b04      	ldr	r3, [pc, #16]	@ (80001ec <__do_global_dtors_aux+0x1c>)
 80001da:	b113      	cbz	r3, 80001e2 <__do_global_dtors_aux+0x12>
 80001dc:	4804      	ldr	r0, [pc, #16]	@ (80001f0 <__do_global_dtors_aux+0x20>)
 80001de:	f3af 8000 	nop.w
 80001e2:	2301      	movs	r3, #1
 80001e4:	7023      	strb	r3, [r4, #0]
 80001e6:	bd10      	pop	{r4, pc}
 80001e8:	20000068 	.word	0x20000068
 80001ec:	00000000 	.word	0x00000000
 80001f0:	08008204 	.word	0x08008204

080001f4 <frame_dummy>:
 80001f4:	b508      	push	{r3, lr}
 80001f6:	4b03      	ldr	r3, [pc, #12]	@ (8000204 <frame_dummy+0x10>)
 80001f8:	b11b      	cbz	r3, 8000202 <frame_dummy+0xe>
 80001fa:	4903      	ldr	r1, [pc, #12]	@ (8000208 <frame_dummy+0x14>)
 80001fc:	4803      	ldr	r0, [pc, #12]	@ (800020c <frame_dummy+0x18>)
 80001fe:	f3af 8000 	nop.w
 8000202:	bd08      	pop	{r3, pc}
 8000204:	00000000 	.word	0x00000000
 8000208:	2000006c 	.word	0x2000006c
 800020c:	08008204 	.word	0x08008204

08000210 <memchr>:
 8000210:	f001 01ff 	and.w	r1, r1, #255	@ 0xff
 8000214:	2a10      	cmp	r2, #16
 8000216:	db2b      	blt.n	8000270 <memchr+0x60>
 8000218:	f010 0f07 	tst.w	r0, #7
 800021c:	d008      	beq.n	8000230 <memchr+0x20>
 800021e:	f810 3b01 	ldrb.w	r3, [r0], #1
 8000222:	3a01      	subs	r2, #1
 8000224:	428b      	cmp	r3, r1
 8000226:	d02d      	beq.n	8000284 <memchr+0x74>
 8000228:	f010 0f07 	tst.w	r0, #7
 800022c:	b342      	cbz	r2, 8000280 <memchr+0x70>
 800022e:	d1f6      	bne.n	800021e <memchr+0xe>
 8000230:	b4f0      	push	{r4, r5, r6, r7}
 8000232:	ea41 2101 	orr.w	r1, r1, r1, lsl #8
 8000236:	ea41 4101 	orr.w	r1, r1, r1, lsl #16
 800023a:	f022 0407 	bic.w	r4, r2, #7
 800023e:	f07f 0700 	mvns.w	r7, #0
 8000242:	2300      	movs	r3, #0
 8000244:	e8f0 5602 	ldrd	r5, r6, [r0], #8
 8000248:	3c08      	subs	r4, #8
 800024a:	ea85 0501 	eor.w	r5, r5, r1
 800024e:	ea86 0601 	eor.w	r6, r6, r1
 8000252:	fa85 f547 	uadd8	r5, r5, r7
 8000256:	faa3 f587 	sel	r5, r3, r7
 800025a:	fa86 f647 	uadd8	r6, r6, r7
 800025e:	faa5 f687 	sel	r6, r5, r7
 8000262:	b98e      	cbnz	r6, 8000288 <memchr+0x78>
 8000264:	d1ee      	bne.n	8000244 <memchr+0x34>
 8000266:	bcf0      	pop	{r4, r5, r6, r7}
 8000268:	f001 01ff 	and.w	r1, r1, #255	@ 0xff
 800026c:	f002 0207 	and.w	r2, r2, #7
 8000270:	b132      	cbz	r2, 8000280 <memchr+0x70>
 8000272:	f810 3b01 	ldrb.w	r3, [r0], #1
 8000276:	3a01      	subs	r2, #1
 8000278:	ea83 0301 	eor.w	r3, r3, r1
 800027c:	b113      	cbz	r3, 8000284 <memchr+0x74>
 800027e:	d1f8      	bne.n	8000272 <memchr+0x62>
 8000280:	2000      	movs	r0, #0
 8000282:	4770      	bx	lr
 8000284:	3801      	subs	r0, #1
 8000286:	4770      	bx	lr
 8000288:	2d00      	cmp	r5, #0
 800028a:	bf06      	itte	eq
 800028c:	4635      	moveq	r5, r6
 800028e:	3803      	subeq	r0, #3
 8000290:	3807      	subne	r0, #7
 8000292:	f015 0f01 	tst.w	r5, #1
 8000296:	d107      	bne.n	80002a8 <memchr+0x98>
 8000298:	3001      	adds	r0, #1
 800029a:	f415 7f80 	tst.w	r5, #256	@ 0x100
 800029e:	bf02      	ittt	eq
 80002a0:	3001      	addeq	r0, #1
 80002a2:	f415 3fc0 	tsteq.w	r5, #98304	@ 0x18000
 80002a6:	3001      	addeq	r0, #1
 80002a8:	bcf0      	pop	{r4, r5, r6, r7}
 80002aa:	3801      	subs	r0, #1
 80002ac:	4770      	bx	lr
 80002ae:	bf00      	nop

080002b0 <__aeabi_uldivmod>:
 80002b0:	b953      	cbnz	r3, 80002c8 <__aeabi_uldivmod+0x18>
 80002b2:	b94a      	cbnz	r2, 80002c8 <__aeabi_uldivmod+0x18>
 80002b4:	2900      	cmp	r1, #0
 80002b6:	bf08      	it	eq
 80002b8:	2800      	cmpeq	r0, #0
 80002ba:	bf1c      	itt	ne
 80002bc:	f04f 31ff 	movne.w	r1, #4294967295
 80002c0:	f04f 30ff 	movne.w	r0, #4294967295
 80002c4:	f000 b988 	b.w	80005d8 <__aeabi_idiv0>
 80002c8:	f1ad 0c08 	sub.w	ip, sp, #8
 80002cc:	e96d ce04 	strd	ip, lr, [sp, #-16]!
 80002d0:	f000 f806 	bl	80002e0 <__udivmoddi4>
 80002d4:	f8dd e004 	ldr.w	lr, [sp, #4]
 80002d8:	e9dd 2302 	ldrd	r2, r3, [sp, #8]
 80002dc:	b004      	add	sp, #16
 80002de:	4770      	bx	lr

080002e0 <__udivmoddi4>:
 80002e0:	e92d 47f0 	stmdb	sp!, {r4, r5, r6, r7, r8, r9, sl, lr}
 80002e4:	9d08      	ldr	r5, [sp, #32]
 80002e6:	468e      	mov	lr, r1
 80002e8:	4604      	mov	r4, r0
 80002ea:	4688      	mov	r8, r1
 80002ec:	2b00      	cmp	r3, #0
 80002ee:	d14a      	bne.n	8000386 <__udivmoddi4+0xa6>
 80002f0:	428a      	cmp	r2, r1
 80002f2:	4617      	mov	r7, r2
 80002f4:	d962      	bls.n	80003bc <__udivmoddi4+0xdc>
 80002f6:	fab2 f682 	clz	r6, r2
 80002fa:	b14e      	cbz	r6, 8000310 <__udivmoddi4+0x30>
 80002fc:	f1c6 0320 	rsb	r3, r6, #32
 8000300:	fa01 f806 	lsl.w	r8, r1, r6
 8000304:	fa20 f303 	lsr.w	r3, r0, r3
 8000308:	40b7      	lsls	r7, r6
 800030a:	ea43 0808 	orr.w	r8, r3, r8
 800030e:	40b4      	lsls	r4, r6
 8000310:	ea4f 4e17 	mov.w	lr, r7, lsr #16
 8000314:	fa1f fc87 	uxth.w	ip, r7
 8000318:	fbb8 f1fe 	udiv	r1, r8, lr
 800031c:	0c23      	lsrs	r3, r4, #16
 800031e:	fb0e 8811 	mls	r8, lr, r1, r8
 8000322:	ea43 4308 	orr.w	r3, r3, r8, lsl #16
 8000326:	fb01 f20c 	mul.w	r2, r1, ip
 800032a:	429a      	cmp	r2, r3
 800032c:	d909      	bls.n	8000342 <__udivmoddi4+0x62>
 800032e:	18fb      	adds	r3, r7, r3
 8000330:	f101 30ff 	add.w	r0, r1, #4294967295
 8000334:	f080 80ea 	bcs.w	800050c <__udivmoddi4+0x22c>
 8000338:	429a      	cmp	r2, r3
 800033a:	f240 80e7 	bls.w	800050c <__udivmoddi4+0x22c>
 800033e:	3902      	subs	r1, #2
 8000340:	443b      	add	r3, r7
 8000342:	1a9a      	subs	r2, r3, r2
 8000344:	b2a3      	uxth	r3, r4
 8000346:	fbb2 f0fe 	udiv	r0, r2, lr
 800034a:	fb0e 2210 	mls	r2, lr, r0, r2
 800034e:	ea43 4302 	orr.w	r3, r3, r2, lsl #16
 8000352:	fb00 fc0c 	mul.w	ip, r0, ip
 8000356:	459c      	cmp	ip, r3
 8000358:	d909      	bls.n	800036e <__udivmoddi4+0x8e>
 800035a:	18fb      	adds	r3, r7, r3
 800035c:	f100 32ff 	add.w	r2, r0, #4294967295
 8000360:	f080 80d6 	bcs.w	8000510 <__udivmoddi4+0x230>
 8000364:	459c      	cmp	ip, r3
 8000366:	f240 80d3 	bls.w	8000510 <__udivmoddi4+0x230>
 800036a:	443b      	add	r3, r7
 800036c:	3802      	subs	r0, #2
 800036e:	ea40 4001 	orr.w	r0, r0, r1, lsl #16
 8000372:	eba3 030c 	sub.w	r3, r3, ip
 8000376:	2100      	movs	r1, #0
 8000378:	b11d      	cbz	r5, 8000382 <__udivmoddi4+0xa2>
 800037a:	40f3      	lsrs	r3, r6
 800037c:	2200      	movs	r2, #0
 800037e:	e9c5 3200 	strd	r3, r2, [r5]
 8000382:	e8bd 87f0 	ldmia.w	sp!, {r4, r5, r6, r7, r8, r9, sl, pc}
 8000386:	428b      	cmp	r3, r1
 8000388:	d905      	bls.n	8000396 <__udivmoddi4+0xb6>
 800038a:	b10d      	cbz	r5, 8000390 <__udivmoddi4+0xb0>
 800038c:	e9c5 0100 	strd	r0, r1, [r5]
 8000390:	2100      	movs	r1, #0
 8000392:	4608      	mov	r0, r1
 8000394:	e7f5      	b.n	8000382 <__udivmoddi4+0xa2>
 8000396:	fab3 f183 	clz	r1, r3
 800039a:	2900      	cmp	r1, #0
 800039c:	d146      	bne.n	800042c <__udivmoddi4+0x14c>
 800039e:	4573      	cmp	r3, lr
 80003a0:	d302      	bcc.n	80003a8 <__udivmoddi4+0xc8>
 80003a2:	4282      	cmp	r2, r0
 80003a4:	f200 8105 	bhi.w	80005b2 <__udivmoddi4+0x2d2>
 80003a8:	1a84      	subs	r4, r0, r2
 80003aa:	eb6e 0203 	sbc.w	r2, lr, r3
 80003ae:	2001      	movs	r0, #1
 80003b0:	4690      	mov	r8, r2
 80003b2:	2d00      	cmp	r5, #0
 80003b4:	d0e5      	beq.n	8000382 <__udivmoddi4+0xa2>
 80003b6:	e9c5 4800 	strd	r4, r8, [r5]
 80003ba:	e7e2      	b.n	8000382 <__udivmoddi4+0xa2>
 80003bc:	2a00      	cmp	r2, #0
 80003be:	f000 8090 	beq.w	80004e2 <__udivmoddi4+0x202>
 80003c2:	fab2 f682 	clz	r6, r2
 80003c6:	2e00      	cmp	r6, #0
 80003c8:	f040 80a4 	bne.w	8000514 <__udivmoddi4+0x234>
 80003cc:	1a8a      	subs	r2, r1, r2
 80003ce:	0c03      	lsrs	r3, r0, #16
 80003d0:	ea4f 4e17 	mov.w	lr, r7, lsr #16
 80003d4:	b280      	uxth	r0, r0
 80003d6:	b2bc      	uxth	r4, r7
 80003d8:	2101      	movs	r1, #1
 80003da:	fbb2 fcfe 	udiv	ip, r2, lr
 80003de:	fb0e 221c 	mls	r2, lr, ip, r2
 80003e2:	ea43 4302 	orr.w	r3, r3, r2, lsl #16
 80003e6:	fb04 f20c 	mul.w	r2, r4, ip
 80003ea:	429a      	cmp	r2, r3
 80003ec:	d907      	bls.n	80003fe <__udivmoddi4+0x11e>
 80003ee:	18fb      	adds	r3, r7, r3
 80003f0:	f10c 38ff 	add.w	r8, ip, #4294967295
 80003f4:	d202      	bcs.n	80003fc <__udivmoddi4+0x11c>
 80003f6:	429a      	cmp	r2, r3
 80003f8:	f200 80e0 	bhi.w	80005bc <__udivmoddi4+0x2dc>
 80003fc:	46c4      	mov	ip, r8
 80003fe:	1a9b      	subs	r3, r3, r2
 8000400:	fbb3 f2fe 	udiv	r2, r3, lr
 8000404:	fb0e 3312 	mls	r3, lr, r2, r3
 8000408:	ea40 4303 	orr.w	r3, r0, r3, lsl #16
 800040c:	fb02 f404 	mul.w	r4, r2, r4
 8000410:	429c      	cmp	r4, r3
 8000412:	d907      	bls.n	8000424 <__udivmoddi4+0x144>
 8000414:	18fb      	adds	r3, r7, r3
 8000416:	f102 30ff 	add.w	r0, r2, #4294967295
 800041a:	d202      	bcs.n	8000422 <__udivmoddi4+0x142>
 800041c:	429c      	cmp	r4, r3
 800041e:	f200 80ca 	bhi.w	80005b6 <__udivmoddi4+0x2d6>
 8000422:	4602      	mov	r2, r0
 8000424:	1b1b      	subs	r3, r3, r4
 8000426:	ea42 400c 	orr.w	r0, r2, ip, lsl #16
 800042a:	e7a5      	b.n	8000378 <__udivmoddi4+0x98>
 800042c:	f1c1 0620 	rsb	r6, r1, #32
 8000430:	408b      	lsls	r3, r1
 8000432:	fa22 f706 	lsr.w	r7, r2, r6
 8000436:	431f      	orrs	r7, r3
 8000438:	fa0e f401 	lsl.w	r4, lr, r1
 800043c:	fa20 f306 	lsr.w	r3, r0, r6
 8000440:	fa2e fe06 	lsr.w	lr, lr, r6
 8000444:	ea4f 4917 	mov.w	r9, r7, lsr #16
 8000448:	4323      	orrs	r3, r4
 800044a:	fa00 f801 	lsl.w	r8, r0, r1
 800044e:	fa1f fc87 	uxth.w	ip, r7
 8000452:	fbbe f0f9 	udiv	r0, lr, r9
 8000456:	0c1c      	lsrs	r4, r3, #16
 8000458:	fb09 ee10 	mls	lr, r9, r0, lr
 800045c:	ea44 440e 	orr.w	r4, r4, lr, lsl #16
 8000460:	fb00 fe0c 	mul.w	lr, r0, ip
 8000464:	45a6      	cmp	lr, r4
 8000466:	fa02 f201 	lsl.w	r2, r2, r1
 800046a:	d909      	bls.n	8000480 <__udivmoddi4+0x1a0>
 800046c:	193c      	adds	r4, r7, r4
 800046e:	f100 3aff 	add.w	sl, r0, #4294967295
 8000472:	f080 809c 	bcs.w	80005ae <__udivmoddi4+0x2ce>
 8000476:	45a6      	cmp	lr, r4
 8000478:	f240 8099 	bls.w	80005ae <__udivmoddi4+0x2ce>
 800047c:	3802      	subs	r0, #2
 800047e:	443c      	add	r4, r7
 8000480:	eba4 040e 	sub.w	r4, r4, lr
 8000484:	fa1f fe83 	uxth.w	lr, r3
 8000488:	fbb4 f3f9 	udiv	r3, r4, r9
 800048c:	fb09 4413 	mls	r4, r9, r3, r4
 8000490:	ea4e 4404 	orr.w	r4, lr, r4, lsl #16
 8000494:	fb03 fc0c 	mul.w	ip, r3, ip
 8000498:	45a4      	cmp	ip, r4
 800049a:	d908      	bls.n	80004ae <__udivmoddi4+0x1ce>
 800049c:	193c      	adds	r4, r7, r4
 800049e:	f103 3eff 	add.w	lr, r3, #4294967295
 80004a2:	f080 8082 	bcs.w	80005aa <__udivmoddi4+0x2ca>
 80004a6:	45a4      	cmp	ip, r4
 80004a8:	d97f      	bls.n	80005aa <__udivmoddi4+0x2ca>
 80004aa:	3b02      	subs	r3, #2
 80004ac:	443c      	add	r4, r7
 80004ae:	ea43 4000 	orr.w	r0, r3, r0, lsl #16
 80004b2:	eba4 040c 	sub.w	r4, r4, ip
 80004b6:	fba0 ec02 	umull	lr, ip, r0, r2
 80004ba:	4564      	cmp	r4, ip
 80004bc:	4673      	mov	r3, lr
 80004be:	46e1      	mov	r9, ip
 80004c0:	d362      	bcc.n	8000588 <__udivmoddi4+0x2a8>
 80004c2:	d05f      	beq.n	8000584 <__udivmoddi4+0x2a4>
 80004c4:	b15d      	cbz	r5, 80004de <__udivmoddi4+0x1fe>
 80004c6:	ebb8 0203 	subs.w	r2, r8, r3
 80004ca:	eb64 0409 	sbc.w	r4, r4, r9
 80004ce:	fa04 f606 	lsl.w	r6, r4, r6
 80004d2:	fa22 f301 	lsr.w	r3, r2, r1
 80004d6:	431e      	orrs	r6, r3
 80004d8:	40cc      	lsrs	r4, r1
 80004da:	e9c5 6400 	strd	r6, r4, [r5]
 80004de:	2100      	movs	r1, #0
 80004e0:	e74f      	b.n	8000382 <__udivmoddi4+0xa2>
 80004e2:	fbb1 fcf2 	udiv	ip, r1, r2
 80004e6:	0c01      	lsrs	r1, r0, #16
 80004e8:	ea41 410e 	orr.w	r1, r1, lr, lsl #16
 80004ec:	b280      	uxth	r0, r0
 80004ee:	ea40 4201 	orr.w	r2, r0, r1, lsl #16
 80004f2:	463b      	mov	r3, r7
 80004f4:	4638      	mov	r0, r7
 80004f6:	463c      	mov	r4, r7
 80004f8:	46b8      	mov	r8, r7
 80004fa:	46be      	mov	lr, r7
 80004fc:	2620      	movs	r6, #32
 80004fe:	fbb1 f1f7 	udiv	r1, r1, r7
 8000502:	eba2 0208 	sub.w	r2, r2, r8
 8000506:	ea41 410c 	orr.w	r1, r1, ip, lsl #16
 800050a:	e766      	b.n	80003da <__udivmoddi4+0xfa>
 800050c:	4601      	mov	r1, r0
 800050e:	e718      	b.n	8000342 <__udivmoddi4+0x62>
 8000510:	4610      	mov	r0, r2
 8000512:	e72c      	b.n	800036e <__udivmoddi4+0x8e>
 8000514:	f1c6 0220 	rsb	r2, r6, #32
 8000518:	fa2e f302 	lsr.w	r3, lr, r2
 800051c:	40b7      	lsls	r7, r6
 800051e:	40b1      	lsls	r1, r6
 8000520:	fa20 f202 	lsr.w	r2, r0, r2
 8000524:	ea4f 4e17 	mov.w	lr, r7, lsr #16
 8000528:	430a      	orrs	r2, r1
 800052a:	fbb3 f8fe 	udiv	r8, r3, lr
 800052e:	b2bc      	uxth	r4, r7
 8000530:	fb0e 3318 	mls	r3, lr, r8, r3
 8000534:	0c11      	lsrs	r1, r2, #16
 8000536:	ea41 4103 	orr.w	r1, r1, r3, lsl #16
 800053a:	fb08 f904 	mul.w	r9, r8, r4
 800053e:	40b0      	lsls	r0, r6
 8000540:	4589      	cmp	r9, r1
 8000542:	ea4f 4310 	mov.w	r3, r0, lsr #16
 8000546:	b280      	uxth	r0, r0
 8000548:	d93e      	bls.n	80005c8 <__udivmoddi4+0x2e8>
 800054a:	1879      	adds	r1, r7, r1
 800054c:	f108 3cff 	add.w	ip, r8, #4294967295
 8000550:	d201      	bcs.n	8000556 <__udivmoddi4+0x276>
 8000552:	4589      	cmp	r9, r1
 8000554:	d81f      	bhi.n	8000596 <__udivmoddi4+0x2b6>
 8000556:	eba1 0109 	sub.w	r1, r1, r9
 800055a:	fbb1 f9fe 	udiv	r9, r1, lr
 800055e:	fb09 f804 	mul.w	r8, r9, r4
 8000562:	fb0e 1119 	mls	r1, lr, r9, r1
 8000566:	b292      	uxth	r2, r2
 8000568:	ea42 4201 	orr.w	r2, r2, r1, lsl #16
 800056c:	4542      	cmp	r2, r8
 800056e:	d229      	bcs.n	80005c4 <__udivmoddi4+0x2e4>
 8000570:	18ba      	adds	r2, r7, r2
 8000572:	f109 31ff 	add.w	r1, r9, #4294967295
 8000576:	d2c4      	bcs.n	8000502 <__udivmoddi4+0x222>
 8000578:	4542      	cmp	r2, r8
 800057a:	d2c2      	bcs.n	8000502 <__udivmoddi4+0x222>
 800057c:	f1a9 0102 	sub.w	r1, r9, #2
 8000580:	443a      	add	r2, r7
 8000582:	e7be      	b.n	8000502 <__udivmoddi4+0x222>
 8000584:	45f0      	cmp	r8, lr
 8000586:	d29d      	bcs.n	80004c4 <__udivmoddi4+0x1e4>
 8000588:	ebbe 0302 	subs.w	r3, lr, r2
 800058c:	eb6c 0c07 	sbc.w	ip, ip, r7
 8000590:	3801      	subs	r0, #1
 8000592:	46e1      	mov	r9, ip
 8000594:	e796      	b.n	80004c4 <__udivmoddi4+0x1e4>
 8000596:	eba7 0909 	sub.w	r9, r7, r9
 800059a:	4449      	add	r1, r9
 800059c:	f1a8 0c02 	sub.w	ip, r8, #2
 80005a0:	fbb1 f9fe 	udiv	r9, r1, lr
 80005a4:	fb09 f804 	mul.w	r8, r9, r4
 80005a8:	e7db      	b.n	8000562 <__udivmoddi4+0x282>
 80005aa:	4673      	mov	r3, lr
 80005ac:	e77f      	b.n	80004ae <__udivmoddi4+0x1ce>
 80005ae:	4650      	mov	r0, sl
 80005b0:	e766      	b.n	8000480 <__udivmoddi4+0x1a0>
 80005b2:	4608      	mov	r0, r1
 80005b4:	e6fd      	b.n	80003b2 <__udivmoddi4+0xd2>
 80005b6:	443b      	add	r3, r7
 80005b8:	3a02      	subs	r2, #2
 80005ba:	e733      	b.n	8000424 <__udivmoddi4+0x144>
 80005bc:	f1ac 0c02 	sub.w	ip, ip, #2
 80005c0:	443b      	add	r3, r7
 80005c2:	e71c      	b.n	80003fe <__udivmoddi4+0x11e>
 80005c4:	4649      	mov	r1, r9
 80005c6:	e79c      	b.n	8000502 <__udivmoddi4+0x222>
 80005c8:	eba1 0109 	sub.w	r1, r1, r9
 80005cc:	46c4      	mov	ip, r8
 80005ce:	fbb1 f9fe 	udiv	r9, r1, lr
 80005d2:	fb09 f804 	mul.w	r8, r9, r4
 80005d6:	e7c4      	b.n	8000562 <__udivmoddi4+0x282>

080005d8 <__aeabi_idiv0>:
 80005d8:	4770      	bx	lr
 80005da:	bf00      	nop

080005dc <BMS_MasterComm_CalcChecksum>:

/**
 * @brief  Calcula checksum XOR sobre 'len' bytes
 */
uint8_t BMS_MasterComm_CalcChecksum(uint8_t *data, uint16_t len)
{
 80005dc:	b480      	push	{r7}
 80005de:	b085      	sub	sp, #20
 80005e0:	af00      	add	r7, sp, #0
 80005e2:	6078      	str	r0, [r7, #4]
 80005e4:	460b      	mov	r3, r1
 80005e6:	807b      	strh	r3, [r7, #2]
    uint8_t xor_acc = 0U;
 80005e8:	2300      	movs	r3, #0
 80005ea:	73fb      	strb	r3, [r7, #15]
    for (uint16_t i = 0U; i < len; i++)
 80005ec:	2300      	movs	r3, #0
 80005ee:	81bb      	strh	r3, [r7, #12]
 80005f0:	e009      	b.n	8000606 <BMS_MasterComm_CalcChecksum+0x2a>
    {
        xor_acc ^= data[i];
 80005f2:	89bb      	ldrh	r3, [r7, #12]
 80005f4:	687a      	ldr	r2, [r7, #4]
 80005f6:	4413      	add	r3, r2
 80005f8:	781a      	ldrb	r2, [r3, #0]
 80005fa:	7bfb      	ldrb	r3, [r7, #15]
 80005fc:	4053      	eors	r3, r2
 80005fe:	73fb      	strb	r3, [r7, #15]
    for (uint16_t i = 0U; i < len; i++)
 8000600:	89bb      	ldrh	r3, [r7, #12]
 8000602:	3301      	adds	r3, #1
 8000604:	81bb      	strh	r3, [r7, #12]
 8000606:	89ba      	ldrh	r2, [r7, #12]
 8000608:	887b      	ldrh	r3, [r7, #2]
 800060a:	429a      	cmp	r2, r3
 800060c:	d3f1      	bcc.n	80005f2 <BMS_MasterComm_CalcChecksum+0x16>
    }
    return xor_acc;
 800060e:	7bfb      	ldrb	r3, [r7, #15]
}
 8000610:	4618      	mov	r0, r3
 8000612:	3714      	adds	r7, #20
 8000614:	46bd      	mov	sp, r7
 8000616:	f85d 7b04 	ldr.w	r7, [sp], #4
 800061a:	4770      	bx	lr

0800061c <BMS_MasterComm_BuildPacket>:
/**
 * @brief  Preenche o pacote de telemetria com dados actuais do BMS
 */
static void BMS_MasterComm_BuildPacket(BMS_TelemetryPacket_t *pkt,
                                        BMS_Handle_t *hbms)
{
 800061c:	b580      	push	{r7, lr}
 800061e:	b084      	sub	sp, #16
 8000620:	af00      	add	r7, sp, #0
 8000622:	6078      	str	r0, [r7, #4]
 8000624:	6039      	str	r1, [r7, #0]
    memset(pkt, 0, sizeof(BMS_TelemetryPacket_t));
 8000626:	2216      	movs	r2, #22
 8000628:	2100      	movs	r1, #0
 800062a:	6878      	ldr	r0, [r7, #4]
 800062c:	f007 f868 	bl	8007700 <memset>

    pkt->header[0]         = TELEMETRY_HEADER_1;
 8000630:	687b      	ldr	r3, [r7, #4]
 8000632:	22be      	movs	r2, #190	@ 0xbe
 8000634:	701a      	strb	r2, [r3, #0]
    pkt->header[1]         = TELEMETRY_HEADER_2;
 8000636:	687b      	ldr	r3, [r7, #4]
 8000638:	22ef      	movs	r2, #239	@ 0xef
 800063a:	705a      	strb	r2, [r3, #1]
    pkt->bms_state         = (uint8_t)hbms->state;
 800063c:	683b      	ldr	r3, [r7, #0]
 800063e:	781a      	ldrb	r2, [r3, #0]
 8000640:	687b      	ldr	r3, [r7, #4]
 8000642:	709a      	strb	r2, [r3, #2]
    pkt->fault_flags       = hbms->fault_flags;
 8000644:	683b      	ldr	r3, [r7, #0]
 8000646:	685a      	ldr	r2, [r3, #4]
 8000648:	687b      	ldr	r3, [r7, #4]
 800064a:	f8c3 2003 	str.w	r2, [r3, #3]
    pkt->pack_voltage_mv   = hbms->pack_voltage_mv;
 800064e:	683b      	ldr	r3, [r7, #0]
 8000650:	f8d3 20b4 	ldr.w	r2, [r3, #180]	@ 0xb4
 8000654:	687b      	ldr	r3, [r7, #4]
 8000656:	f8c3 2007 	str.w	r2, [r3, #7]
    pkt->min_cell_mv       = hbms->min_cell_mv;
 800065a:	683b      	ldr	r3, [r7, #0]
 800065c:	f8b3 20b8 	ldrh.w	r2, [r3, #184]	@ 0xb8
 8000660:	687b      	ldr	r3, [r7, #4]
 8000662:	f8a3 200b 	strh.w	r2, [r3, #11]
    pkt->max_cell_mv       = hbms->max_cell_mv;
 8000666:	683b      	ldr	r3, [r7, #0]
 8000668:	f8b3 20ba 	ldrh.w	r2, [r3, #186]	@ 0xba
 800066c:	687b      	ldr	r3, [r7, #4]
 800066e:	f8a3 200d 	strh.w	r2, [r3, #13]
    pkt->max_temp_c        = (int8_t)hbms->max_temp_c;
 8000672:	683b      	ldr	r3, [r7, #0]
 8000674:	f9b3 30be 	ldrsh.w	r3, [r3, #190]	@ 0xbe
 8000678:	b25a      	sxtb	r2, r3
 800067a:	687b      	ldr	r3, [r7, #4]
 800067c:	73da      	strb	r2, [r3, #15]
    pkt->precharge_ready   = hbms->precharge_ready ? 1U : 0U;
 800067e:	683b      	ldr	r3, [r7, #0]
 8000680:	f893 30dc 	ldrb.w	r3, [r3, #220]	@ 0xdc
 8000684:	2b00      	cmp	r3, #0
 8000686:	d001      	beq.n	800068c <BMS_MasterComm_BuildPacket+0x70>
 8000688:	2201      	movs	r2, #1
 800068a:	e000      	b.n	800068e <BMS_MasterComm_BuildPacket+0x72>
 800068c:	2200      	movs	r2, #0
 800068e:	687b      	ldr	r3, [r7, #4]
 8000690:	741a      	strb	r2, [r3, #16]
    pkt->balance_active    = hbms->is_balancing    ? 1U : 0U;
 8000692:	683b      	ldr	r3, [r7, #0]
 8000694:	f893 30dd 	ldrb.w	r3, [r3, #221]	@ 0xdd
 8000698:	2b00      	cmp	r3, #0
 800069a:	d001      	beq.n	80006a0 <BMS_MasterComm_BuildPacket+0x84>
 800069c:	2201      	movs	r2, #1
 800069e:	e000      	b.n	80006a2 <BMS_MasterComm_BuildPacket+0x86>
 80006a0:	2200      	movs	r2, #0
 80006a2:	687b      	ldr	r3, [r7, #4]
 80006a4:	745a      	strb	r2, [r3, #17]
    /* Tensão inversor em décimas de V (ex: 1134 = 113.4V) */
    pkt->inverter_voltage_v = (uint16_t)(hbms->inverter_voltage_mv / 100UL);
 80006a6:	683b      	ldr	r3, [r7, #0]
 80006a8:	f8d3 30d8 	ldr.w	r3, [r3, #216]	@ 0xd8
 80006ac:	4a0c      	ldr	r2, [pc, #48]	@ (80006e0 <BMS_MasterComm_BuildPacket+0xc4>)
 80006ae:	fba2 2303 	umull	r2, r3, r2, r3
 80006b2:	095b      	lsrs	r3, r3, #5
 80006b4:	b29a      	uxth	r2, r3
 80006b6:	687b      	ldr	r3, [r7, #4]
 80006b8:	825a      	strh	r2, [r3, #18]

    /* Checksum: XOR de todos os bytes desde header até inverter_voltage_v */
    uint16_t cs_len = (uint16_t)(offsetof(BMS_TelemetryPacket_t, checksum));
 80006ba:	2314      	movs	r3, #20
 80006bc:	81fb      	strh	r3, [r7, #14]
    pkt->checksum = BMS_MasterComm_CalcChecksum((uint8_t *)pkt, cs_len);
 80006be:	89fb      	ldrh	r3, [r7, #14]
 80006c0:	4619      	mov	r1, r3
 80006c2:	6878      	ldr	r0, [r7, #4]
 80006c4:	f7ff ff8a 	bl	80005dc <BMS_MasterComm_CalcChecksum>
 80006c8:	4603      	mov	r3, r0
 80006ca:	461a      	mov	r2, r3
 80006cc:	687b      	ldr	r3, [r7, #4]
 80006ce:	751a      	strb	r2, [r3, #20]
    pkt->footer   = TELEMETRY_FOOTER;
 80006d0:	687b      	ldr	r3, [r7, #4]
 80006d2:	22aa      	movs	r2, #170	@ 0xaa
 80006d4:	755a      	strb	r2, [r3, #21]
}
 80006d6:	bf00      	nop
 80006d8:	3710      	adds	r7, #16
 80006da:	46bd      	mov	sp, r7
 80006dc:	bd80      	pop	{r7, pc}
 80006de:	bf00      	nop
 80006e0:	51eb851f 	.word	0x51eb851f

080006e4 <BMS_MasterComm_Init>:
 *
 * @param  hcomm    Handle do módulo de comunicação
 * @param  huart3   Handle do USART3 (distinto do USART2 do BQ79600)
 */
void BMS_MasterComm_Init(BMS_MasterComm_t *hcomm, UART_HandleTypeDef *huart3)
{
 80006e4:	b580      	push	{r7, lr}
 80006e6:	b082      	sub	sp, #8
 80006e8:	af00      	add	r7, sp, #0
 80006ea:	6078      	str	r0, [r7, #4]
 80006ec:	6039      	str	r1, [r7, #0]
    if ((hcomm == NULL) || (huart3 == NULL)) { return; }
 80006ee:	687b      	ldr	r3, [r7, #4]
 80006f0:	2b00      	cmp	r3, #0
 80006f2:	d01b      	beq.n	800072c <BMS_MasterComm_Init+0x48>
 80006f4:	683b      	ldr	r3, [r7, #0]
 80006f6:	2b00      	cmp	r3, #0
 80006f8:	d018      	beq.n	800072c <BMS_MasterComm_Init+0x48>

    memset(hcomm, 0, sizeof(BMS_MasterComm_t));
 80006fa:	2218      	movs	r2, #24
 80006fc:	2100      	movs	r1, #0
 80006fe:	6878      	ldr	r0, [r7, #4]
 8000700:	f006 fffe 	bl	8007700 <memset>
    hcomm->huart       = huart3;
 8000704:	687b      	ldr	r3, [r7, #4]
 8000706:	683a      	ldr	r2, [r7, #0]
 8000708:	601a      	str	r2, [r3, #0]
    hcomm->last_hb_tick = HAL_GetTick();
 800070a:	f003 fbdd 	bl	8003ec8 <HAL_GetTick>
 800070e:	4602      	mov	r2, r0
 8000710:	687b      	ldr	r3, [r7, #4]
 8000712:	605a      	str	r2, [r3, #4]
    hcomm->link_ok     = false;
 8000714:	687b      	ldr	r3, [r7, #4]
 8000716:	2200      	movs	r2, #0
 8000718:	721a      	strb	r2, [r3, #8]

    /* Armar receptor para captura do heartbeat (1 byte em modo IT) */
    (void)HAL_UART_Receive_IT(hcomm->huart,
 800071a:	687b      	ldr	r3, [r7, #4]
 800071c:	6818      	ldr	r0, [r3, #0]
                               (uint8_t *)hcomm->hb_rx_buf, 1U);
 800071e:	687b      	ldr	r3, [r7, #4]
 8000720:	3314      	adds	r3, #20
    (void)HAL_UART_Receive_IT(hcomm->huart,
 8000722:	2201      	movs	r2, #1
 8000724:	4619      	mov	r1, r3
 8000726:	f005 ffc0 	bl	80066aa <HAL_UART_Receive_IT>
 800072a:	e000      	b.n	800072e <BMS_MasterComm_Init+0x4a>
    if ((hcomm == NULL) || (huart3 == NULL)) { return; }
 800072c:	bf00      	nop
}
 800072e:	3708      	adds	r7, #8
 8000730:	46bd      	mov	sp, r7
 8000732:	bd80      	pop	{r7, pc}

08000734 <BMS_MasterComm_Task_100ms>:
 *
 * @param  hcomm    Handle do módulo de comunicação
 * @param  hbms     Handle principal do BMS (para leitura de dados e fault)
 */
void BMS_MasterComm_Task_100ms(BMS_MasterComm_t *hcomm, BMS_Handle_t *hbms)
{
 8000734:	b580      	push	{r7, lr}
 8000736:	b08a      	sub	sp, #40	@ 0x28
 8000738:	af00      	add	r7, sp, #0
 800073a:	6078      	str	r0, [r7, #4]
 800073c:	6039      	str	r1, [r7, #0]
    if ((hcomm == NULL) || (hbms == NULL)) { return; }
 800073e:	687b      	ldr	r3, [r7, #4]
 8000740:	2b00      	cmp	r3, #0
 8000742:	d03a      	beq.n	80007ba <BMS_MasterComm_Task_100ms+0x86>
 8000744:	683b      	ldr	r3, [r7, #0]
 8000746:	2b00      	cmp	r3, #0
 8000748:	d037      	beq.n	80007ba <BMS_MasterComm_Task_100ms+0x86>

    /* ---------------------------------------------------------------
     * 1. VERIFICAÇÃO DO WATCHDOG DE HEARTBEAT
     * --------------------------------------------------------------- */
    uint32_t now_ms     = HAL_GetTick();
 800074a:	f003 fbbd 	bl	8003ec8 <HAL_GetTick>
 800074e:	6278      	str	r0, [r7, #36]	@ 0x24
    uint32_t elapsed_ms = now_ms - hcomm->last_hb_tick;
 8000750:	687b      	ldr	r3, [r7, #4]
 8000752:	685b      	ldr	r3, [r3, #4]
 8000754:	6a7a      	ldr	r2, [r7, #36]	@ 0x24
 8000756:	1ad3      	subs	r3, r2, r3
 8000758:	623b      	str	r3, [r7, #32]

    if (elapsed_ms >= MASTER_HB_TIMEOUT_MS)
 800075a:	6a3b      	ldr	r3, [r7, #32]
 800075c:	f5b3 7ffa 	cmp.w	r3, #500	@ 0x1f4
 8000760:	d317      	bcc.n	8000792 <BMS_MasterComm_Task_100ms+0x5e>
    {
        /* Heartbeat em falta há >= 500 ms: ligação perdida OU nunca estabelecida.
         * Fail-safe: declara fault em qualquer dos casos. A janela de 500 ms
         * (a contar de last_hb_tick, semeado no boot) dá margem para a VCU
         * arrancar e enviar o primeiro heartbeat. */
        if (hcomm->link_ok)
 8000762:	687b      	ldr	r3, [r7, #4]
 8000764:	7a1b      	ldrb	r3, [r3, #8]
 8000766:	2b00      	cmp	r3, #0
 8000768:	d004      	beq.n	8000774 <BMS_MasterComm_Task_100ms+0x40>
        {
            /* Conta apenas a transição ok→perdido (evita spam do contador) */
            hcomm->hb_timeout_count++;
 800076a:	687b      	ldr	r3, [r7, #4]
 800076c:	691b      	ldr	r3, [r3, #16]
 800076e:	1c5a      	adds	r2, r3, #1
 8000770:	687b      	ldr	r3, [r7, #4]
 8000772:	611a      	str	r2, [r3, #16]
        }
        hcomm->link_ok      = false;
 8000774:	687b      	ldr	r3, [r7, #4]
 8000776:	2200      	movs	r2, #0
 8000778:	721a      	strb	r2, [r3, #8]
        hbms->fault_flags  |= BMS_FAULT_COMM;
 800077a:	683b      	ldr	r3, [r7, #0]
 800077c:	685b      	ldr	r3, [r3, #4]
 800077e:	f043 0208 	orr.w	r2, r3, #8
 8000782:	683b      	ldr	r3, [r7, #0]
 8000784:	605a      	str	r2, [r3, #4]
        hbms->state         = BMS_STATE_FAULT;
 8000786:	683b      	ldr	r3, [r7, #0]
 8000788:	2205      	movs	r2, #5
 800078a:	701a      	strb	r2, [r3, #0]
        BMS_ContactorOpen(hbms);
 800078c:	6838      	ldr	r0, [r7, #0]
 800078e:	f001 ff17 	bl	80025c0 <BMS_ContactorOpen>

    /* ---------------------------------------------------------------
     * 2. SERIALIZAÇÃO E ENVIO DO PACOTE DE TELEMETRIA
     * --------------------------------------------------------------- */
    BMS_TelemetryPacket_t pkt;
    BMS_MasterComm_BuildPacket(&pkt, hbms);
 8000792:	f107 0308 	add.w	r3, r7, #8
 8000796:	6839      	ldr	r1, [r7, #0]
 8000798:	4618      	mov	r0, r3
 800079a:	f7ff ff3f 	bl	800061c <BMS_MasterComm_BuildPacket>

    (void)HAL_UART_Transmit(hcomm->huart,
 800079e:	687b      	ldr	r3, [r7, #4]
 80007a0:	6818      	ldr	r0, [r3, #0]
 80007a2:	f107 0108 	add.w	r1, r7, #8
 80007a6:	2314      	movs	r3, #20
 80007a8:	2216      	movs	r2, #22
 80007aa:	f005 fef3 	bl	8006594 <HAL_UART_Transmit>
                             (uint8_t *)&pkt,
                             TELEMETRY_PACKET_SIZE,
                             20U);  /* Timeout 20 ms: 22 bytes @ 115200 = ~1.9 ms */
    hcomm->tx_count++;
 80007ae:	687b      	ldr	r3, [r7, #4]
 80007b0:	68db      	ldr	r3, [r3, #12]
 80007b2:	1c5a      	adds	r2, r3, #1
 80007b4:	687b      	ldr	r3, [r7, #4]
 80007b6:	60da      	str	r2, [r3, #12]
 80007b8:	e000      	b.n	80007bc <BMS_MasterComm_Task_100ms+0x88>
    if ((hcomm == NULL) || (hbms == NULL)) { return; }
 80007ba:	bf00      	nop
}
 80007bc:	3728      	adds	r7, #40	@ 0x28
 80007be:	46bd      	mov	sp, r7
 80007c0:	bd80      	pop	{r7, pc}

080007c2 <BMS_MasterComm_RxCallback>:
 *        // ... outros handlers UART ...
 *    }
 */
void BMS_MasterComm_RxCallback(BMS_MasterComm_t *hcomm,
                                 UART_HandleTypeDef *huart)
{
 80007c2:	b580      	push	{r7, lr}
 80007c4:	b082      	sub	sp, #8
 80007c6:	af00      	add	r7, sp, #0
 80007c8:	6078      	str	r0, [r7, #4]
 80007ca:	6039      	str	r1, [r7, #0]
    if ((hcomm == NULL) || (huart != hcomm->huart)) { return; }
 80007cc:	687b      	ldr	r3, [r7, #4]
 80007ce:	2b00      	cmp	r3, #0
 80007d0:	d01a      	beq.n	8000808 <BMS_MasterComm_RxCallback+0x46>
 80007d2:	687b      	ldr	r3, [r7, #4]
 80007d4:	681b      	ldr	r3, [r3, #0]
 80007d6:	683a      	ldr	r2, [r7, #0]
 80007d8:	429a      	cmp	r2, r3
 80007da:	d115      	bne.n	8000808 <BMS_MasterComm_RxCallback+0x46>

    if (hcomm->hb_rx_buf[0] == MASTER_HEARTBEAT_BYTE)
 80007dc:	687b      	ldr	r3, [r7, #4]
 80007de:	7d1b      	ldrb	r3, [r3, #20]
 80007e0:	b2db      	uxtb	r3, r3
 80007e2:	2b55      	cmp	r3, #85	@ 0x55
 80007e4:	d107      	bne.n	80007f6 <BMS_MasterComm_RxCallback+0x34>
    {
        hcomm->last_hb_tick = HAL_GetTick();
 80007e6:	f003 fb6f 	bl	8003ec8 <HAL_GetTick>
 80007ea:	4602      	mov	r2, r0
 80007ec:	687b      	ldr	r3, [r7, #4]
 80007ee:	605a      	str	r2, [r3, #4]
        hcomm->link_ok      = true;
 80007f0:	687b      	ldr	r3, [r7, #4]
 80007f2:	2201      	movs	r2, #1
 80007f4:	721a      	strb	r2, [r3, #8]
    }
    /* Re-armar receptor independentemente da validade do byte */
    (void)HAL_UART_Receive_IT(hcomm->huart,
 80007f6:	687b      	ldr	r3, [r7, #4]
 80007f8:	6818      	ldr	r0, [r3, #0]
                               (uint8_t *)hcomm->hb_rx_buf, 1U);
 80007fa:	687b      	ldr	r3, [r7, #4]
 80007fc:	3314      	adds	r3, #20
    (void)HAL_UART_Receive_IT(hcomm->huart,
 80007fe:	2201      	movs	r2, #1
 8000800:	4619      	mov	r1, r3
 8000802:	f005 ff52 	bl	80066aa <HAL_UART_Receive_IT>
 8000806:	e000      	b.n	800080a <BMS_MasterComm_RxCallback+0x48>
    if ((hcomm == NULL) || (huart != hcomm->huart)) { return; }
 8000808:	bf00      	nop
}
 800080a:	3708      	adds	r7, #8
 800080c:	46bd      	mov	sp, r7
 800080e:	bd80      	pop	{r7, pc}

08000810 <BMS_DelayMs>:

/**
 * @brief  Atraso em milissegundos usando HAL_Delay
 */
void BMS_DelayMs(uint32_t ms)
{
 8000810:	b580      	push	{r7, lr}
 8000812:	b082      	sub	sp, #8
 8000814:	af00      	add	r7, sp, #0
 8000816:	6078      	str	r0, [r7, #4]
    HAL_Delay(ms);
 8000818:	6878      	ldr	r0, [r7, #4]
 800081a:	f003 fb61 	bl	8003ee0 <HAL_Delay>
}
 800081e:	bf00      	nop
 8000820:	3708      	adds	r7, #8
 8000822:	46bd      	mov	sp, r7
 8000824:	bd80      	pop	{r7, pc}

08000826 <BMS_DelayUs>:
 *
 *  NOTA: Garantir que HAL_TIM_Base_Start(htim2) é chamado no BMS_Init ou
 *        que o timer é configurado com auto-start no CubeMX.
 */
void BMS_DelayUs(BMS_Handle_t *hbms, uint32_t us)
{
 8000826:	b480      	push	{r7}
 8000828:	b085      	sub	sp, #20
 800082a:	af00      	add	r7, sp, #0
 800082c:	6078      	str	r0, [r7, #4]
 800082e:	6039      	str	r1, [r7, #0]
    if (hbms->htim_delay != NULL)
 8000830:	687b      	ldr	r3, [r7, #4]
 8000832:	f8d3 30d4 	ldr.w	r3, [r3, #212]	@ 0xd4
 8000836:	2b00      	cmp	r3, #0
 8000838:	d011      	beq.n	800085e <BMS_DelayUs+0x38>
    {
        /* Leitura do contador free-running sem Start/Stop */
        uint32_t start = __HAL_TIM_GET_COUNTER(hbms->htim_delay);
 800083a:	687b      	ldr	r3, [r7, #4]
 800083c:	f8d3 30d4 	ldr.w	r3, [r3, #212]	@ 0xd4
 8000840:	681b      	ldr	r3, [r3, #0]
 8000842:	6a5b      	ldr	r3, [r3, #36]	@ 0x24
 8000844:	60fb      	str	r3, [r7, #12]
        while ((__HAL_TIM_GET_COUNTER(hbms->htim_delay) - start) < us);
 8000846:	bf00      	nop
 8000848:	687b      	ldr	r3, [r7, #4]
 800084a:	f8d3 30d4 	ldr.w	r3, [r3, #212]	@ 0xd4
 800084e:	681b      	ldr	r3, [r3, #0]
 8000850:	6a5a      	ldr	r2, [r3, #36]	@ 0x24
 8000852:	68fb      	ldr	r3, [r7, #12]
 8000854:	1ad3      	subs	r3, r2, r3
 8000856:	683a      	ldr	r2, [r7, #0]
 8000858:	429a      	cmp	r2, r3
 800085a:	d8f5      	bhi.n	8000848 <BMS_DelayUs+0x22>
    {
        /* Fallback: loop calibrado para STM32F446 a 180 MHz */
        volatile uint32_t count = us * 45U;
        while (count--);
    }
}
 800085c:	e00c      	b.n	8000878 <BMS_DelayUs+0x52>
        volatile uint32_t count = us * 45U;
 800085e:	683a      	ldr	r2, [r7, #0]
 8000860:	4613      	mov	r3, r2
 8000862:	005b      	lsls	r3, r3, #1
 8000864:	4413      	add	r3, r2
 8000866:	011a      	lsls	r2, r3, #4
 8000868:	1ad3      	subs	r3, r2, r3
 800086a:	60bb      	str	r3, [r7, #8]
        while (count--);
 800086c:	bf00      	nop
 800086e:	68bb      	ldr	r3, [r7, #8]
 8000870:	1e5a      	subs	r2, r3, #1
 8000872:	60ba      	str	r2, [r7, #8]
 8000874:	2b00      	cmp	r3, #0
 8000876:	d1fa      	bne.n	800086e <BMS_DelayUs+0x48>
}
 8000878:	bf00      	nop
 800087a:	3714      	adds	r7, #20
 800087c:	46bd      	mov	sp, r7
 800087e:	f85d 7b04 	ldr.w	r7, [sp], #4
 8000882:	4770      	bx	lr

08000884 <BMS_CalculateCRC16>:
 * @param  data     Ponteiro para os dados
 * @param  length   Comprimento em bytes
 * @return CRC calculado (16 bits)
 */
uint16_t BMS_CalculateCRC16(uint8_t *data, uint16_t length)
{
 8000884:	b480      	push	{r7}
 8000886:	b085      	sub	sp, #20
 8000888:	af00      	add	r7, sp, #0
 800088a:	6078      	str	r0, [r7, #4]
 800088c:	460b      	mov	r3, r1
 800088e:	807b      	strh	r3, [r7, #2]
    uint16_t crc = CRC16_INIT;   /* 0xFFFF */
 8000890:	f64f 73ff 	movw	r3, #65535	@ 0xffff
 8000894:	81fb      	strh	r3, [r7, #14]

    for (uint16_t i = 0; i < length; i++)
 8000896:	2300      	movs	r3, #0
 8000898:	81bb      	strh	r3, [r7, #12]
 800089a:	e022      	b.n	80008e2 <BMS_CalculateCRC16+0x5e>
    {
        crc ^= (uint16_t)data[i];
 800089c:	89bb      	ldrh	r3, [r7, #12]
 800089e:	687a      	ldr	r2, [r7, #4]
 80008a0:	4413      	add	r3, r2
 80008a2:	781b      	ldrb	r3, [r3, #0]
 80008a4:	461a      	mov	r2, r3
 80008a6:	89fb      	ldrh	r3, [r7, #14]
 80008a8:	4053      	eors	r3, r2
 80008aa:	81fb      	strh	r3, [r7, #14]
        for (uint8_t j = 0; j < 8U; j++)
 80008ac:	2300      	movs	r3, #0
 80008ae:	72fb      	strb	r3, [r7, #11]
 80008b0:	e011      	b.n	80008d6 <BMS_CalculateCRC16+0x52>
        {
            if (crc & 0x0001U)
 80008b2:	89fb      	ldrh	r3, [r7, #14]
 80008b4:	f003 0301 	and.w	r3, r3, #1
 80008b8:	2b00      	cmp	r3, #0
 80008ba:	d006      	beq.n	80008ca <BMS_CalculateCRC16+0x46>
            {
                /* Polinómio x^16 + x^15 + x^2 + 1, formato LSB-first reflexo */
                crc = (crc >> 1U) ^ CRC16_POLY_LSB_FIRST;  /* 0xA001 */
 80008bc:	89fb      	ldrh	r3, [r7, #14]
 80008be:	085b      	lsrs	r3, r3, #1
 80008c0:	b29a      	uxth	r2, r3
 80008c2:	4b0d      	ldr	r3, [pc, #52]	@ (80008f8 <BMS_CalculateCRC16+0x74>)
 80008c4:	4053      	eors	r3, r2
 80008c6:	81fb      	strh	r3, [r7, #14]
 80008c8:	e002      	b.n	80008d0 <BMS_CalculateCRC16+0x4c>
            }
            else
            {
                crc >>= 1U;
 80008ca:	89fb      	ldrh	r3, [r7, #14]
 80008cc:	085b      	lsrs	r3, r3, #1
 80008ce:	81fb      	strh	r3, [r7, #14]
        for (uint8_t j = 0; j < 8U; j++)
 80008d0:	7afb      	ldrb	r3, [r7, #11]
 80008d2:	3301      	adds	r3, #1
 80008d4:	72fb      	strb	r3, [r7, #11]
 80008d6:	7afb      	ldrb	r3, [r7, #11]
 80008d8:	2b07      	cmp	r3, #7
 80008da:	d9ea      	bls.n	80008b2 <BMS_CalculateCRC16+0x2e>
    for (uint16_t i = 0; i < length; i++)
 80008dc:	89bb      	ldrh	r3, [r7, #12]
 80008de:	3301      	adds	r3, #1
 80008e0:	81bb      	strh	r3, [r7, #12]
 80008e2:	89ba      	ldrh	r2, [r7, #12]
 80008e4:	887b      	ldrh	r3, [r7, #2]
 80008e6:	429a      	cmp	r2, r3
 80008e8:	d3d8      	bcc.n	800089c <BMS_CalculateCRC16+0x18>
            }
        }
    }
    return crc;
 80008ea:	89fb      	ldrh	r3, [r7, #14]
}
 80008ec:	4618      	mov	r0, r3
 80008ee:	3714      	adds	r7, #20
 80008f0:	46bd      	mov	sp, r7
 80008f2:	f85d 7b04 	ldr.w	r7, [sp], #4
 80008f6:	4770      	bx	lr
 80008f8:	ffffa001 	.word	0xffffa001

080008fc <BMS_Transceive>:
 * @return BMS_OK ou código de erro
 */
static BMS_Status_t BMS_Transceive(BMS_Handle_t *hbms,
                                    uint8_t *tx_data, uint16_t tx_len,
                                    uint8_t *rx_data, uint16_t rx_len)
{
 80008fc:	b580      	push	{r7, lr}
 80008fe:	b088      	sub	sp, #32
 8000900:	af00      	add	r7, sp, #0
 8000902:	60f8      	str	r0, [r7, #12]
 8000904:	60b9      	str	r1, [r7, #8]
 8000906:	603b      	str	r3, [r7, #0]
 8000908:	4613      	mov	r3, r2
 800090a:	80fb      	strh	r3, [r7, #6]
    HAL_StatusTypeDef hal_status;

    if ((rx_data != NULL) && (rx_len > 0U))
 800090c:	683b      	ldr	r3, [r7, #0]
 800090e:	2b00      	cmp	r3, #0
 8000910:	f000 8092 	beq.w	8000a38 <BMS_Transceive+0x13c>
 8000914:	8d3b      	ldrh	r3, [r7, #40]	@ 0x28
 8000916:	2b00      	cmp	r3, #0
 8000918:	f000 808e 	beq.w	8000a38 <BMS_Transceive+0x13c>
         * PASSO 1: Armar DMA RX antes de transmitir
         * HAL_UART_Receive_DMA configura o canal DMA e habilita o receptor.
         * Uma única interrupção Transfer Complete (TC) sinaliza o fim.
         * Ao contrário de _IT (1 ISR/byte), DMA não consome CPU durante RX.
         * ----------------------------------------------------------------- */
        __atomic_store_n(&hbms->dma_rx_done, 0U, __ATOMIC_SEQ_CST);
 800091c:	68fb      	ldr	r3, [r7, #12]
 800091e:	f503 7396 	add.w	r3, r3, #300	@ 0x12c
 8000922:	f3bf 8f5b 	dmb	ish
 8000926:	2200      	movs	r2, #0
 8000928:	601a      	str	r2, [r3, #0]
 800092a:	f3bf 8f5b 	dmb	ish

        hal_status = HAL_UART_Receive_DMA(hbms->huart, rx_data, rx_len);
 800092e:	68fb      	ldr	r3, [r7, #12]
 8000930:	f8d3 30d0 	ldr.w	r3, [r3, #208]	@ 0xd0
 8000934:	8d3a      	ldrh	r2, [r7, #40]	@ 0x28
 8000936:	6839      	ldr	r1, [r7, #0]
 8000938:	4618      	mov	r0, r3
 800093a:	f005 fedb 	bl	80066f4 <HAL_UART_Receive_DMA>
 800093e:	4603      	mov	r3, r0
 8000940:	76fb      	strb	r3, [r7, #27]
        if (hal_status != HAL_OK)
 8000942:	7efb      	ldrb	r3, [r7, #27]
 8000944:	2b00      	cmp	r3, #0
 8000946:	d008      	beq.n	800095a <BMS_Transceive+0x5e>
        {
            hbms->comm_error_count++;
 8000948:	68fb      	ldr	r3, [r7, #12]
 800094a:	f8d3 30c8 	ldr.w	r3, [r3, #200]	@ 0xc8
 800094e:	1c5a      	adds	r2, r3, #1
 8000950:	68fb      	ldr	r3, [r7, #12]
 8000952:	f8c3 20c8 	str.w	r2, [r3, #200]	@ 0xc8
            return BMS_ERR_COMM;
 8000956:	2303      	movs	r3, #3
 8000958:	e086      	b.n	8000a68 <BMS_Transceive+0x16c>
        /* -----------------------------------------------------------------
         * PASSO 2: Transmitir frame de comando (bloqueante — frames curtos)
         * O BQ79600 não transmite resposta enquanto estiver a receber,
         * portanto o DMA RX ficará inactivo durante a TX — sem overrun.
         * ----------------------------------------------------------------- */
        hal_status = HAL_UART_Transmit(hbms->huart, tx_data, tx_len,
 800095a:	68fb      	ldr	r3, [r7, #12]
 800095c:	f8d3 00d0 	ldr.w	r0, [r3, #208]	@ 0xd0
 8000960:	88fa      	ldrh	r2, [r7, #6]
 8000962:	2332      	movs	r3, #50	@ 0x32
 8000964:	68b9      	ldr	r1, [r7, #8]
 8000966:	f005 fe15 	bl	8006594 <HAL_UART_Transmit>
 800096a:	4603      	mov	r3, r0
 800096c:	76fb      	strb	r3, [r7, #27]
                                        BMS_UART_TIMEOUT_MS);
        if (hal_status != HAL_OK)
 800096e:	7efb      	ldrb	r3, [r7, #27]
 8000970:	2b00      	cmp	r3, #0
 8000972:	d00e      	beq.n	8000992 <BMS_Transceive+0x96>
        {
            HAL_UART_DMAStop(hbms->huart);
 8000974:	68fb      	ldr	r3, [r7, #12]
 8000976:	f8d3 30d0 	ldr.w	r3, [r3, #208]	@ 0xd0
 800097a:	4618      	mov	r0, r3
 800097c:	f005 fedf 	bl	800673e <HAL_UART_DMAStop>
            hbms->comm_error_count++;
 8000980:	68fb      	ldr	r3, [r7, #12]
 8000982:	f8d3 30c8 	ldr.w	r3, [r3, #200]	@ 0xc8
 8000986:	1c5a      	adds	r2, r3, #1
 8000988:	68fb      	ldr	r3, [r7, #12]
 800098a:	f8c3 20c8 	str.w	r2, [r3, #200]	@ 0xc8
            return BMS_ERR_COMM;
 800098e:	2303      	movs	r3, #3
 8000990:	e06a      	b.n	8000a68 <BMS_Transceive+0x16c>
         * PASSO 3: Aguardar flag DMA TC (set em HAL_UART_RxCpltCallback)
         * BUG-05 CORRIGIDO: margem de 200 µs era insuficiente para latência
         * de propagação na rede isolada de 3 ICs (estimativa ~900 µs).
         * BMS_DAISY_CHAIN_LATENCY_US = 2000 µs: conservador e seguro.
         * ----------------------------------------------------------------- */
        uint32_t timeout_us = (uint32_t)rx_len * 10UL + BMS_DAISY_CHAIN_LATENCY_US;
 8000992:	8d3a      	ldrh	r2, [r7, #40]	@ 0x28
 8000994:	4613      	mov	r3, r2
 8000996:	009b      	lsls	r3, r3, #2
 8000998:	4413      	add	r3, r2
 800099a:	005b      	lsls	r3, r3, #1
 800099c:	f503 63fa 	add.w	r3, r3, #2000	@ 0x7d0
 80009a0:	617b      	str	r3, [r7, #20]
        uint32_t elapsed_us = 0U;
 80009a2:	2300      	movs	r3, #0
 80009a4:	61fb      	str	r3, [r7, #28]

        while (__atomic_load_n(&hbms->dma_rx_done, __ATOMIC_SEQ_CST) == 0U)
 80009a6:	e01c      	b.n	80009e2 <BMS_Transceive+0xe6>
        {
            BMS_DelayUs(hbms, 1U);
 80009a8:	2101      	movs	r1, #1
 80009aa:	68f8      	ldr	r0, [r7, #12]
 80009ac:	f7ff ff3b 	bl	8000826 <BMS_DelayUs>
            elapsed_us++;
 80009b0:	69fb      	ldr	r3, [r7, #28]
 80009b2:	3301      	adds	r3, #1
 80009b4:	61fb      	str	r3, [r7, #28]
            if (elapsed_us >= timeout_us)
 80009b6:	69fa      	ldr	r2, [r7, #28]
 80009b8:	697b      	ldr	r3, [r7, #20]
 80009ba:	429a      	cmp	r2, r3
 80009bc:	d311      	bcc.n	80009e2 <BMS_Transceive+0xe6>
            {
                HAL_UART_DMAStop(hbms->huart);
 80009be:	68fb      	ldr	r3, [r7, #12]
 80009c0:	f8d3 30d0 	ldr.w	r3, [r3, #208]	@ 0xd0
 80009c4:	4618      	mov	r0, r3
 80009c6:	f005 feba 	bl	800673e <HAL_UART_DMAStop>
                hbms->comm_error_count++;
 80009ca:	68fb      	ldr	r3, [r7, #12]
 80009cc:	f8d3 30c8 	ldr.w	r3, [r3, #200]	@ 0xc8
 80009d0:	1c5a      	adds	r2, r3, #1
 80009d2:	68fb      	ldr	r3, [r7, #12]
 80009d4:	f8c3 20c8 	str.w	r2, [r3, #200]	@ 0xc8
                /* Destravar a state machine UART dos slaves após timeout.
                 * Sem COMM CLEAR, um frame parcialmente recebido pelo BQ79600/BQ79616
                 * deixa o receptor num estado intermédio — os próximos frames
                 * serão rejeitados como FMT_ERR até um reset explícito. */
                BMS_CommClear(hbms);
 80009d8:	68f8      	ldr	r0, [r7, #12]
 80009da:	f000 ffc3 	bl	8001964 <BMS_CommClear>
                return BMS_ERR_TIMEOUT;
 80009de:	2301      	movs	r3, #1
 80009e0:	e042      	b.n	8000a68 <BMS_Transceive+0x16c>
        while (__atomic_load_n(&hbms->dma_rx_done, __ATOMIC_SEQ_CST) == 0U)
 80009e2:	68fb      	ldr	r3, [r7, #12]
 80009e4:	f503 7396 	add.w	r3, r3, #300	@ 0x12c
 80009e8:	f3bf 8f5b 	dmb	ish
 80009ec:	681b      	ldr	r3, [r3, #0]
 80009ee:	f3bf 8f5b 	dmb	ish
 80009f2:	2b00      	cmp	r3, #0
 80009f4:	d0d8      	beq.n	80009a8 <BMS_Transceive+0xac>
            }
        }

        /* Verificar e limpar ORE residual */
        if (__HAL_UART_GET_FLAG(hbms->huart, UART_FLAG_ORE))
 80009f6:	68fb      	ldr	r3, [r7, #12]
 80009f8:	f8d3 30d0 	ldr.w	r3, [r3, #208]	@ 0xd0
 80009fc:	681b      	ldr	r3, [r3, #0]
 80009fe:	681b      	ldr	r3, [r3, #0]
 8000a00:	f003 0308 	and.w	r3, r3, #8
 8000a04:	2b08      	cmp	r3, #8
 8000a06:	d12d      	bne.n	8000a64 <BMS_Transceive+0x168>
        {
            __HAL_UART_CLEAR_OREFLAG(hbms->huart);
 8000a08:	2300      	movs	r3, #0
 8000a0a:	613b      	str	r3, [r7, #16]
 8000a0c:	68fb      	ldr	r3, [r7, #12]
 8000a0e:	f8d3 30d0 	ldr.w	r3, [r3, #208]	@ 0xd0
 8000a12:	681b      	ldr	r3, [r3, #0]
 8000a14:	681b      	ldr	r3, [r3, #0]
 8000a16:	613b      	str	r3, [r7, #16]
 8000a18:	68fb      	ldr	r3, [r7, #12]
 8000a1a:	f8d3 30d0 	ldr.w	r3, [r3, #208]	@ 0xd0
 8000a1e:	681b      	ldr	r3, [r3, #0]
 8000a20:	685b      	ldr	r3, [r3, #4]
 8000a22:	613b      	str	r3, [r7, #16]
 8000a24:	693b      	ldr	r3, [r7, #16]
            hbms->comm_error_count++;
 8000a26:	68fb      	ldr	r3, [r7, #12]
 8000a28:	f8d3 30c8 	ldr.w	r3, [r3, #200]	@ 0xc8
 8000a2c:	1c5a      	adds	r2, r3, #1
 8000a2e:	68fb      	ldr	r3, [r7, #12]
 8000a30:	f8c3 20c8 	str.w	r2, [r3, #200]	@ 0xc8
            return BMS_ERR_COMM;
 8000a34:	2303      	movs	r3, #3
 8000a36:	e017      	b.n	8000a68 <BMS_Transceive+0x16c>
        }
    }
    else
    {
        /* Escrita sem resposta: TX bloqueante simples */
        hal_status = HAL_UART_Transmit(hbms->huart, tx_data, tx_len,
 8000a38:	68fb      	ldr	r3, [r7, #12]
 8000a3a:	f8d3 00d0 	ldr.w	r0, [r3, #208]	@ 0xd0
 8000a3e:	88fa      	ldrh	r2, [r7, #6]
 8000a40:	2332      	movs	r3, #50	@ 0x32
 8000a42:	68b9      	ldr	r1, [r7, #8]
 8000a44:	f005 fda6 	bl	8006594 <HAL_UART_Transmit>
 8000a48:	4603      	mov	r3, r0
 8000a4a:	76fb      	strb	r3, [r7, #27]
                                        BMS_UART_TIMEOUT_MS);
        if (hal_status != HAL_OK)
 8000a4c:	7efb      	ldrb	r3, [r7, #27]
 8000a4e:	2b00      	cmp	r3, #0
 8000a50:	d009      	beq.n	8000a66 <BMS_Transceive+0x16a>
        {
            hbms->comm_error_count++;
 8000a52:	68fb      	ldr	r3, [r7, #12]
 8000a54:	f8d3 30c8 	ldr.w	r3, [r3, #200]	@ 0xc8
 8000a58:	1c5a      	adds	r2, r3, #1
 8000a5a:	68fb      	ldr	r3, [r7, #12]
 8000a5c:	f8c3 20c8 	str.w	r2, [r3, #200]	@ 0xc8
            return BMS_ERR_COMM;
 8000a60:	2303      	movs	r3, #3
 8000a62:	e001      	b.n	8000a68 <BMS_Transceive+0x16c>
    {
 8000a64:	bf00      	nop
        }
    }

    return BMS_OK;
 8000a66:	2300      	movs	r3, #0
}
 8000a68:	4618      	mov	r0, r3
 8000a6a:	3720      	adds	r7, #32
 8000a6c:	46bd      	mov	sp, r7
 8000a6e:	bd80      	pop	{r7, pc}

08000a70 <HAL_UART_RxCpltCallback>:
 *    esta implementação forte automaticamente.
 *    Para projectos RTOS: mover para uma tarefa dedicada com notificação
 *    por semáforo a partir desta ISR.
 */
void HAL_UART_RxCpltCallback(UART_HandleTypeDef *huart)
{
 8000a70:	b580      	push	{r7, lr}
 8000a72:	b082      	sub	sp, #8
 8000a74:	af00      	add	r7, sp, #0
 8000a76:	6078      	str	r0, [r7, #4]
    /* --- 1. UART4: BQ79600 DMA Transfer Complete --- */
    if ((g_hbms_irq != NULL) && (huart == g_hbms_irq->huart))
 8000a78:	4b12      	ldr	r3, [pc, #72]	@ (8000ac4 <HAL_UART_RxCpltCallback+0x54>)
 8000a7a:	681b      	ldr	r3, [r3, #0]
 8000a7c:	2b00      	cmp	r3, #0
 8000a7e:	d010      	beq.n	8000aa2 <HAL_UART_RxCpltCallback+0x32>
 8000a80:	4b10      	ldr	r3, [pc, #64]	@ (8000ac4 <HAL_UART_RxCpltCallback+0x54>)
 8000a82:	681b      	ldr	r3, [r3, #0]
 8000a84:	f8d3 30d0 	ldr.w	r3, [r3, #208]	@ 0xd0
 8000a88:	687a      	ldr	r2, [r7, #4]
 8000a8a:	429a      	cmp	r2, r3
 8000a8c:	d109      	bne.n	8000aa2 <HAL_UART_RxCpltCallback+0x32>
    {
        __atomic_store_n(&g_hbms_irq->dma_rx_done, 1U, __ATOMIC_SEQ_CST);
 8000a8e:	4b0d      	ldr	r3, [pc, #52]	@ (8000ac4 <HAL_UART_RxCpltCallback+0x54>)
 8000a90:	681b      	ldr	r3, [r3, #0]
 8000a92:	f503 7396 	add.w	r3, r3, #300	@ 0x12c
 8000a96:	f3bf 8f5b 	dmb	ish
 8000a9a:	2201      	movs	r2, #1
 8000a9c:	601a      	str	r2, [r3, #0]
 8000a9e:	f3bf 8f5b 	dmb	ish
    }

    /* --- 2. USART3: Master/VCU Heartbeat (IT, 1 byte) --- */
    if ((g_master_comm.huart != NULL) && (huart == g_master_comm.huart))
 8000aa2:	4b09      	ldr	r3, [pc, #36]	@ (8000ac8 <HAL_UART_RxCpltCallback+0x58>)
 8000aa4:	681b      	ldr	r3, [r3, #0]
 8000aa6:	2b00      	cmp	r3, #0
 8000aa8:	d008      	beq.n	8000abc <HAL_UART_RxCpltCallback+0x4c>
 8000aaa:	4b07      	ldr	r3, [pc, #28]	@ (8000ac8 <HAL_UART_RxCpltCallback+0x58>)
 8000aac:	681b      	ldr	r3, [r3, #0]
 8000aae:	687a      	ldr	r2, [r7, #4]
 8000ab0:	429a      	cmp	r2, r3
 8000ab2:	d103      	bne.n	8000abc <HAL_UART_RxCpltCallback+0x4c>
    {
        BMS_MasterComm_RxCallback(&g_master_comm, huart);
 8000ab4:	6879      	ldr	r1, [r7, #4]
 8000ab6:	4804      	ldr	r0, [pc, #16]	@ (8000ac8 <HAL_UART_RxCpltCallback+0x58>)
 8000ab8:	f7ff fe83 	bl	80007c2 <BMS_MasterComm_RxCallback>
    }
}
 8000abc:	bf00      	nop
 8000abe:	3708      	adds	r7, #8
 8000ac0:	46bd      	mov	sp, r7
 8000ac2:	bd80      	pop	{r7, pc}
 8000ac4:	20000084 	.word	0x20000084
 8000ac8:	20000420 	.word	0x20000420

08000acc <BMS_WriteSingleDevice>:
 * @return BMS_OK ou código de erro
 */
BMS_Status_t BMS_WriteSingleDevice(BMS_Handle_t *hbms, uint8_t dev_addr,
                                    uint16_t reg_addr, uint8_t *data,
                                    uint8_t data_len)
{
 8000acc:	b580      	push	{r7, lr}
 8000ace:	b098      	sub	sp, #96	@ 0x60
 8000ad0:	af02      	add	r7, sp, #8
 8000ad2:	60f8      	str	r0, [r7, #12]
 8000ad4:	607b      	str	r3, [r7, #4]
 8000ad6:	460b      	mov	r3, r1
 8000ad8:	72fb      	strb	r3, [r7, #11]
 8000ada:	4613      	mov	r3, r2
 8000adc:	813b      	strh	r3, [r7, #8]
    uint8_t  frame[BMS_MAX_FRAME_SIZE];
    uint16_t idx = 0U;
 8000ade:	2300      	movs	r3, #0
 8000ae0:	f8a7 3056 	strh.w	r3, [r7, #86]	@ 0x56
    uint16_t crc;

    if ((data == NULL) || (data_len == 0U) || (data_len > 8U) ||
 8000ae4:	687b      	ldr	r3, [r7, #4]
 8000ae6:	2b00      	cmp	r3, #0
 8000ae8:	d00b      	beq.n	8000b02 <BMS_WriteSingleDevice+0x36>
 8000aea:	f897 3060 	ldrb.w	r3, [r7, #96]	@ 0x60
 8000aee:	2b00      	cmp	r3, #0
 8000af0:	d007      	beq.n	8000b02 <BMS_WriteSingleDevice+0x36>
 8000af2:	f897 3060 	ldrb.w	r3, [r7, #96]	@ 0x60
 8000af6:	2b08      	cmp	r3, #8
 8000af8:	d803      	bhi.n	8000b02 <BMS_WriteSingleDevice+0x36>
 8000afa:	f897 3060 	ldrb.w	r3, [r7, #96]	@ 0x60
 8000afe:	2b3a      	cmp	r3, #58	@ 0x3a
 8000b00:	d901      	bls.n	8000b06 <BMS_WriteSingleDevice+0x3a>
        (data_len > (BMS_MAX_FRAME_SIZE - 6U)))
    {
        return BMS_ERR_INVALID_PARAM;
 8000b02:	2304      	movs	r3, #4
 8000b04:	e086      	b.n	8000c14 <BMS_WriteSingleDevice+0x148>
    }

    /* INIT byte dinâmico: bits[2:0] = (data_len-1) codificam o tamanho do payload.
     * Com INIT estático 0x90 (size=0 → 1 byte), multi-byte writes falhavam:
     * o IC lia o 2º byte de dados como CRC → FMT_ERR e frame rejeitado. */
    frame[idx++] = BMS_INIT(INIT_BASE_SINGLE_WRITE, data_len);
 8000b06:	f897 3060 	ldrb.w	r3, [r7, #96]	@ 0x60
 8000b0a:	3b01      	subs	r3, #1
 8000b0c:	b2db      	uxtb	r3, r3
 8000b0e:	f003 0307 	and.w	r3, r3, #7
 8000b12:	b2da      	uxtb	r2, r3
 8000b14:	f8b7 3056 	ldrh.w	r3, [r7, #86]	@ 0x56
 8000b18:	1c59      	adds	r1, r3, #1
 8000b1a:	f8a7 1056 	strh.w	r1, [r7, #86]	@ 0x56
 8000b1e:	f062 0267 	orn	r2, r2, #103	@ 0x67
 8000b22:	b2d2      	uxtb	r2, r2
 8000b24:	3358      	adds	r3, #88	@ 0x58
 8000b26:	443b      	add	r3, r7
 8000b28:	f803 2c48 	strb.w	r2, [r3, #-72]
    frame[idx++] = dev_addr & 0x7FU;
 8000b2c:	f8b7 3056 	ldrh.w	r3, [r7, #86]	@ 0x56
 8000b30:	1c5a      	adds	r2, r3, #1
 8000b32:	f8a7 2056 	strh.w	r2, [r7, #86]	@ 0x56
 8000b36:	4619      	mov	r1, r3
 8000b38:	7afb      	ldrb	r3, [r7, #11]
 8000b3a:	f003 037f 	and.w	r3, r3, #127	@ 0x7f
 8000b3e:	b2da      	uxtb	r2, r3
 8000b40:	f101 0358 	add.w	r3, r1, #88	@ 0x58
 8000b44:	443b      	add	r3, r7
 8000b46:	f803 2c48 	strb.w	r2, [r3, #-72]
    frame[idx++] = (uint8_t)(reg_addr >> 8U);
 8000b4a:	893b      	ldrh	r3, [r7, #8]
 8000b4c:	0a1b      	lsrs	r3, r3, #8
 8000b4e:	b29a      	uxth	r2, r3
 8000b50:	f8b7 3056 	ldrh.w	r3, [r7, #86]	@ 0x56
 8000b54:	1c59      	adds	r1, r3, #1
 8000b56:	f8a7 1056 	strh.w	r1, [r7, #86]	@ 0x56
 8000b5a:	b2d2      	uxtb	r2, r2
 8000b5c:	3358      	adds	r3, #88	@ 0x58
 8000b5e:	443b      	add	r3, r7
 8000b60:	f803 2c48 	strb.w	r2, [r3, #-72]
    frame[idx++] = (uint8_t)(reg_addr & 0xFFU);
 8000b64:	f8b7 3056 	ldrh.w	r3, [r7, #86]	@ 0x56
 8000b68:	1c5a      	adds	r2, r3, #1
 8000b6a:	f8a7 2056 	strh.w	r2, [r7, #86]	@ 0x56
 8000b6e:	893a      	ldrh	r2, [r7, #8]
 8000b70:	b2d2      	uxtb	r2, r2
 8000b72:	3358      	adds	r3, #88	@ 0x58
 8000b74:	443b      	add	r3, r7
 8000b76:	f803 2c48 	strb.w	r2, [r3, #-72]
    for (uint8_t i = 0U; i < data_len; i++)
 8000b7a:	2300      	movs	r3, #0
 8000b7c:	f887 3055 	strb.w	r3, [r7, #85]	@ 0x55
 8000b80:	e012      	b.n	8000ba8 <BMS_WriteSingleDevice+0xdc>
    {
        frame[idx++] = data[i];
 8000b82:	f897 3055 	ldrb.w	r3, [r7, #85]	@ 0x55
 8000b86:	687a      	ldr	r2, [r7, #4]
 8000b88:	441a      	add	r2, r3
 8000b8a:	f8b7 3056 	ldrh.w	r3, [r7, #86]	@ 0x56
 8000b8e:	1c59      	adds	r1, r3, #1
 8000b90:	f8a7 1056 	strh.w	r1, [r7, #86]	@ 0x56
 8000b94:	7812      	ldrb	r2, [r2, #0]
 8000b96:	3358      	adds	r3, #88	@ 0x58
 8000b98:	443b      	add	r3, r7
 8000b9a:	f803 2c48 	strb.w	r2, [r3, #-72]
    for (uint8_t i = 0U; i < data_len; i++)
 8000b9e:	f897 3055 	ldrb.w	r3, [r7, #85]	@ 0x55
 8000ba2:	3301      	adds	r3, #1
 8000ba4:	f887 3055 	strb.w	r3, [r7, #85]	@ 0x55
 8000ba8:	f897 2055 	ldrb.w	r2, [r7, #85]	@ 0x55
 8000bac:	f897 3060 	ldrb.w	r3, [r7, #96]	@ 0x60
 8000bb0:	429a      	cmp	r2, r3
 8000bb2:	d3e6      	bcc.n	8000b82 <BMS_WriteSingleDevice+0xb6>
    }
    crc = BMS_CalculateCRC16(frame, idx);
 8000bb4:	f8b7 2056 	ldrh.w	r2, [r7, #86]	@ 0x56
 8000bb8:	f107 0310 	add.w	r3, r7, #16
 8000bbc:	4611      	mov	r1, r2
 8000bbe:	4618      	mov	r0, r3
 8000bc0:	f7ff fe60 	bl	8000884 <BMS_CalculateCRC16>
 8000bc4:	4603      	mov	r3, r0
 8000bc6:	f8a7 3052 	strh.w	r3, [r7, #82]	@ 0x52
    frame[idx++] = (uint8_t)(crc & 0xFFU);
 8000bca:	f8b7 3056 	ldrh.w	r3, [r7, #86]	@ 0x56
 8000bce:	1c5a      	adds	r2, r3, #1
 8000bd0:	f8a7 2056 	strh.w	r2, [r7, #86]	@ 0x56
 8000bd4:	f8b7 2052 	ldrh.w	r2, [r7, #82]	@ 0x52
 8000bd8:	b2d2      	uxtb	r2, r2
 8000bda:	3358      	adds	r3, #88	@ 0x58
 8000bdc:	443b      	add	r3, r7
 8000bde:	f803 2c48 	strb.w	r2, [r3, #-72]
    frame[idx++] = (uint8_t)(crc >> 8U);
 8000be2:	f8b7 3052 	ldrh.w	r3, [r7, #82]	@ 0x52
 8000be6:	0a1b      	lsrs	r3, r3, #8
 8000be8:	b29a      	uxth	r2, r3
 8000bea:	f8b7 3056 	ldrh.w	r3, [r7, #86]	@ 0x56
 8000bee:	1c59      	adds	r1, r3, #1
 8000bf0:	f8a7 1056 	strh.w	r1, [r7, #86]	@ 0x56
 8000bf4:	b2d2      	uxtb	r2, r2
 8000bf6:	3358      	adds	r3, #88	@ 0x58
 8000bf8:	443b      	add	r3, r7
 8000bfa:	f803 2c48 	strb.w	r2, [r3, #-72]

    return BMS_Transceive(hbms, frame, idx, NULL, 0U);
 8000bfe:	f8b7 2056 	ldrh.w	r2, [r7, #86]	@ 0x56
 8000c02:	f107 0110 	add.w	r1, r7, #16
 8000c06:	2300      	movs	r3, #0
 8000c08:	9300      	str	r3, [sp, #0]
 8000c0a:	2300      	movs	r3, #0
 8000c0c:	68f8      	ldr	r0, [r7, #12]
 8000c0e:	f7ff fe75 	bl	80008fc <BMS_Transceive>
 8000c12:	4603      	mov	r3, r0
}
 8000c14:	4618      	mov	r0, r3
 8000c16:	3758      	adds	r7, #88	@ 0x58
 8000c18:	46bd      	mov	sp, r7
 8000c1a:	bd80      	pop	{r7, pc}

08000c1c <BMS_ReadSingleDevice>:
 *    O MCU enviava apenas REG_ADR + CRC → FMT_ERR garantido pelo IC.
 */
BMS_Status_t BMS_ReadSingleDevice(BMS_Handle_t *hbms, uint8_t dev_addr,
                                   uint16_t reg_addr, uint8_t *rx_data,
                                   uint8_t data_len)
{
 8000c1c:	b580      	push	{r7, lr}
 8000c1e:	b0ac      	sub	sp, #176	@ 0xb0
 8000c20:	af02      	add	r7, sp, #8
 8000c22:	60f8      	str	r0, [r7, #12]
 8000c24:	607b      	str	r3, [r7, #4]
 8000c26:	460b      	mov	r3, r1
 8000c28:	72fb      	strb	r3, [r7, #11]
 8000c2a:	4613      	mov	r3, r2
 8000c2c:	813b      	strh	r3, [r7, #8]
    uint8_t  tx_frame[7U];   /* INIT + DEV + REG×2 + (N-1) + CRC×2 = 7 bytes */
    uint8_t  rx_frame[BMS_MAX_RESPONSE_PAYLOAD];
    uint16_t tx_idx = 0U;
 8000c2e:	2300      	movs	r3, #0
 8000c30:	f8a7 30a4 	strh.w	r3, [r7, #164]	@ 0xa4
    uint16_t crc_calc, crc_recv;
    BMS_Status_t status;

    if ((rx_data == NULL) || (data_len == 0U))
 8000c34:	687b      	ldr	r3, [r7, #4]
 8000c36:	2b00      	cmp	r3, #0
 8000c38:	d003      	beq.n	8000c42 <BMS_ReadSingleDevice+0x26>
 8000c3a:	f897 30b0 	ldrb.w	r3, [r7, #176]	@ 0xb0
 8000c3e:	2b00      	cmp	r3, #0
 8000c40:	d101      	bne.n	8000c46 <BMS_ReadSingleDevice+0x2a>
    {
        return BMS_ERR_INVALID_PARAM;
 8000c42:	2304      	movs	r3, #4
 8000c44:	e0d5      	b.n	8000df2 <BMS_ReadSingleDevice+0x1d6>
    }

    /* OBS-01: guard de overflow do buffer de recepção.
     * rx_total = 6 + data_len; se data_len for muito grande, rx_raw[rx_total]
     * ultrapassa BMS_MAX_RESPONSE_PAYLOAD → stack corruption silenciosa. */
    uint16_t rx_total = (uint16_t)(1U + 1U + 2U + data_len + 2U);
 8000c46:	f897 30b0 	ldrb.w	r3, [r7, #176]	@ 0xb0
 8000c4a:	b29b      	uxth	r3, r3
 8000c4c:	3306      	adds	r3, #6
 8000c4e:	f8a7 30a2 	strh.w	r3, [r7, #162]	@ 0xa2
    if (rx_total > (uint16_t)BMS_MAX_RESPONSE_PAYLOAD)
 8000c52:	f8b7 30a2 	ldrh.w	r3, [r7, #162]	@ 0xa2
 8000c56:	2b80      	cmp	r3, #128	@ 0x80
 8000c58:	d901      	bls.n	8000c5e <BMS_ReadSingleDevice+0x42>
    {
        return BMS_ERR_INVALID_PARAM;
 8000c5a:	2304      	movs	r3, #4
 8000c5c:	e0c9      	b.n	8000df2 <BMS_ReadSingleDevice+0x1d6>
    }

    /* INIT base fixo: SIZE=000 → anuncia exactamente 1 byte de payload
     * (o byte data_len-1 que vem a seguir). Bit7=1 assegura que o IC
     * reconhece o frame como comando do host, não como resposta. */
    tx_frame[tx_idx++] = INIT_BASE_SINGLE_READ;           /* 0x90, SIZE=000 */
 8000c5e:	f8b7 30a4 	ldrh.w	r3, [r7, #164]	@ 0xa4
 8000c62:	1c5a      	adds	r2, r3, #1
 8000c64:	f8a7 20a4 	strh.w	r2, [r7, #164]	@ 0xa4
 8000c68:	33a8      	adds	r3, #168	@ 0xa8
 8000c6a:	443b      	add	r3, r7
 8000c6c:	2290      	movs	r2, #144	@ 0x90
 8000c6e:	f803 2c14 	strb.w	r2, [r3, #-20]
    tx_frame[tx_idx++] = dev_addr & 0x7FU;
 8000c72:	f8b7 30a4 	ldrh.w	r3, [r7, #164]	@ 0xa4
 8000c76:	1c5a      	adds	r2, r3, #1
 8000c78:	f8a7 20a4 	strh.w	r2, [r7, #164]	@ 0xa4
 8000c7c:	4619      	mov	r1, r3
 8000c7e:	7afb      	ldrb	r3, [r7, #11]
 8000c80:	f003 037f 	and.w	r3, r3, #127	@ 0x7f
 8000c84:	b2da      	uxtb	r2, r3
 8000c86:	f101 03a8 	add.w	r3, r1, #168	@ 0xa8
 8000c8a:	443b      	add	r3, r7
 8000c8c:	f803 2c14 	strb.w	r2, [r3, #-20]
    tx_frame[tx_idx++] = (uint8_t)(reg_addr >> 8U);
 8000c90:	893b      	ldrh	r3, [r7, #8]
 8000c92:	0a1b      	lsrs	r3, r3, #8
 8000c94:	b29a      	uxth	r2, r3
 8000c96:	f8b7 30a4 	ldrh.w	r3, [r7, #164]	@ 0xa4
 8000c9a:	1c59      	adds	r1, r3, #1
 8000c9c:	f8a7 10a4 	strh.w	r1, [r7, #164]	@ 0xa4
 8000ca0:	b2d2      	uxtb	r2, r2
 8000ca2:	33a8      	adds	r3, #168	@ 0xa8
 8000ca4:	443b      	add	r3, r7
 8000ca6:	f803 2c14 	strb.w	r2, [r3, #-20]
    tx_frame[tx_idx++] = (uint8_t)(reg_addr & 0xFFU);
 8000caa:	f8b7 30a4 	ldrh.w	r3, [r7, #164]	@ 0xa4
 8000cae:	1c5a      	adds	r2, r3, #1
 8000cb0:	f8a7 20a4 	strh.w	r2, [r7, #164]	@ 0xa4
 8000cb4:	893a      	ldrh	r2, [r7, #8]
 8000cb6:	b2d2      	uxtb	r2, r2
 8000cb8:	33a8      	adds	r3, #168	@ 0xa8
 8000cba:	443b      	add	r3, r7
 8000cbc:	f803 2c14 	strb.w	r2, [r3, #-20]
    tx_frame[tx_idx++] = (uint8_t)(data_len - 1U);        /* Payload: bytes a ler - 1 */
 8000cc0:	f8b7 30a4 	ldrh.w	r3, [r7, #164]	@ 0xa4
 8000cc4:	1c5a      	adds	r2, r3, #1
 8000cc6:	f8a7 20a4 	strh.w	r2, [r7, #164]	@ 0xa4
 8000cca:	4619      	mov	r1, r3
 8000ccc:	f897 30b0 	ldrb.w	r3, [r7, #176]	@ 0xb0
 8000cd0:	3b01      	subs	r3, #1
 8000cd2:	b2da      	uxtb	r2, r3
 8000cd4:	f101 03a8 	add.w	r3, r1, #168	@ 0xa8
 8000cd8:	443b      	add	r3, r7
 8000cda:	f803 2c14 	strb.w	r2, [r3, #-20]

    /* CRC cobre 5 bytes: INIT + DEV_ADR + REG_H + REG_L + (data_len-1) */
    crc_calc = BMS_CalculateCRC16(tx_frame, tx_idx);
 8000cde:	f8b7 20a4 	ldrh.w	r2, [r7, #164]	@ 0xa4
 8000ce2:	f107 0394 	add.w	r3, r7, #148	@ 0x94
 8000ce6:	4611      	mov	r1, r2
 8000ce8:	4618      	mov	r0, r3
 8000cea:	f7ff fdcb 	bl	8000884 <BMS_CalculateCRC16>
 8000cee:	4603      	mov	r3, r0
 8000cf0:	f8a7 30a0 	strh.w	r3, [r7, #160]	@ 0xa0
    tx_frame[tx_idx++] = (uint8_t)(crc_calc & 0xFFU);
 8000cf4:	f8b7 30a4 	ldrh.w	r3, [r7, #164]	@ 0xa4
 8000cf8:	1c5a      	adds	r2, r3, #1
 8000cfa:	f8a7 20a4 	strh.w	r2, [r7, #164]	@ 0xa4
 8000cfe:	f8b7 20a0 	ldrh.w	r2, [r7, #160]	@ 0xa0
 8000d02:	b2d2      	uxtb	r2, r2
 8000d04:	33a8      	adds	r3, #168	@ 0xa8
 8000d06:	443b      	add	r3, r7
 8000d08:	f803 2c14 	strb.w	r2, [r3, #-20]
    tx_frame[tx_idx++] = (uint8_t)(crc_calc >> 8U);
 8000d0c:	f8b7 30a0 	ldrh.w	r3, [r7, #160]	@ 0xa0
 8000d10:	0a1b      	lsrs	r3, r3, #8
 8000d12:	b29a      	uxth	r2, r3
 8000d14:	f8b7 30a4 	ldrh.w	r3, [r7, #164]	@ 0xa4
 8000d18:	1c59      	adds	r1, r3, #1
 8000d1a:	f8a7 10a4 	strh.w	r1, [r7, #164]	@ 0xa4
 8000d1e:	b2d2      	uxtb	r2, r2
 8000d20:	33a8      	adds	r3, #168	@ 0xa8
 8000d22:	443b      	add	r3, r7
 8000d24:	f803 2c14 	strb.w	r2, [r3, #-20]

    /* rx_total já calculado e validado no guard OBS-01 acima */
    status = BMS_Transceive(hbms, tx_frame, tx_idx, rx_frame, rx_total);
 8000d28:	f107 0014 	add.w	r0, r7, #20
 8000d2c:	f8b7 20a4 	ldrh.w	r2, [r7, #164]	@ 0xa4
 8000d30:	f107 0194 	add.w	r1, r7, #148	@ 0x94
 8000d34:	f8b7 30a2 	ldrh.w	r3, [r7, #162]	@ 0xa2
 8000d38:	9300      	str	r3, [sp, #0]
 8000d3a:	4603      	mov	r3, r0
 8000d3c:	68f8      	ldr	r0, [r7, #12]
 8000d3e:	f7ff fddd 	bl	80008fc <BMS_Transceive>
 8000d42:	4603      	mov	r3, r0
 8000d44:	f887 309f 	strb.w	r3, [r7, #159]	@ 0x9f
    if (status != BMS_OK) { return status; }
 8000d48:	f897 309f 	ldrb.w	r3, [r7, #159]	@ 0x9f
 8000d4c:	2b00      	cmp	r3, #0
 8000d4e:	d002      	beq.n	8000d56 <BMS_ReadSingleDevice+0x13a>
 8000d50:	f897 309f 	ldrb.w	r3, [r7, #159]	@ 0x9f
 8000d54:	e04d      	b.n	8000df2 <BMS_ReadSingleDevice+0x1d6>

    crc_calc = BMS_CalculateCRC16(rx_frame, rx_total - 2U);
 8000d56:	f8b7 30a2 	ldrh.w	r3, [r7, #162]	@ 0xa2
 8000d5a:	3b02      	subs	r3, #2
 8000d5c:	b29a      	uxth	r2, r3
 8000d5e:	f107 0314 	add.w	r3, r7, #20
 8000d62:	4611      	mov	r1, r2
 8000d64:	4618      	mov	r0, r3
 8000d66:	f7ff fd8d 	bl	8000884 <BMS_CalculateCRC16>
 8000d6a:	4603      	mov	r3, r0
 8000d6c:	f8a7 30a0 	strh.w	r3, [r7, #160]	@ 0xa0
    crc_recv = (uint16_t)rx_frame[rx_total - 2U] |
 8000d70:	f8b7 30a2 	ldrh.w	r3, [r7, #162]	@ 0xa2
 8000d74:	3b02      	subs	r3, #2
 8000d76:	33a8      	adds	r3, #168	@ 0xa8
 8000d78:	443b      	add	r3, r7
 8000d7a:	f813 3c94 	ldrb.w	r3, [r3, #-148]
 8000d7e:	b21a      	sxth	r2, r3
               ((uint16_t)rx_frame[rx_total - 1U] << 8U);
 8000d80:	f8b7 30a2 	ldrh.w	r3, [r7, #162]	@ 0xa2
 8000d84:	3b01      	subs	r3, #1
 8000d86:	33a8      	adds	r3, #168	@ 0xa8
 8000d88:	443b      	add	r3, r7
 8000d8a:	f813 3c94 	ldrb.w	r3, [r3, #-148]
    crc_recv = (uint16_t)rx_frame[rx_total - 2U] |
 8000d8e:	b21b      	sxth	r3, r3
 8000d90:	021b      	lsls	r3, r3, #8
 8000d92:	b21b      	sxth	r3, r3
 8000d94:	4313      	orrs	r3, r2
 8000d96:	b21b      	sxth	r3, r3
 8000d98:	f8a7 309c 	strh.w	r3, [r7, #156]	@ 0x9c
    if (crc_calc != crc_recv)
 8000d9c:	f8b7 20a0 	ldrh.w	r2, [r7, #160]	@ 0xa0
 8000da0:	f8b7 309c 	ldrh.w	r3, [r7, #156]	@ 0x9c
 8000da4:	429a      	cmp	r2, r3
 8000da6:	d008      	beq.n	8000dba <BMS_ReadSingleDevice+0x19e>
    {
        hbms->crc_error_count++;
 8000da8:	68fb      	ldr	r3, [r7, #12]
 8000daa:	f8d3 30cc 	ldr.w	r3, [r3, #204]	@ 0xcc
 8000dae:	1c5a      	adds	r2, r3, #1
 8000db0:	68fb      	ldr	r3, [r7, #12]
 8000db2:	f8c3 20cc 	str.w	r2, [r3, #204]	@ 0xcc
        return BMS_ERR_CRC;
 8000db6:	2302      	movs	r3, #2
 8000db8:	e01b      	b.n	8000df2 <BMS_ReadSingleDevice+0x1d6>
    }

    /* Dados a offset 4: após INIT + DEV + REG_H + REG_L */
    for (uint8_t i = 0U; i < data_len; i++)
 8000dba:	2300      	movs	r3, #0
 8000dbc:	f887 30a7 	strb.w	r3, [r7, #167]	@ 0xa7
 8000dc0:	e010      	b.n	8000de4 <BMS_ReadSingleDevice+0x1c8>
    {
        rx_data[i] = rx_frame[4U + i];
 8000dc2:	f897 30a7 	ldrb.w	r3, [r7, #167]	@ 0xa7
 8000dc6:	1d1a      	adds	r2, r3, #4
 8000dc8:	f897 30a7 	ldrb.w	r3, [r7, #167]	@ 0xa7
 8000dcc:	6879      	ldr	r1, [r7, #4]
 8000dce:	440b      	add	r3, r1
 8000dd0:	32a8      	adds	r2, #168	@ 0xa8
 8000dd2:	443a      	add	r2, r7
 8000dd4:	f812 2c94 	ldrb.w	r2, [r2, #-148]
 8000dd8:	701a      	strb	r2, [r3, #0]
    for (uint8_t i = 0U; i < data_len; i++)
 8000dda:	f897 30a7 	ldrb.w	r3, [r7, #167]	@ 0xa7
 8000dde:	3301      	adds	r3, #1
 8000de0:	f887 30a7 	strb.w	r3, [r7, #167]	@ 0xa7
 8000de4:	f897 20a7 	ldrb.w	r2, [r7, #167]	@ 0xa7
 8000de8:	f897 30b0 	ldrb.w	r3, [r7, #176]	@ 0xb0
 8000dec:	429a      	cmp	r2, r3
 8000dee:	d3e8      	bcc.n	8000dc2 <BMS_ReadSingleDevice+0x1a6>
    }
    return BMS_OK;
 8000df0:	2300      	movs	r3, #0
}
 8000df2:	4618      	mov	r0, r3
 8000df4:	37a8      	adds	r7, #168	@ 0xa8
 8000df6:	46bd      	mov	sp, r7
 8000df8:	bd80      	pop	{r7, pc}

08000dfa <BMS_WriteBroadcast>:
 * @param  data_len     Número de bytes de dados
 * @return BMS_OK ou código de erro
 */
BMS_Status_t BMS_WriteBroadcast(BMS_Handle_t *hbms, uint16_t reg_addr,
                                 uint8_t *data, uint8_t data_len)
{
 8000dfa:	b580      	push	{r7, lr}
 8000dfc:	b098      	sub	sp, #96	@ 0x60
 8000dfe:	af02      	add	r7, sp, #8
 8000e00:	60f8      	str	r0, [r7, #12]
 8000e02:	607a      	str	r2, [r7, #4]
 8000e04:	461a      	mov	r2, r3
 8000e06:	460b      	mov	r3, r1
 8000e08:	817b      	strh	r3, [r7, #10]
 8000e0a:	4613      	mov	r3, r2
 8000e0c:	727b      	strb	r3, [r7, #9]
    uint8_t  frame[BMS_MAX_FRAME_SIZE];
    uint16_t idx = 0U;
 8000e0e:	2300      	movs	r3, #0
 8000e10:	f8a7 3056 	strh.w	r3, [r7, #86]	@ 0x56
    uint16_t crc;

    if ((data == NULL) || (data_len == 0U) || (data_len > 8U) ||
 8000e14:	687b      	ldr	r3, [r7, #4]
 8000e16:	2b00      	cmp	r3, #0
 8000e18:	d008      	beq.n	8000e2c <BMS_WriteBroadcast+0x32>
 8000e1a:	7a7b      	ldrb	r3, [r7, #9]
 8000e1c:	2b00      	cmp	r3, #0
 8000e1e:	d005      	beq.n	8000e2c <BMS_WriteBroadcast+0x32>
 8000e20:	7a7b      	ldrb	r3, [r7, #9]
 8000e22:	2b08      	cmp	r3, #8
 8000e24:	d802      	bhi.n	8000e2c <BMS_WriteBroadcast+0x32>
 8000e26:	7a7b      	ldrb	r3, [r7, #9]
 8000e28:	2b3b      	cmp	r3, #59	@ 0x3b
 8000e2a:	d901      	bls.n	8000e30 <BMS_WriteBroadcast+0x36>
        (data_len > (BMS_MAX_FRAME_SIZE - 5U)))
    {
        return BMS_ERR_INVALID_PARAM;
 8000e2c:	2304      	movs	r3, #4
 8000e2e:	e075      	b.n	8000f1c <BMS_WriteBroadcast+0x122>
    }

    /* INIT dinâmico: base Broadcast Write + tamanho do payload */
    frame[idx++] = BMS_INIT(INIT_BASE_BROADCAST_WRITE, data_len);
 8000e30:	7a7b      	ldrb	r3, [r7, #9]
 8000e32:	3b01      	subs	r3, #1
 8000e34:	b2db      	uxtb	r3, r3
 8000e36:	f003 0307 	and.w	r3, r3, #7
 8000e3a:	b2da      	uxtb	r2, r3
 8000e3c:	f8b7 3056 	ldrh.w	r3, [r7, #86]	@ 0x56
 8000e40:	1c59      	adds	r1, r3, #1
 8000e42:	f8a7 1056 	strh.w	r1, [r7, #86]	@ 0x56
 8000e46:	f062 0277 	orn	r2, r2, #119	@ 0x77
 8000e4a:	b2d2      	uxtb	r2, r2
 8000e4c:	3358      	adds	r3, #88	@ 0x58
 8000e4e:	443b      	add	r3, r7
 8000e50:	f803 2c48 	strb.w	r2, [r3, #-72]
    frame[idx++] = (uint8_t)(reg_addr >> 8U);
 8000e54:	897b      	ldrh	r3, [r7, #10]
 8000e56:	0a1b      	lsrs	r3, r3, #8
 8000e58:	b29a      	uxth	r2, r3
 8000e5a:	f8b7 3056 	ldrh.w	r3, [r7, #86]	@ 0x56
 8000e5e:	1c59      	adds	r1, r3, #1
 8000e60:	f8a7 1056 	strh.w	r1, [r7, #86]	@ 0x56
 8000e64:	b2d2      	uxtb	r2, r2
 8000e66:	3358      	adds	r3, #88	@ 0x58
 8000e68:	443b      	add	r3, r7
 8000e6a:	f803 2c48 	strb.w	r2, [r3, #-72]
    frame[idx++] = (uint8_t)(reg_addr & 0xFFU);
 8000e6e:	f8b7 3056 	ldrh.w	r3, [r7, #86]	@ 0x56
 8000e72:	1c5a      	adds	r2, r3, #1
 8000e74:	f8a7 2056 	strh.w	r2, [r7, #86]	@ 0x56
 8000e78:	897a      	ldrh	r2, [r7, #10]
 8000e7a:	b2d2      	uxtb	r2, r2
 8000e7c:	3358      	adds	r3, #88	@ 0x58
 8000e7e:	443b      	add	r3, r7
 8000e80:	f803 2c48 	strb.w	r2, [r3, #-72]
    for (uint8_t i = 0U; i < data_len; i++)
 8000e84:	2300      	movs	r3, #0
 8000e86:	f887 3055 	strb.w	r3, [r7, #85]	@ 0x55
 8000e8a:	e012      	b.n	8000eb2 <BMS_WriteBroadcast+0xb8>
    {
        frame[idx++] = data[i];
 8000e8c:	f897 3055 	ldrb.w	r3, [r7, #85]	@ 0x55
 8000e90:	687a      	ldr	r2, [r7, #4]
 8000e92:	441a      	add	r2, r3
 8000e94:	f8b7 3056 	ldrh.w	r3, [r7, #86]	@ 0x56
 8000e98:	1c59      	adds	r1, r3, #1
 8000e9a:	f8a7 1056 	strh.w	r1, [r7, #86]	@ 0x56
 8000e9e:	7812      	ldrb	r2, [r2, #0]
 8000ea0:	3358      	adds	r3, #88	@ 0x58
 8000ea2:	443b      	add	r3, r7
 8000ea4:	f803 2c48 	strb.w	r2, [r3, #-72]
    for (uint8_t i = 0U; i < data_len; i++)
 8000ea8:	f897 3055 	ldrb.w	r3, [r7, #85]	@ 0x55
 8000eac:	3301      	adds	r3, #1
 8000eae:	f887 3055 	strb.w	r3, [r7, #85]	@ 0x55
 8000eb2:	f897 2055 	ldrb.w	r2, [r7, #85]	@ 0x55
 8000eb6:	7a7b      	ldrb	r3, [r7, #9]
 8000eb8:	429a      	cmp	r2, r3
 8000eba:	d3e7      	bcc.n	8000e8c <BMS_WriteBroadcast+0x92>
    }
    crc = BMS_CalculateCRC16(frame, idx);
 8000ebc:	f8b7 2056 	ldrh.w	r2, [r7, #86]	@ 0x56
 8000ec0:	f107 0310 	add.w	r3, r7, #16
 8000ec4:	4611      	mov	r1, r2
 8000ec6:	4618      	mov	r0, r3
 8000ec8:	f7ff fcdc 	bl	8000884 <BMS_CalculateCRC16>
 8000ecc:	4603      	mov	r3, r0
 8000ece:	f8a7 3052 	strh.w	r3, [r7, #82]	@ 0x52
    frame[idx++] = (uint8_t)(crc & 0xFFU);
 8000ed2:	f8b7 3056 	ldrh.w	r3, [r7, #86]	@ 0x56
 8000ed6:	1c5a      	adds	r2, r3, #1
 8000ed8:	f8a7 2056 	strh.w	r2, [r7, #86]	@ 0x56
 8000edc:	f8b7 2052 	ldrh.w	r2, [r7, #82]	@ 0x52
 8000ee0:	b2d2      	uxtb	r2, r2
 8000ee2:	3358      	adds	r3, #88	@ 0x58
 8000ee4:	443b      	add	r3, r7
 8000ee6:	f803 2c48 	strb.w	r2, [r3, #-72]
    frame[idx++] = (uint8_t)(crc >> 8U);
 8000eea:	f8b7 3052 	ldrh.w	r3, [r7, #82]	@ 0x52
 8000eee:	0a1b      	lsrs	r3, r3, #8
 8000ef0:	b29a      	uxth	r2, r3
 8000ef2:	f8b7 3056 	ldrh.w	r3, [r7, #86]	@ 0x56
 8000ef6:	1c59      	adds	r1, r3, #1
 8000ef8:	f8a7 1056 	strh.w	r1, [r7, #86]	@ 0x56
 8000efc:	b2d2      	uxtb	r2, r2
 8000efe:	3358      	adds	r3, #88	@ 0x58
 8000f00:	443b      	add	r3, r7
 8000f02:	f803 2c48 	strb.w	r2, [r3, #-72]

    return BMS_Transceive(hbms, frame, idx, NULL, 0U);
 8000f06:	f8b7 2056 	ldrh.w	r2, [r7, #86]	@ 0x56
 8000f0a:	f107 0110 	add.w	r1, r7, #16
 8000f0e:	2300      	movs	r3, #0
 8000f10:	9300      	str	r3, [sp, #0]
 8000f12:	2300      	movs	r3, #0
 8000f14:	68f8      	ldr	r0, [r7, #12]
 8000f16:	f7ff fcf1 	bl	80008fc <BMS_Transceive>
 8000f1a:	4603      	mov	r3, r0
}
 8000f1c:	4618      	mov	r0, r3
 8000f1e:	3758      	adds	r7, #88	@ 0x58
 8000f20:	46bd      	mov	sp, r7
 8000f22:	bd80      	pop	{r7, pc}

08000f24 <BMS_ReadBroadcast>:
 *    causando FMT_ERR no IC. Sem byte explícito, o IC não sabia quantos
 *    bytes devolver.
 */
BMS_Status_t BMS_ReadBroadcast(BMS_Handle_t *hbms, uint16_t reg_addr,
                                uint8_t *rx_data, uint8_t data_len_per_dev)
{
 8000f24:	b580      	push	{r7, lr}
 8000f26:	b0ac      	sub	sp, #176	@ 0xb0
 8000f28:	af02      	add	r7, sp, #8
 8000f2a:	60f8      	str	r0, [r7, #12]
 8000f2c:	607a      	str	r2, [r7, #4]
 8000f2e:	461a      	mov	r2, r3
 8000f30:	460b      	mov	r3, r1
 8000f32:	817b      	strh	r3, [r7, #10]
 8000f34:	4613      	mov	r3, r2
 8000f36:	727b      	strb	r3, [r7, #9]
    uint8_t  tx_frame[6U];   /* INIT + REG×2 + (N-1) + CRC×2 = 6 bytes */
    uint16_t tx_idx = 0U;
 8000f38:	2300      	movs	r3, #0
 8000f3a:	f8a7 30a0 	strh.w	r3, [r7, #160]	@ 0xa0
     *   = 6 + N bytes por dispositivo
     *
     * BUG-03 CORRIGIDO: versão anterior usava 5+N (omitia DEV_ADDR) → CRC
     * calculado sobre N-1 bytes errados → todas as leituras broadcast
     * falhavam com CRC mismatch → BMS_ProcessFaults nunca funcionava. */
    uint16_t per_dev_size = (uint16_t)(1U + 1U + 2U + (uint16_t)data_len_per_dev + 2U);
 8000f3e:	7a7b      	ldrb	r3, [r7, #9]
 8000f40:	b29b      	uxth	r3, r3
 8000f42:	3306      	adds	r3, #6
 8000f44:	f8a7 309e 	strh.w	r3, [r7, #158]	@ 0x9e
    uint16_t rx_total     = (uint16_t)(BMS_NUM_SLAVES * per_dev_size);
 8000f48:	f8b7 309e 	ldrh.w	r3, [r7, #158]	@ 0x9e
 8000f4c:	005b      	lsls	r3, r3, #1
 8000f4e:	f8a7 309c 	strh.w	r3, [r7, #156]	@ 0x9c
    uint8_t  rx_raw[BMS_MAX_RESPONSE_PAYLOAD];
    BMS_Status_t status;

    if ((rx_data == NULL) || (data_len_per_dev == 0U))
 8000f52:	687b      	ldr	r3, [r7, #4]
 8000f54:	2b00      	cmp	r3, #0
 8000f56:	d002      	beq.n	8000f5e <BMS_ReadBroadcast+0x3a>
 8000f58:	7a7b      	ldrb	r3, [r7, #9]
 8000f5a:	2b00      	cmp	r3, #0
 8000f5c:	d101      	bne.n	8000f62 <BMS_ReadBroadcast+0x3e>
    {
        return BMS_ERR_INVALID_PARAM;
 8000f5e:	2304      	movs	r3, #4
 8000f60:	e106      	b.n	8001170 <BMS_ReadBroadcast+0x24c>
    }

    /* INIT base: SIZE=000 → 1 byte de payload (o byte data_len-1 seguinte) */
    tx_frame[tx_idx++] = INIT_BASE_BROADCAST_READ;             /* 0x80, SIZE=000 */
 8000f62:	f8b7 30a0 	ldrh.w	r3, [r7, #160]	@ 0xa0
 8000f66:	1c5a      	adds	r2, r3, #1
 8000f68:	f8a7 20a0 	strh.w	r2, [r7, #160]	@ 0xa0
 8000f6c:	33a8      	adds	r3, #168	@ 0xa8
 8000f6e:	443b      	add	r3, r7
 8000f70:	2280      	movs	r2, #128	@ 0x80
 8000f72:	f803 2c18 	strb.w	r2, [r3, #-24]
    tx_frame[tx_idx++] = (uint8_t)(reg_addr >> 8U);
 8000f76:	897b      	ldrh	r3, [r7, #10]
 8000f78:	0a1b      	lsrs	r3, r3, #8
 8000f7a:	b29a      	uxth	r2, r3
 8000f7c:	f8b7 30a0 	ldrh.w	r3, [r7, #160]	@ 0xa0
 8000f80:	1c59      	adds	r1, r3, #1
 8000f82:	f8a7 10a0 	strh.w	r1, [r7, #160]	@ 0xa0
 8000f86:	b2d2      	uxtb	r2, r2
 8000f88:	33a8      	adds	r3, #168	@ 0xa8
 8000f8a:	443b      	add	r3, r7
 8000f8c:	f803 2c18 	strb.w	r2, [r3, #-24]
    tx_frame[tx_idx++] = (uint8_t)(reg_addr & 0xFFU);
 8000f90:	f8b7 30a0 	ldrh.w	r3, [r7, #160]	@ 0xa0
 8000f94:	1c5a      	adds	r2, r3, #1
 8000f96:	f8a7 20a0 	strh.w	r2, [r7, #160]	@ 0xa0
 8000f9a:	897a      	ldrh	r2, [r7, #10]
 8000f9c:	b2d2      	uxtb	r2, r2
 8000f9e:	33a8      	adds	r3, #168	@ 0xa8
 8000fa0:	443b      	add	r3, r7
 8000fa2:	f803 2c18 	strb.w	r2, [r3, #-24]
    tx_frame[tx_idx++] = (uint8_t)(data_len_per_dev - 1U);     /* Payload: N-1 */
 8000fa6:	f8b7 30a0 	ldrh.w	r3, [r7, #160]	@ 0xa0
 8000faa:	1c5a      	adds	r2, r3, #1
 8000fac:	f8a7 20a0 	strh.w	r2, [r7, #160]	@ 0xa0
 8000fb0:	4619      	mov	r1, r3
 8000fb2:	7a7b      	ldrb	r3, [r7, #9]
 8000fb4:	3b01      	subs	r3, #1
 8000fb6:	b2da      	uxtb	r2, r3
 8000fb8:	f101 03a8 	add.w	r3, r1, #168	@ 0xa8
 8000fbc:	443b      	add	r3, r7
 8000fbe:	f803 2c18 	strb.w	r2, [r3, #-24]

    /* CRC cobre 4 bytes: INIT + REG_H + REG_L + (data_len-1) */
    crc_calc = BMS_CalculateCRC16(tx_frame, tx_idx);
 8000fc2:	f8b7 20a0 	ldrh.w	r2, [r7, #160]	@ 0xa0
 8000fc6:	f107 0390 	add.w	r3, r7, #144	@ 0x90
 8000fca:	4611      	mov	r1, r2
 8000fcc:	4618      	mov	r0, r3
 8000fce:	f7ff fc59 	bl	8000884 <BMS_CalculateCRC16>
 8000fd2:	4603      	mov	r3, r0
 8000fd4:	f8a7 309a 	strh.w	r3, [r7, #154]	@ 0x9a
    tx_frame[tx_idx++] = (uint8_t)(crc_calc & 0xFFU);
 8000fd8:	f8b7 30a0 	ldrh.w	r3, [r7, #160]	@ 0xa0
 8000fdc:	1c5a      	adds	r2, r3, #1
 8000fde:	f8a7 20a0 	strh.w	r2, [r7, #160]	@ 0xa0
 8000fe2:	f8b7 209a 	ldrh.w	r2, [r7, #154]	@ 0x9a
 8000fe6:	b2d2      	uxtb	r2, r2
 8000fe8:	33a8      	adds	r3, #168	@ 0xa8
 8000fea:	443b      	add	r3, r7
 8000fec:	f803 2c18 	strb.w	r2, [r3, #-24]
    tx_frame[tx_idx++] = (uint8_t)(crc_calc >> 8U);
 8000ff0:	f8b7 309a 	ldrh.w	r3, [r7, #154]	@ 0x9a
 8000ff4:	0a1b      	lsrs	r3, r3, #8
 8000ff6:	b29a      	uxth	r2, r3
 8000ff8:	f8b7 30a0 	ldrh.w	r3, [r7, #160]	@ 0xa0
 8000ffc:	1c59      	adds	r1, r3, #1
 8000ffe:	f8a7 10a0 	strh.w	r1, [r7, #160]	@ 0xa0
 8001002:	b2d2      	uxtb	r2, r2
 8001004:	33a8      	adds	r3, #168	@ 0xa8
 8001006:	443b      	add	r3, r7
 8001008:	f803 2c18 	strb.w	r2, [r3, #-24]

    status = BMS_Transceive(hbms, tx_frame, tx_idx, rx_raw, rx_total);
 800100c:	f107 0010 	add.w	r0, r7, #16
 8001010:	f8b7 20a0 	ldrh.w	r2, [r7, #160]	@ 0xa0
 8001014:	f107 0190 	add.w	r1, r7, #144	@ 0x90
 8001018:	f8b7 309c 	ldrh.w	r3, [r7, #156]	@ 0x9c
 800101c:	9300      	str	r3, [sp, #0]
 800101e:	4603      	mov	r3, r0
 8001020:	68f8      	ldr	r0, [r7, #12]
 8001022:	f7ff fc6b 	bl	80008fc <BMS_Transceive>
 8001026:	4603      	mov	r3, r0
 8001028:	f887 3099 	strb.w	r3, [r7, #153]	@ 0x99
    if (status != BMS_OK) { return status; }
 800102c:	f897 3099 	ldrb.w	r3, [r7, #153]	@ 0x99
 8001030:	2b00      	cmp	r3, #0
 8001032:	d002      	beq.n	800103a <BMS_ReadBroadcast+0x116>
 8001034:	f897 3099 	ldrb.w	r3, [r7, #153]	@ 0x99
 8001038:	e09a      	b.n	8001170 <BMS_ReadBroadcast+0x24c>
     * DIR1 (Reverso): Bridge→Slave2→Slave1. Slave1 (fim da linha) responde primeiro.
     *   wire_idx=0 → Slave1 → logical_idx = 0 (mapeamento directo) ✓
     *
     * BUG CORRIGIDO: inversão estática em ambos os modos cruzava telemetria
     * dos Packs durante ring recovery → balanceamento na célula errada. */
    uint16_t offset = 0U;
 800103a:	2300      	movs	r3, #0
 800103c:	f8a7 30a6 	strh.w	r3, [r7, #166]	@ 0xa6
    for (uint8_t wire_idx = 0U; wire_idx < BMS_NUM_SLAVES; wire_idx++)
 8001040:	2300      	movs	r3, #0
 8001042:	f887 30a5 	strb.w	r3, [r7, #165]	@ 0xa5
 8001046:	e08d      	b.n	8001164 <BMS_ReadBroadcast+0x240>
    {
        uint8_t logical_idx;
        if (hbms->ring_using_reverse)
 8001048:	68fb      	ldr	r3, [r7, #12]
 800104a:	7a5b      	ldrb	r3, [r3, #9]
 800104c:	2b00      	cmp	r3, #0
 800104e:	d004      	beq.n	800105a <BMS_ReadBroadcast+0x136>
        {
            logical_idx = wire_idx;  /* DIR1: ordem directa */
 8001050:	f897 30a5 	ldrb.w	r3, [r7, #165]	@ 0xa5
 8001054:	f887 30a4 	strb.w	r3, [r7, #164]	@ 0xa4
 8001058:	e005      	b.n	8001066 <BMS_ReadBroadcast+0x142>
        }
        else
        {
            logical_idx = (uint8_t)(BMS_NUM_SLAVES - 1U - wire_idx);  /* DIR0: invertido */
 800105a:	f897 30a5 	ldrb.w	r3, [r7, #165]	@ 0xa5
 800105e:	f1c3 0301 	rsb	r3, r3, #1
 8001062:	f887 30a4 	strb.w	r3, [r7, #164]	@ 0xa4
        }

        crc_calc = BMS_CalculateCRC16(&rx_raw[offset], per_dev_size - 2U);
 8001066:	f8b7 30a6 	ldrh.w	r3, [r7, #166]	@ 0xa6
 800106a:	f107 0210 	add.w	r2, r7, #16
 800106e:	441a      	add	r2, r3
 8001070:	f8b7 309e 	ldrh.w	r3, [r7, #158]	@ 0x9e
 8001074:	3b02      	subs	r3, #2
 8001076:	b29b      	uxth	r3, r3
 8001078:	4619      	mov	r1, r3
 800107a:	4610      	mov	r0, r2
 800107c:	f7ff fc02 	bl	8000884 <BMS_CalculateCRC16>
 8001080:	4603      	mov	r3, r0
 8001082:	f8a7 309a 	strh.w	r3, [r7, #154]	@ 0x9a
        uint16_t crc_recv = (uint16_t)rx_raw[offset + per_dev_size - 2U] |
 8001086:	f8b7 20a6 	ldrh.w	r2, [r7, #166]	@ 0xa6
 800108a:	f8b7 309e 	ldrh.w	r3, [r7, #158]	@ 0x9e
 800108e:	4413      	add	r3, r2
 8001090:	3b02      	subs	r3, #2
 8001092:	33a8      	adds	r3, #168	@ 0xa8
 8001094:	443b      	add	r3, r7
 8001096:	f813 3c98 	ldrb.w	r3, [r3, #-152]
 800109a:	b21a      	sxth	r2, r3
                            ((uint16_t)rx_raw[offset + per_dev_size - 1U] << 8U);
 800109c:	f8b7 10a6 	ldrh.w	r1, [r7, #166]	@ 0xa6
 80010a0:	f8b7 309e 	ldrh.w	r3, [r7, #158]	@ 0x9e
 80010a4:	440b      	add	r3, r1
 80010a6:	3b01      	subs	r3, #1
 80010a8:	33a8      	adds	r3, #168	@ 0xa8
 80010aa:	443b      	add	r3, r7
 80010ac:	f813 3c98 	ldrb.w	r3, [r3, #-152]
        uint16_t crc_recv = (uint16_t)rx_raw[offset + per_dev_size - 2U] |
 80010b0:	b21b      	sxth	r3, r3
 80010b2:	021b      	lsls	r3, r3, #8
 80010b4:	b21b      	sxth	r3, r3
 80010b6:	4313      	orrs	r3, r2
 80010b8:	b21b      	sxth	r3, r3
 80010ba:	f8a7 3096 	strh.w	r3, [r7, #150]	@ 0x96
        if (crc_calc != crc_recv)
 80010be:	f8b7 209a 	ldrh.w	r2, [r7, #154]	@ 0x9a
 80010c2:	f8b7 3096 	ldrh.w	r3, [r7, #150]	@ 0x96
 80010c6:	429a      	cmp	r2, r3
 80010c8:	d012      	beq.n	80010f0 <BMS_ReadBroadcast+0x1cc>
        {
            hbms->slave[logical_idx].comm_ok = false;
 80010ca:	f897 30a4 	ldrb.w	r3, [r7, #164]	@ 0xa4
 80010ce:	68fa      	ldr	r2, [r7, #12]
 80010d0:	2154      	movs	r1, #84	@ 0x54
 80010d2:	fb01 f303 	mul.w	r3, r1, r3
 80010d6:	4413      	add	r3, r2
 80010d8:	335a      	adds	r3, #90	@ 0x5a
 80010da:	2200      	movs	r2, #0
 80010dc:	701a      	strb	r2, [r3, #0]
            hbms->crc_error_count++;
 80010de:	68fb      	ldr	r3, [r7, #12]
 80010e0:	f8d3 30cc 	ldr.w	r3, [r3, #204]	@ 0xcc
 80010e4:	1c5a      	adds	r2, r3, #1
 80010e6:	68fb      	ldr	r3, [r7, #12]
 80010e8:	f8c3 20cc 	str.w	r2, [r3, #204]	@ 0xcc
            return BMS_ERR_CRC;
 80010ec:	2302      	movs	r3, #2
 80010ee:	e03f      	b.n	8001170 <BMS_ReadBroadcast+0x24c>
        }
        for (uint8_t b = 0U; b < data_len_per_dev; b++)
 80010f0:	2300      	movs	r3, #0
 80010f2:	f887 30a3 	strb.w	r3, [r7, #163]	@ 0xa3
 80010f6:	e01a      	b.n	800112e <BMS_ReadBroadcast+0x20a>
        {
            /* Offset +4: após INIT(1) + DEV_ADDR(1) + REG_H(1) + REG_L(1) */
            rx_data[logical_idx * data_len_per_dev + b] = rx_raw[offset + 4U + b];
 80010f8:	f8b7 20a6 	ldrh.w	r2, [r7, #166]	@ 0xa6
 80010fc:	f897 30a3 	ldrb.w	r3, [r7, #163]	@ 0xa3
 8001100:	4413      	add	r3, r2
 8001102:	1d1a      	adds	r2, r3, #4
 8001104:	f897 30a4 	ldrb.w	r3, [r7, #164]	@ 0xa4
 8001108:	7a79      	ldrb	r1, [r7, #9]
 800110a:	fb03 f101 	mul.w	r1, r3, r1
 800110e:	f897 30a3 	ldrb.w	r3, [r7, #163]	@ 0xa3
 8001112:	440b      	add	r3, r1
 8001114:	4619      	mov	r1, r3
 8001116:	687b      	ldr	r3, [r7, #4]
 8001118:	440b      	add	r3, r1
 800111a:	32a8      	adds	r2, #168	@ 0xa8
 800111c:	443a      	add	r2, r7
 800111e:	f812 2c98 	ldrb.w	r2, [r2, #-152]
 8001122:	701a      	strb	r2, [r3, #0]
        for (uint8_t b = 0U; b < data_len_per_dev; b++)
 8001124:	f897 30a3 	ldrb.w	r3, [r7, #163]	@ 0xa3
 8001128:	3301      	adds	r3, #1
 800112a:	f887 30a3 	strb.w	r3, [r7, #163]	@ 0xa3
 800112e:	f897 20a3 	ldrb.w	r2, [r7, #163]	@ 0xa3
 8001132:	7a7b      	ldrb	r3, [r7, #9]
 8001134:	429a      	cmp	r2, r3
 8001136:	d3df      	bcc.n	80010f8 <BMS_ReadBroadcast+0x1d4>
        }
        hbms->slave[logical_idx].comm_ok = true;
 8001138:	f897 30a4 	ldrb.w	r3, [r7, #164]	@ 0xa4
 800113c:	68fa      	ldr	r2, [r7, #12]
 800113e:	2154      	movs	r1, #84	@ 0x54
 8001140:	fb01 f303 	mul.w	r3, r1, r3
 8001144:	4413      	add	r3, r2
 8001146:	335a      	adds	r3, #90	@ 0x5a
 8001148:	2201      	movs	r2, #1
 800114a:	701a      	strb	r2, [r3, #0]
        offset += per_dev_size;
 800114c:	f8b7 20a6 	ldrh.w	r2, [r7, #166]	@ 0xa6
 8001150:	f8b7 309e 	ldrh.w	r3, [r7, #158]	@ 0x9e
 8001154:	4413      	add	r3, r2
 8001156:	f8a7 30a6 	strh.w	r3, [r7, #166]	@ 0xa6
    for (uint8_t wire_idx = 0U; wire_idx < BMS_NUM_SLAVES; wire_idx++)
 800115a:	f897 30a5 	ldrb.w	r3, [r7, #165]	@ 0xa5
 800115e:	3301      	adds	r3, #1
 8001160:	f887 30a5 	strb.w	r3, [r7, #165]	@ 0xa5
 8001164:	f897 30a5 	ldrb.w	r3, [r7, #165]	@ 0xa5
 8001168:	2b01      	cmp	r3, #1
 800116a:	f67f af6d 	bls.w	8001048 <BMS_ReadBroadcast+0x124>
    }
    return BMS_OK;
 800116e:	2300      	movs	r3, #0
}
 8001170:	4618      	mov	r0, r3
 8001172:	37a8      	adds	r7, #168	@ 0xa8
 8001174:	46bd      	mov	sp, r7
 8001176:	bd80      	pop	{r7, pc}

08001178 <BMS_WriteBroadcastReverse>:
 * @return BMS_OK ou código de erro
 */
BMS_Status_t BMS_WriteBroadcastReverse(BMS_Handle_t *hbms, uint16_t reg_addr,
                                        uint8_t init_base, uint8_t *data,
                                        uint8_t data_len)
{
 8001178:	b580      	push	{r7, lr}
 800117a:	b098      	sub	sp, #96	@ 0x60
 800117c:	af02      	add	r7, sp, #8
 800117e:	60f8      	str	r0, [r7, #12]
 8001180:	607b      	str	r3, [r7, #4]
 8001182:	460b      	mov	r3, r1
 8001184:	817b      	strh	r3, [r7, #10]
 8001186:	4613      	mov	r3, r2
 8001188:	727b      	strb	r3, [r7, #9]
    uint8_t  frame[BMS_MAX_FRAME_SIZE];
    uint16_t idx = 0U;
 800118a:	2300      	movs	r3, #0
 800118c:	f8a7 3056 	strh.w	r3, [r7, #86]	@ 0x56
    uint16_t crc;

    if ((data == NULL) || (data_len == 0U) || (data_len > 8U))
 8001190:	687b      	ldr	r3, [r7, #4]
 8001192:	2b00      	cmp	r3, #0
 8001194:	d007      	beq.n	80011a6 <BMS_WriteBroadcastReverse+0x2e>
 8001196:	f897 3060 	ldrb.w	r3, [r7, #96]	@ 0x60
 800119a:	2b00      	cmp	r3, #0
 800119c:	d003      	beq.n	80011a6 <BMS_WriteBroadcastReverse+0x2e>
 800119e:	f897 3060 	ldrb.w	r3, [r7, #96]	@ 0x60
 80011a2:	2b08      	cmp	r3, #8
 80011a4:	d901      	bls.n	80011aa <BMS_WriteBroadcastReverse+0x32>
    {
        return BMS_ERR_INVALID_PARAM;
 80011a6:	2304      	movs	r3, #4
 80011a8:	e079      	b.n	800129e <BMS_WriteBroadcastReverse+0x126>
    }

    /* INIT dinâmico: base reversa + payload size */
    frame[idx++] = BMS_INIT(init_base, data_len);
 80011aa:	f897 3060 	ldrb.w	r3, [r7, #96]	@ 0x60
 80011ae:	3b01      	subs	r3, #1
 80011b0:	b2db      	uxtb	r3, r3
 80011b2:	f003 0307 	and.w	r3, r3, #7
 80011b6:	b2da      	uxtb	r2, r3
 80011b8:	f8b7 3056 	ldrh.w	r3, [r7, #86]	@ 0x56
 80011bc:	1c59      	adds	r1, r3, #1
 80011be:	f8a7 1056 	strh.w	r1, [r7, #86]	@ 0x56
 80011c2:	4619      	mov	r1, r3
 80011c4:	7a7b      	ldrb	r3, [r7, #9]
 80011c6:	4313      	orrs	r3, r2
 80011c8:	b2da      	uxtb	r2, r3
 80011ca:	f101 0358 	add.w	r3, r1, #88	@ 0x58
 80011ce:	443b      	add	r3, r7
 80011d0:	f803 2c48 	strb.w	r2, [r3, #-72]
    frame[idx++] = (uint8_t)(reg_addr >> 8U);
 80011d4:	897b      	ldrh	r3, [r7, #10]
 80011d6:	0a1b      	lsrs	r3, r3, #8
 80011d8:	b29a      	uxth	r2, r3
 80011da:	f8b7 3056 	ldrh.w	r3, [r7, #86]	@ 0x56
 80011de:	1c59      	adds	r1, r3, #1
 80011e0:	f8a7 1056 	strh.w	r1, [r7, #86]	@ 0x56
 80011e4:	b2d2      	uxtb	r2, r2
 80011e6:	3358      	adds	r3, #88	@ 0x58
 80011e8:	443b      	add	r3, r7
 80011ea:	f803 2c48 	strb.w	r2, [r3, #-72]
    frame[idx++] = (uint8_t)(reg_addr & 0xFFU);
 80011ee:	f8b7 3056 	ldrh.w	r3, [r7, #86]	@ 0x56
 80011f2:	1c5a      	adds	r2, r3, #1
 80011f4:	f8a7 2056 	strh.w	r2, [r7, #86]	@ 0x56
 80011f8:	897a      	ldrh	r2, [r7, #10]
 80011fa:	b2d2      	uxtb	r2, r2
 80011fc:	3358      	adds	r3, #88	@ 0x58
 80011fe:	443b      	add	r3, r7
 8001200:	f803 2c48 	strb.w	r2, [r3, #-72]
    for (uint8_t i = 0U; i < data_len; i++)
 8001204:	2300      	movs	r3, #0
 8001206:	f887 3055 	strb.w	r3, [r7, #85]	@ 0x55
 800120a:	e012      	b.n	8001232 <BMS_WriteBroadcastReverse+0xba>
    {
        frame[idx++] = data[i];
 800120c:	f897 3055 	ldrb.w	r3, [r7, #85]	@ 0x55
 8001210:	687a      	ldr	r2, [r7, #4]
 8001212:	441a      	add	r2, r3
 8001214:	f8b7 3056 	ldrh.w	r3, [r7, #86]	@ 0x56
 8001218:	1c59      	adds	r1, r3, #1
 800121a:	f8a7 1056 	strh.w	r1, [r7, #86]	@ 0x56
 800121e:	7812      	ldrb	r2, [r2, #0]
 8001220:	3358      	adds	r3, #88	@ 0x58
 8001222:	443b      	add	r3, r7
 8001224:	f803 2c48 	strb.w	r2, [r3, #-72]
    for (uint8_t i = 0U; i < data_len; i++)
 8001228:	f897 3055 	ldrb.w	r3, [r7, #85]	@ 0x55
 800122c:	3301      	adds	r3, #1
 800122e:	f887 3055 	strb.w	r3, [r7, #85]	@ 0x55
 8001232:	f897 2055 	ldrb.w	r2, [r7, #85]	@ 0x55
 8001236:	f897 3060 	ldrb.w	r3, [r7, #96]	@ 0x60
 800123a:	429a      	cmp	r2, r3
 800123c:	d3e6      	bcc.n	800120c <BMS_WriteBroadcastReverse+0x94>
    }
    crc = BMS_CalculateCRC16(frame, idx);
 800123e:	f8b7 2056 	ldrh.w	r2, [r7, #86]	@ 0x56
 8001242:	f107 0310 	add.w	r3, r7, #16
 8001246:	4611      	mov	r1, r2
 8001248:	4618      	mov	r0, r3
 800124a:	f7ff fb1b 	bl	8000884 <BMS_CalculateCRC16>
 800124e:	4603      	mov	r3, r0
 8001250:	f8a7 3052 	strh.w	r3, [r7, #82]	@ 0x52
    frame[idx++] = (uint8_t)(crc & 0xFFU);
 8001254:	f8b7 3056 	ldrh.w	r3, [r7, #86]	@ 0x56
 8001258:	1c5a      	adds	r2, r3, #1
 800125a:	f8a7 2056 	strh.w	r2, [r7, #86]	@ 0x56
 800125e:	f8b7 2052 	ldrh.w	r2, [r7, #82]	@ 0x52
 8001262:	b2d2      	uxtb	r2, r2
 8001264:	3358      	adds	r3, #88	@ 0x58
 8001266:	443b      	add	r3, r7
 8001268:	f803 2c48 	strb.w	r2, [r3, #-72]
    frame[idx++] = (uint8_t)(crc >> 8U);
 800126c:	f8b7 3052 	ldrh.w	r3, [r7, #82]	@ 0x52
 8001270:	0a1b      	lsrs	r3, r3, #8
 8001272:	b29a      	uxth	r2, r3
 8001274:	f8b7 3056 	ldrh.w	r3, [r7, #86]	@ 0x56
 8001278:	1c59      	adds	r1, r3, #1
 800127a:	f8a7 1056 	strh.w	r1, [r7, #86]	@ 0x56
 800127e:	b2d2      	uxtb	r2, r2
 8001280:	3358      	adds	r3, #88	@ 0x58
 8001282:	443b      	add	r3, r7
 8001284:	f803 2c48 	strb.w	r2, [r3, #-72]

    return BMS_Transceive(hbms, frame, idx, NULL, 0U);
 8001288:	f8b7 2056 	ldrh.w	r2, [r7, #86]	@ 0x56
 800128c:	f107 0110 	add.w	r1, r7, #16
 8001290:	2300      	movs	r3, #0
 8001292:	9300      	str	r3, [sp, #0]
 8001294:	2300      	movs	r3, #0
 8001296:	68f8      	ldr	r0, [r7, #12]
 8001298:	f7ff fb30 	bl	80008fc <BMS_Transceive>
 800129c:	4603      	mov	r3, r0
}
 800129e:	4618      	mov	r0, r3
 80012a0:	3758      	adds	r7, #88	@ 0x58
 80012a2:	46bd      	mov	sp, r7
 80012a4:	bd80      	pop	{r7, pc}
	...

080012a8 <BMS_SendWakePulse>:
 *         UART TX é temporariamente controlado como GPIO
 *
 * @param  hbms     Handle do BMS
 */
static void BMS_SendWakePulse(BMS_Handle_t *hbms)
{
 80012a8:	b580      	push	{r7, lr}
 80012aa:	b088      	sub	sp, #32
 80012ac:	af00      	add	r7, sp, #0
 80012ae:	6078      	str	r0, [r7, #4]
    /* Desactiva a UART para controlo manual do pino */
    HAL_UART_DeInit(hbms->huart);
 80012b0:	687b      	ldr	r3, [r7, #4]
 80012b2:	f8d3 30d0 	ldr.w	r3, [r3, #208]	@ 0xd0
 80012b6:	4618      	mov	r0, r3
 80012b8:	f005 f93a 	bl	8006530 <HAL_UART_DeInit>

    /* Configura TX como GPIO Output e força LOW */
    GPIO_InitTypeDef gpio_cfg = {0};
 80012bc:	f107 030c 	add.w	r3, r7, #12
 80012c0:	2200      	movs	r2, #0
 80012c2:	601a      	str	r2, [r3, #0]
 80012c4:	605a      	str	r2, [r3, #4]
 80012c6:	609a      	str	r2, [r3, #8]
 80012c8:	60da      	str	r2, [r3, #12]
 80012ca:	611a      	str	r2, [r3, #16]
    /* NOTA: O pino TX deve ser definido na configuração do projecto.
     * Pino TX da bridge: PA0 = UART4_TX (definido em BMS_BRIDGE_TX_PIN).
     * Ajustar conforme o hardware real. */
    gpio_cfg.Pin = BMS_BRIDGE_TX_PIN;       /* Ajustar para o pino TX real */
 80012cc:	2301      	movs	r3, #1
 80012ce:	60fb      	str	r3, [r7, #12]
    gpio_cfg.Mode = GPIO_MODE_OUTPUT_PP;
 80012d0:	2301      	movs	r3, #1
 80012d2:	613b      	str	r3, [r7, #16]
    gpio_cfg.Pull = GPIO_NOPULL;
 80012d4:	2300      	movs	r3, #0
 80012d6:	617b      	str	r3, [r7, #20]
    gpio_cfg.Speed = GPIO_SPEED_FREQ_LOW;
 80012d8:	2300      	movs	r3, #0
 80012da:	61bb      	str	r3, [r7, #24]
    HAL_GPIO_Init(BMS_BRIDGE_TX_PORT, &gpio_cfg);  /* Ajustar para o porto real */
 80012dc:	f107 030c 	add.w	r3, r7, #12
 80012e0:	4619      	mov	r1, r3
 80012e2:	480f      	ldr	r0, [pc, #60]	@ (8001320 <BMS_SendWakePulse+0x78>)
 80012e4:	f003 fb40 	bl	8004968 <HAL_GPIO_Init>

    HAL_GPIO_WritePin(BMS_BRIDGE_TX_PORT, BMS_BRIDGE_TX_PIN, GPIO_PIN_RESET);  /* LOW */
 80012e8:	2200      	movs	r2, #0
 80012ea:	2101      	movs	r1, #1
 80012ec:	480c      	ldr	r0, [pc, #48]	@ (8001320 <BMS_SendWakePulse+0x78>)
 80012ee:	f003 fddb 	bl	8004ea8 <HAL_GPIO_WritePin>
    BMS_DelayUs(hbms, DELAY_WAKE_PULSE_US);                /* 2500 µs */
 80012f2:	f640 11c4 	movw	r1, #2500	@ 0x9c4
 80012f6:	6878      	ldr	r0, [r7, #4]
 80012f8:	f7ff fa95 	bl	8000826 <BMS_DelayUs>
    HAL_GPIO_WritePin(BMS_BRIDGE_TX_PORT, BMS_BRIDGE_TX_PIN, GPIO_PIN_SET);    /* HIGH */
 80012fc:	2201      	movs	r2, #1
 80012fe:	2101      	movs	r1, #1
 8001300:	4807      	ldr	r0, [pc, #28]	@ (8001320 <BMS_SendWakePulse+0x78>)
 8001302:	f003 fdd1 	bl	8004ea8 <HAL_GPIO_WritePin>

    /* Reínicializa a UART */
    HAL_UART_Init(hbms->huart);
 8001306:	687b      	ldr	r3, [r7, #4]
 8001308:	f8d3 30d0 	ldr.w	r3, [r3, #208]	@ 0xd0
 800130c:	4618      	mov	r0, r3
 800130e:	f005 f8bf 	bl	8006490 <HAL_UART_Init>
    BMS_DelayMs(DELAY_OSC_STAB_MS);  /* 2 ms para osciladores da bridge */
 8001312:	2002      	movs	r0, #2
 8001314:	f7ff fa7c 	bl	8000810 <BMS_DelayMs>
}
 8001318:	bf00      	nop
 800131a:	3720      	adds	r7, #32
 800131c:	46bd      	mov	sp, r7
 800131e:	bd80      	pop	{r7, pc}
 8001320:	40020000 	.word	0x40020000

08001324 <BMS_SyncDLL>:
 *
 * @param  hbms     Handle do BMS
 * @return BMS_OK ou código de erro
 */
static BMS_Status_t BMS_SyncDLL(BMS_Handle_t *hbms)
{
 8001324:	b580      	push	{r7, lr}
 8001326:	b084      	sub	sp, #16
 8001328:	af00      	add	r7, sp, #0
 800132a:	6078      	str	r0, [r7, #4]
    uint8_t dummy = 0x00U;
 800132c:	2300      	movs	r3, #0
 800132e:	737b      	strb	r3, [r7, #13]
    BMS_Status_t status = BMS_OK;
 8001330:	2300      	movs	r3, #0
 8001332:	73bb      	strb	r3, [r7, #14]

    for (uint8_t i = 0U; i < 8U; i++)
 8001334:	2300      	movs	r3, #0
 8001336:	73fb      	strb	r3, [r7, #15]
 8001338:	e014      	b.n	8001364 <BMS_SyncDLL+0x40>
    {
        status = BMS_WriteBroadcast(hbms, REG_ECC_DATA1 + i, &dummy, 1U);
 800133a:	7bfb      	ldrb	r3, [r7, #15]
 800133c:	b29b      	uxth	r3, r3
 800133e:	f203 3343 	addw	r3, r3, #835	@ 0x343
 8001342:	b299      	uxth	r1, r3
 8001344:	f107 020d 	add.w	r2, r7, #13
 8001348:	2301      	movs	r3, #1
 800134a:	6878      	ldr	r0, [r7, #4]
 800134c:	f7ff fd55 	bl	8000dfa <BMS_WriteBroadcast>
 8001350:	4603      	mov	r3, r0
 8001352:	73bb      	strb	r3, [r7, #14]
        if (status != BMS_OK)
 8001354:	7bbb      	ldrb	r3, [r7, #14]
 8001356:	2b00      	cmp	r3, #0
 8001358:	d001      	beq.n	800135e <BMS_SyncDLL+0x3a>
        {
            return status;
 800135a:	7bbb      	ldrb	r3, [r7, #14]
 800135c:	e006      	b.n	800136c <BMS_SyncDLL+0x48>
    for (uint8_t i = 0U; i < 8U; i++)
 800135e:	7bfb      	ldrb	r3, [r7, #15]
 8001360:	3301      	adds	r3, #1
 8001362:	73fb      	strb	r3, [r7, #15]
 8001364:	7bfb      	ldrb	r3, [r7, #15]
 8001366:	2b07      	cmp	r3, #7
 8001368:	d9e7      	bls.n	800133a <BMS_SyncDLL+0x16>
        }
    }
    return BMS_OK;
 800136a:	2300      	movs	r3, #0
}
 800136c:	4618      	mov	r0, r3
 800136e:	3710      	adds	r7, #16
 8001370:	46bd      	mov	sp, r7
 8001372:	bd80      	pop	{r7, pc}

08001374 <BMS_AutoAddressing>:
 *
 * @param  hbms     Handle do BMS
 * @return BMS_OK ou BMS_ERR_INIT_FAILED
 */
BMS_Status_t BMS_AutoAddressing(BMS_Handle_t *hbms)
{
 8001374:	b580      	push	{r7, lr}
 8001376:	b088      	sub	sp, #32
 8001378:	af02      	add	r7, sp, #8
 800137a:	6078      	str	r0, [r7, #4]
    uint8_t data;

    /* ------------------------------------------------------------------ */
    /* PASSO 1: Hardware Reset - Pulso WAKE */
    /* ------------------------------------------------------------------ */
    BMS_SendWakePulse(hbms);
 800137c:	6878      	ldr	r0, [r7, #4]
 800137e:	f7ff ff93 	bl	80012a8 <BMS_SendWakePulse>

    /* ------------------------------------------------------------------ */
    /* PASSO 2: WAKE Tone para a stack de slaves */
    /* ------------------------------------------------------------------ */
    data = CTRL1_SEND_WAKE;  /* 0x20 */
 8001382:	2320      	movs	r3, #32
 8001384:	757b      	strb	r3, [r7, #21]
    status = BMS_WriteSingleDevice(hbms, BMS_ADDR_BRIDGE,
 8001386:	f107 0315 	add.w	r3, r7, #21
 800138a:	2201      	movs	r2, #1
 800138c:	9200      	str	r2, [sp, #0]
 800138e:	f240 3209 	movw	r2, #777	@ 0x309
 8001392:	2100      	movs	r1, #0
 8001394:	6878      	ldr	r0, [r7, #4]
 8001396:	f7ff fb99 	bl	8000acc <BMS_WriteSingleDevice>
 800139a:	4603      	mov	r3, r0
 800139c:	75bb      	strb	r3, [r7, #22]
                                    REG_BRIDGE_CONTROL1, &data, 1U);
    if (status != BMS_OK) { return BMS_ERR_INIT_FAILED; }
 800139e:	7dbb      	ldrb	r3, [r7, #22]
 80013a0:	2b00      	cmp	r3, #0
 80013a2:	d001      	beq.n	80013a8 <BMS_AutoAddressing+0x34>
 80013a4:	2306      	movs	r3, #6
 80013a6:	e13a      	b.n	800161e <BMS_AutoAddressing+0x2aa>
    BMS_DelayMs(DELAY_WAKE_PROPAGATION_MS);  /* 5 ms - propagação obrigatória */
 80013a8:	2005      	movs	r0, #5
 80013aa:	f7ff fa31 	bl	8000810 <BMS_DelayMs>

    /* ------------------------------------------------------------------ */
    /* PASSO 3: Sincronização DLL */
    /* ------------------------------------------------------------------ */
    status = BMS_SyncDLL(hbms);
 80013ae:	6878      	ldr	r0, [r7, #4]
 80013b0:	f7ff ffb8 	bl	8001324 <BMS_SyncDLL>
 80013b4:	4603      	mov	r3, r0
 80013b6:	75bb      	strb	r3, [r7, #22]
    if (status != BMS_OK) { return BMS_ERR_INIT_FAILED; }
 80013b8:	7dbb      	ldrb	r3, [r7, #22]
 80013ba:	2b00      	cmp	r3, #0
 80013bc:	d001      	beq.n	80013c2 <BMS_AutoAddressing+0x4e>
 80013be:	2306      	movs	r3, #6
 80013c0:	e12d      	b.n	800161e <BMS_AutoAddressing+0x2aa>

    /* ------------------------------------------------------------------ */
    /* PASSO 4: Endereçamento do Caminho Principal (DIR_SEL = 0) */
    /* ------------------------------------------------------------------ */
    /* Ativar modo ADDR_WR */
    data = CTRL1_ADDR_WR;  /* 0x01 */
 80013c2:	2301      	movs	r3, #1
 80013c4:	757b      	strb	r3, [r7, #21]
    status = BMS_WriteBroadcast(hbms, REG_BRIDGE_CONTROL1, &data, 1U);
 80013c6:	f107 0215 	add.w	r2, r7, #21
 80013ca:	2301      	movs	r3, #1
 80013cc:	f240 3109 	movw	r1, #777	@ 0x309
 80013d0:	6878      	ldr	r0, [r7, #4]
 80013d2:	f7ff fd12 	bl	8000dfa <BMS_WriteBroadcast>
 80013d6:	4603      	mov	r3, r0
 80013d8:	75bb      	strb	r3, [r7, #22]
    if (status != BMS_OK) { return BMS_ERR_INIT_FAILED; }
 80013da:	7dbb      	ldrb	r3, [r7, #22]
 80013dc:	2b00      	cmp	r3, #0
 80013de:	d001      	beq.n	80013e4 <BMS_AutoAddressing+0x70>
 80013e0:	2306      	movs	r3, #6
 80013e2:	e11c      	b.n	800161e <BMS_AutoAddressing+0x2aa>

    /* Bridge: DIR0_ADDR = 0x00 */
    data = BMS_ADDR_BRIDGE;  /* 0x00 */
 80013e4:	2300      	movs	r3, #0
 80013e6:	757b      	strb	r3, [r7, #21]
    status = BMS_WriteBroadcast(hbms, REG_BRIDGE_DIR0_ADDR, &data, 1U);
 80013e8:	f107 0215 	add.w	r2, r7, #21
 80013ec:	2301      	movs	r3, #1
 80013ee:	f240 3106 	movw	r1, #774	@ 0x306
 80013f2:	6878      	ldr	r0, [r7, #4]
 80013f4:	f7ff fd01 	bl	8000dfa <BMS_WriteBroadcast>
 80013f8:	4603      	mov	r3, r0
 80013fa:	75bb      	strb	r3, [r7, #22]
    if (status != BMS_OK) { return BMS_ERR_INIT_FAILED; }
 80013fc:	7dbb      	ldrb	r3, [r7, #22]
 80013fe:	2b00      	cmp	r3, #0
 8001400:	d001      	beq.n	8001406 <BMS_AutoAddressing+0x92>
 8001402:	2306      	movs	r3, #6
 8001404:	e10b      	b.n	800161e <BMS_AutoAddressing+0x2aa>

    /* Slave 1: DIR0_ADDR = 0x01 */
    data = BMS_ADDR_SLAVE1;  /* 0x01 */
 8001406:	2301      	movs	r3, #1
 8001408:	757b      	strb	r3, [r7, #21]
    status = BMS_WriteBroadcast(hbms, REG_BRIDGE_DIR0_ADDR, &data, 1U);
 800140a:	f107 0215 	add.w	r2, r7, #21
 800140e:	2301      	movs	r3, #1
 8001410:	f240 3106 	movw	r1, #774	@ 0x306
 8001414:	6878      	ldr	r0, [r7, #4]
 8001416:	f7ff fcf0 	bl	8000dfa <BMS_WriteBroadcast>
 800141a:	4603      	mov	r3, r0
 800141c:	75bb      	strb	r3, [r7, #22]
    if (status != BMS_OK) { return BMS_ERR_INIT_FAILED; }
 800141e:	7dbb      	ldrb	r3, [r7, #22]
 8001420:	2b00      	cmp	r3, #0
 8001422:	d001      	beq.n	8001428 <BMS_AutoAddressing+0xb4>
 8001424:	2306      	movs	r3, #6
 8001426:	e0fa      	b.n	800161e <BMS_AutoAddressing+0x2aa>

    /* Slave 2: DIR0_ADDR = 0x02 */
    data = BMS_ADDR_SLAVE2;  /* 0x02 */
 8001428:	2302      	movs	r3, #2
 800142a:	757b      	strb	r3, [r7, #21]
    status = BMS_WriteBroadcast(hbms, REG_BRIDGE_DIR0_ADDR, &data, 1U);
 800142c:	f107 0215 	add.w	r2, r7, #21
 8001430:	2301      	movs	r3, #1
 8001432:	f240 3106 	movw	r1, #774	@ 0x306
 8001436:	6878      	ldr	r0, [r7, #4]
 8001438:	f7ff fcdf 	bl	8000dfa <BMS_WriteBroadcast>
 800143c:	4603      	mov	r3, r0
 800143e:	75bb      	strb	r3, [r7, #22]
    if (status != BMS_OK) { return BMS_ERR_INIT_FAILED; }
 8001440:	7dbb      	ldrb	r3, [r7, #22]
 8001442:	2b00      	cmp	r3, #0
 8001444:	d001      	beq.n	800144a <BMS_AutoAddressing+0xd6>
 8001446:	2306      	movs	r3, #6
 8001448:	e0e9      	b.n	800161e <BMS_AutoAddressing+0x2aa>

    /* ------------------------------------------------------------------ */
    /* PASSO 5: Definição de Papéis no Caminho Principal */
    /* ------------------------------------------------------------------ */
    /* Todos os dispositivos: STACK_DEV = 1 */
    data = COMM_CTRL_STACK_DEV;  /* 0x02 */
 800144a:	2302      	movs	r3, #2
 800144c:	757b      	strb	r3, [r7, #21]
    status = BMS_WriteBroadcast(hbms, REG_BRIDGE_COMM_CTRL, &data, 1U);
 800144e:	f107 0215 	add.w	r2, r7, #21
 8001452:	2301      	movs	r3, #1
 8001454:	f44f 7142 	mov.w	r1, #776	@ 0x308
 8001458:	6878      	ldr	r0, [r7, #4]
 800145a:	f7ff fcce 	bl	8000dfa <BMS_WriteBroadcast>
 800145e:	4603      	mov	r3, r0
 8001460:	75bb      	strb	r3, [r7, #22]
    if (status != BMS_OK) { return BMS_ERR_INIT_FAILED; }
 8001462:	7dbb      	ldrb	r3, [r7, #22]
 8001464:	2b00      	cmp	r3, #0
 8001466:	d001      	beq.n	800146c <BMS_AutoAddressing+0xf8>
 8001468:	2306      	movs	r3, #6
 800146a:	e0d8      	b.n	800161e <BMS_AutoAddressing+0x2aa>

    /* Slave 2 (topo físico): TOP_STACK = 1 */
    data = COMM_CTRL_TOP_STACK;  /* 0x03 */
 800146c:	2303      	movs	r3, #3
 800146e:	757b      	strb	r3, [r7, #21]
    status = BMS_WriteSingleDevice(hbms, BMS_ADDR_SLAVE2,
 8001470:	f107 0315 	add.w	r3, r7, #21
 8001474:	2201      	movs	r2, #1
 8001476:	9200      	str	r2, [sp, #0]
 8001478:	f44f 7242 	mov.w	r2, #776	@ 0x308
 800147c:	2102      	movs	r1, #2
 800147e:	6878      	ldr	r0, [r7, #4]
 8001480:	f7ff fb24 	bl	8000acc <BMS_WriteSingleDevice>
 8001484:	4603      	mov	r3, r0
 8001486:	75bb      	strb	r3, [r7, #22]
                                    REG_BRIDGE_COMM_CTRL, &data, 1U);
    if (status != BMS_OK) { return BMS_ERR_INIT_FAILED; }
 8001488:	7dbb      	ldrb	r3, [r7, #22]
 800148a:	2b00      	cmp	r3, #0
 800148c:	d001      	beq.n	8001492 <BMS_AutoAddressing+0x11e>
 800148e:	2306      	movs	r3, #6
 8001490:	e0c5      	b.n	800161e <BMS_AutoAddressing+0x2aa>

    /* ------------------------------------------------------------------ */
    /* PASSO 6: Configuração do Anel (Caminho Reverso DIR_SEL = 1) */
    /* ------------------------------------------------------------------ */
    /* Trocar DIR_SEL na Bridge */
    data = CTRL1_DIR_SEL;  /* 0x02 */
 8001492:	2302      	movs	r3, #2
 8001494:	757b      	strb	r3, [r7, #21]
    status = BMS_WriteSingleDevice(hbms, BMS_ADDR_BRIDGE,
 8001496:	f107 0315 	add.w	r3, r7, #21
 800149a:	2201      	movs	r2, #1
 800149c:	9200      	str	r2, [sp, #0]
 800149e:	f240 3209 	movw	r2, #777	@ 0x309
 80014a2:	2100      	movs	r1, #0
 80014a4:	6878      	ldr	r0, [r7, #4]
 80014a6:	f7ff fb11 	bl	8000acc <BMS_WriteSingleDevice>
 80014aa:	4603      	mov	r3, r0
 80014ac:	75bb      	strb	r3, [r7, #22]
                                    REG_BRIDGE_CONTROL1, &data, 1U);
    if (status != BMS_OK) { return BMS_ERR_INIT_FAILED; }
 80014ae:	7dbb      	ldrb	r3, [r7, #22]
 80014b0:	2b00      	cmp	r3, #0
 80014b2:	d001      	beq.n	80014b8 <BMS_AutoAddressing+0x144>
 80014b4:	2306      	movs	r3, #6
 80014b6:	e0b2      	b.n	800161e <BMS_AutoAddressing+0x2aa>
    BMS_DelayUs(hbms, DELAY_DIR_SEL_SWITCH_US);  /* 100 µs */
 80014b8:	2164      	movs	r1, #100	@ 0x64
 80014ba:	6878      	ldr	r0, [r7, #4]
 80014bc:	f7ff f9b3 	bl	8000826 <BMS_DelayUs>

    /* Inverter direcção de escuta das escravas (Broadcast Rev Write, dado = 0x80) */
    data = 0x80U;
 80014c0:	2380      	movs	r3, #128	@ 0x80
 80014c2:	757b      	strb	r3, [r7, #21]
    status = BMS_WriteBroadcastReverse(hbms, REG_BRIDGE_CONTROL1,
 80014c4:	f107 0315 	add.w	r3, r7, #21
 80014c8:	2201      	movs	r2, #1
 80014ca:	9200      	str	r2, [sp, #0]
 80014cc:	22f8      	movs	r2, #248	@ 0xf8
 80014ce:	f240 3109 	movw	r1, #777	@ 0x309
 80014d2:	6878      	ldr	r0, [r7, #4]
 80014d4:	f7ff fe50 	bl	8001178 <BMS_WriteBroadcastReverse>
 80014d8:	4603      	mov	r3, r0
 80014da:	75bb      	strb	r3, [r7, #22]
                                        INIT_BASE_BCAST_REV_WRITE, &data, 1U);
    if (status != BMS_OK) { return BMS_ERR_INIT_FAILED; }
 80014dc:	7dbb      	ldrb	r3, [r7, #22]
 80014de:	2b00      	cmp	r3, #0
 80014e0:	d001      	beq.n	80014e6 <BMS_AutoAddressing+0x172>
 80014e2:	2306      	movs	r3, #6
 80014e4:	e09b      	b.n	800161e <BMS_AutoAddressing+0x2aa>

    /* ------------------------------------------------------------------ */
    /* PASSO 7: Endereçamento do Caminho Reverso */
    /* ------------------------------------------------------------------ */
    /* Ativar escrita invertida — usa INIT_BASE_BCAST_REV_WRITE (0xF8, 1 byte) */
    data = 0x81U;
 80014e6:	2381      	movs	r3, #129	@ 0x81
 80014e8:	757b      	strb	r3, [r7, #21]
    status = BMS_WriteBroadcastReverse(hbms, REG_BRIDGE_CONTROL1,
 80014ea:	f107 0315 	add.w	r3, r7, #21
 80014ee:	2201      	movs	r2, #1
 80014f0:	9200      	str	r2, [sp, #0]
 80014f2:	22f8      	movs	r2, #248	@ 0xf8
 80014f4:	f240 3109 	movw	r1, #777	@ 0x309
 80014f8:	6878      	ldr	r0, [r7, #4]
 80014fa:	f7ff fe3d 	bl	8001178 <BMS_WriteBroadcastReverse>
 80014fe:	4603      	mov	r3, r0
 8001500:	75bb      	strb	r3, [r7, #22]
                                        INIT_BASE_BCAST_REV_WRITE, &data, 1U);
    if (status != BMS_OK) { return BMS_ERR_INIT_FAILED; }
 8001502:	7dbb      	ldrb	r3, [r7, #22]
 8001504:	2b00      	cmp	r3, #0
 8001506:	d001      	beq.n	800150c <BMS_AutoAddressing+0x198>
 8001508:	2306      	movs	r3, #6
 800150a:	e088      	b.n	800161e <BMS_AutoAddressing+0x2aa>

    /* Bridge: DIR1_ADDR = 0x00 */
    data = BMS_ADDR_BRIDGE;
 800150c:	2300      	movs	r3, #0
 800150e:	757b      	strb	r3, [r7, #21]
    status = BMS_WriteBroadcastReverse(hbms, REG_BRIDGE_DIR1_ADDR,
 8001510:	f107 0315 	add.w	r3, r7, #21
 8001514:	2201      	movs	r2, #1
 8001516:	9200      	str	r2, [sp, #0]
 8001518:	22f8      	movs	r2, #248	@ 0xf8
 800151a:	f240 3107 	movw	r1, #775	@ 0x307
 800151e:	6878      	ldr	r0, [r7, #4]
 8001520:	f7ff fe2a 	bl	8001178 <BMS_WriteBroadcastReverse>
 8001524:	4603      	mov	r3, r0
 8001526:	75bb      	strb	r3, [r7, #22]
                                        INIT_BASE_BCAST_REV_WRITE, &data, 1U);
    if (status != BMS_OK) { return BMS_ERR_INIT_FAILED; }
 8001528:	7dbb      	ldrb	r3, [r7, #22]
 800152a:	2b00      	cmp	r3, #0
 800152c:	d001      	beq.n	8001532 <BMS_AutoAddressing+0x1be>
 800152e:	2306      	movs	r3, #6
 8001530:	e075      	b.n	800161e <BMS_AutoAddressing+0x2aa>

    /* Slave 2 (primeiro na volta): DIR1_ADDR = 0x01 */
    data = 0x01U;
 8001532:	2301      	movs	r3, #1
 8001534:	757b      	strb	r3, [r7, #21]
    status = BMS_WriteBroadcastReverse(hbms, REG_BRIDGE_DIR1_ADDR,
 8001536:	f107 0315 	add.w	r3, r7, #21
 800153a:	2201      	movs	r2, #1
 800153c:	9200      	str	r2, [sp, #0]
 800153e:	22f8      	movs	r2, #248	@ 0xf8
 8001540:	f240 3107 	movw	r1, #775	@ 0x307
 8001544:	6878      	ldr	r0, [r7, #4]
 8001546:	f7ff fe17 	bl	8001178 <BMS_WriteBroadcastReverse>
 800154a:	4603      	mov	r3, r0
 800154c:	75bb      	strb	r3, [r7, #22]
                                        INIT_BASE_BCAST_REV_WRITE, &data, 1U);
    if (status != BMS_OK) { return BMS_ERR_INIT_FAILED; }
 800154e:	7dbb      	ldrb	r3, [r7, #22]
 8001550:	2b00      	cmp	r3, #0
 8001552:	d001      	beq.n	8001558 <BMS_AutoAddressing+0x1e4>
 8001554:	2306      	movs	r3, #6
 8001556:	e062      	b.n	800161e <BMS_AutoAddressing+0x2aa>

    /* Slave 1: DIR1_ADDR = 0x02 */
    data = 0x02U;
 8001558:	2302      	movs	r3, #2
 800155a:	757b      	strb	r3, [r7, #21]
    status = BMS_WriteBroadcastReverse(hbms, REG_BRIDGE_DIR1_ADDR,
 800155c:	f107 0315 	add.w	r3, r7, #21
 8001560:	2201      	movs	r2, #1
 8001562:	9200      	str	r2, [sp, #0]
 8001564:	22f8      	movs	r2, #248	@ 0xf8
 8001566:	f240 3107 	movw	r1, #775	@ 0x307
 800156a:	6878      	ldr	r0, [r7, #4]
 800156c:	f7ff fe04 	bl	8001178 <BMS_WriteBroadcastReverse>
 8001570:	4603      	mov	r3, r0
 8001572:	75bb      	strb	r3, [r7, #22]
                                        INIT_BASE_BCAST_REV_WRITE, &data, 1U);
    if (status != BMS_OK) { return BMS_ERR_INIT_FAILED; }
 8001574:	7dbb      	ldrb	r3, [r7, #22]
 8001576:	2b00      	cmp	r3, #0
 8001578:	d001      	beq.n	800157e <BMS_AutoAddressing+0x20a>
 800157a:	2306      	movs	r3, #6
 800157c:	e04f      	b.n	800161e <BMS_AutoAddressing+0x2aa>

    /* Slave 1 (endereço reverso 0x02): novo TOP_STACK no anel reverso */
    data = COMM_CTRL_TOP_STACK;  /* 0x03 */
 800157e:	2303      	movs	r3, #3
 8001580:	757b      	strb	r3, [r7, #21]
    status = BMS_WriteSingleDevice(hbms, 0x02U,
 8001582:	f107 0315 	add.w	r3, r7, #21
 8001586:	2201      	movs	r2, #1
 8001588:	9200      	str	r2, [sp, #0]
 800158a:	f44f 7242 	mov.w	r2, #776	@ 0x308
 800158e:	2102      	movs	r1, #2
 8001590:	6878      	ldr	r0, [r7, #4]
 8001592:	f7ff fa9b 	bl	8000acc <BMS_WriteSingleDevice>
 8001596:	4603      	mov	r3, r0
 8001598:	75bb      	strb	r3, [r7, #22]
                                    REG_BRIDGE_COMM_CTRL, &data, 1U);
    if (status != BMS_OK) { return BMS_ERR_INIT_FAILED; }
 800159a:	7dbb      	ldrb	r3, [r7, #22]
 800159c:	2b00      	cmp	r3, #0
 800159e:	d001      	beq.n	80015a4 <BMS_AutoAddressing+0x230>
 80015a0:	2306      	movs	r3, #6
 80015a2:	e03c      	b.n	800161e <BMS_AutoAddressing+0x2aa>

    /* Regista endereços no handle */
    hbms->slave[0].address     = BMS_ADDR_SLAVE1;
 80015a4:	687b      	ldr	r3, [r7, #4]
 80015a6:	2201      	movs	r2, #1
 80015a8:	731a      	strb	r2, [r3, #12]
    hbms->slave[0].address_rev = 0x02U;
 80015aa:	687b      	ldr	r3, [r7, #4]
 80015ac:	2202      	movs	r2, #2
 80015ae:	735a      	strb	r2, [r3, #13]
    hbms->slave[1].address     = BMS_ADDR_SLAVE2;
 80015b0:	687b      	ldr	r3, [r7, #4]
 80015b2:	2202      	movs	r2, #2
 80015b4:	f883 2060 	strb.w	r2, [r3, #96]	@ 0x60
    hbms->slave[1].address_rev = 0x01U;
 80015b8:	687b      	ldr	r3, [r7, #4]
 80015ba:	2201      	movs	r2, #1
 80015bc:	f883 2061 	strb.w	r2, [r3, #97]	@ 0x61
    hbms->ring_intact          = true;
 80015c0:	687b      	ldr	r3, [r7, #4]
 80015c2:	2201      	movs	r2, #1
 80015c4:	721a      	strb	r2, [r3, #8]
        /* Purga via READ obriga escoamento do TX FIFO dos slaves.
         * Writes apenas preenchem os RX FIFOs; se o ruído do DIR_SEL
         * gerou tramas encravadas no TX FIFO dos BQ79616, apenas um
         * comando de leitura os força a emitir e esvaziar a linha. */
        uint8_t dummy_rx[BMS_NUM_SLAVES];
        for (uint8_t i = 0U; i < 8U; i++)
 80015c6:	2300      	movs	r3, #0
 80015c8:	75fb      	strb	r3, [r7, #23]
 80015ca:	e00d      	b.n	80015e8 <BMS_AutoAddressing+0x274>
        {
            (void)BMS_ReadBroadcast(hbms, REG_ECC_DATA1 + i, dummy_rx, 1U);
 80015cc:	7dfb      	ldrb	r3, [r7, #23]
 80015ce:	b29b      	uxth	r3, r3
 80015d0:	f203 3343 	addw	r3, r3, #835	@ 0x343
 80015d4:	b299      	uxth	r1, r3
 80015d6:	f107 0210 	add.w	r2, r7, #16
 80015da:	2301      	movs	r3, #1
 80015dc:	6878      	ldr	r0, [r7, #4]
 80015de:	f7ff fca1 	bl	8000f24 <BMS_ReadBroadcast>
        for (uint8_t i = 0U; i < 8U; i++)
 80015e2:	7dfb      	ldrb	r3, [r7, #23]
 80015e4:	3301      	adds	r3, #1
 80015e6:	75fb      	strb	r3, [r7, #23]
 80015e8:	7dfb      	ldrb	r3, [r7, #23]
 80015ea:	2b07      	cmp	r3, #7
 80015ec:	d9ee      	bls.n	80015cc <BMS_AutoAddressing+0x258>
        }
        BMS_DelayMs(2U);  /* settling após purga */
 80015ee:	2002      	movs	r0, #2
 80015f0:	f7ff f90e 	bl	8000810 <BMS_DelayMs>

        /* Limpar latches de COMM_ERR gerados durante endereçamento */
        uint8_t clear_comm = 0x03U;   /* bit0=COMM_ERR1, bit1=COMM_ERR2 */
 80015f4:	2303      	movs	r3, #3
 80015f6:	73fb      	strb	r3, [r7, #15]
        (void)BMS_WriteBroadcast(hbms, REG_FAULT_RST2, &clear_comm, 1U);
 80015f8:	f107 020f 	add.w	r2, r7, #15
 80015fc:	2301      	movs	r3, #1
 80015fe:	f240 3132 	movw	r1, #818	@ 0x332
 8001602:	6878      	ldr	r0, [r7, #4]
 8001604:	f7ff fbf9 	bl	8000dfa <BMS_WriteBroadcast>
        (void)BMS_WriteSingleDevice(hbms, BMS_ADDR_BRIDGE,
 8001608:	f107 030f 	add.w	r3, r7, #15
 800160c:	2201      	movs	r2, #1
 800160e:	9200      	str	r2, [sp, #0]
 8001610:	f240 3232 	movw	r2, #818	@ 0x332
 8001614:	2100      	movs	r1, #0
 8001616:	6878      	ldr	r0, [r7, #4]
 8001618:	f7ff fa58 	bl	8000acc <BMS_WriteSingleDevice>
                                    REG_FAULT_RST2, &clear_comm, 1U);
    }

    return BMS_OK;
 800161c:	2300      	movs	r3, #0
}
 800161e:	4618      	mov	r0, r3
 8001620:	3718      	adds	r7, #24
 8001622:	46bd      	mov	sp, r7
 8001624:	bd80      	pop	{r7, pc}

08001626 <BMS_ConfigureSlaves>:
 *
 * @param  hbms     Handle do BMS
 * @return BMS_OK ou código de erro
 */
BMS_Status_t BMS_ConfigureSlaves(BMS_Handle_t *hbms)
{
 8001626:	b580      	push	{r7, lr}
 8001628:	b086      	sub	sp, #24
 800162a:	af02      	add	r7, sp, #8
 800162c:	6078      	str	r0, [r7, #4]
    BMS_Status_t status;
    uint8_t data;

    for (uint8_t s = 0U; s < BMS_NUM_SLAVES; s++)
 800162e:	2300      	movs	r3, #0
 8001630:	73fb      	strb	r3, [r7, #15]
 8001632:	e0af      	b.n	8001794 <BMS_ConfigureSlaves+0x16e>
    {
        uint8_t slave_addr = hbms->slave[s].address;
 8001634:	7bfb      	ldrb	r3, [r7, #15]
 8001636:	687a      	ldr	r2, [r7, #4]
 8001638:	2154      	movs	r1, #84	@ 0x54
 800163a:	fb01 f303 	mul.w	r3, r1, r3
 800163e:	4413      	add	r3, r2
 8001640:	330c      	adds	r3, #12
 8001642:	781b      	ldrb	r3, [r3, #0]
 8001644:	73bb      	strb	r3, [r7, #14]

        /* --- Configurar 15 células activas --- */
        data = ACTIVE_CELL_15S;  /* 0x0F */
 8001646:	230f      	movs	r3, #15
 8001648:	733b      	strb	r3, [r7, #12]
        status = BMS_WriteSingleDevice(hbms, slave_addr,
 800164a:	f107 030c 	add.w	r3, r7, #12
 800164e:	7bb9      	ldrb	r1, [r7, #14]
 8001650:	2201      	movs	r2, #1
 8001652:	9200      	str	r2, [sp, #0]
 8001654:	2203      	movs	r2, #3
 8001656:	6878      	ldr	r0, [r7, #4]
 8001658:	f7ff fa38 	bl	8000acc <BMS_WriteSingleDevice>
 800165c:	4603      	mov	r3, r0
 800165e:	737b      	strb	r3, [r7, #13]
                                        REG_ACTIVE_CELL, &data, 1U);
        if (status != BMS_OK) { return status; }
 8001660:	7b7b      	ldrb	r3, [r7, #13]
 8001662:	2b00      	cmp	r3, #0
 8001664:	d001      	beq.n	800166a <BMS_ConfigureSlaves+0x44>
 8001666:	7b7b      	ldrb	r3, [r7, #13]
 8001668:	e09c      	b.n	80017a4 <BMS_ConfigureSlaves+0x17e>

        /* --- Threshold Sobretensão: 0x24 → 3600 mV (2700 + 36×25 mV) --- */
        data = OV_THRESH_VAL;  /* 0x24 */
 800166a:	2324      	movs	r3, #36	@ 0x24
 800166c:	733b      	strb	r3, [r7, #12]
        status = BMS_WriteSingleDevice(hbms, slave_addr,
 800166e:	f107 030c 	add.w	r3, r7, #12
 8001672:	7bb9      	ldrb	r1, [r7, #14]
 8001674:	2201      	movs	r2, #1
 8001676:	9200      	str	r2, [sp, #0]
 8001678:	2209      	movs	r2, #9
 800167a:	6878      	ldr	r0, [r7, #4]
 800167c:	f7ff fa26 	bl	8000acc <BMS_WriteSingleDevice>
 8001680:	4603      	mov	r3, r0
 8001682:	737b      	strb	r3, [r7, #13]
                                        REG_OV_THRESH, &data, 1U);
        if (status != BMS_OK) { return status; }
 8001684:	7b7b      	ldrb	r3, [r7, #13]
 8001686:	2b00      	cmp	r3, #0
 8001688:	d001      	beq.n	800168e <BMS_ConfigureSlaves+0x68>
 800168a:	7b7b      	ldrb	r3, [r7, #13]
 800168c:	e08a      	b.n	80017a4 <BMS_ConfigureSlaves+0x17e>

        /* --- Threshold Subtensão: 0x24 ≈ 3000 mV --- */
        data = UV_THRESH_VAL;  /* 0x24 */
 800168e:	2324      	movs	r3, #36	@ 0x24
 8001690:	733b      	strb	r3, [r7, #12]
        status = BMS_WriteSingleDevice(hbms, slave_addr,
 8001692:	f107 030c 	add.w	r3, r7, #12
 8001696:	7bb9      	ldrb	r1, [r7, #14]
 8001698:	2201      	movs	r2, #1
 800169a:	9200      	str	r2, [sp, #0]
 800169c:	220a      	movs	r2, #10
 800169e:	6878      	ldr	r0, [r7, #4]
 80016a0:	f7ff fa14 	bl	8000acc <BMS_WriteSingleDevice>
 80016a4:	4603      	mov	r3, r0
 80016a6:	737b      	strb	r3, [r7, #13]
                                        REG_UV_THRESH, &data, 1U);
        if (status != BMS_OK) { return status; }
 80016a8:	7b7b      	ldrb	r3, [r7, #13]
 80016aa:	2b00      	cmp	r3, #0
 80016ac:	d001      	beq.n	80016b2 <BMS_ConfigureSlaves+0x8c>
 80016ae:	7b7b      	ldrb	r3, [r7, #13]
 80016b0:	e078      	b.n	80017a4 <BMS_ConfigureSlaves+0x17e>

        /* --- Filtro passa-baixo ADC --- */
        data = 0x02U;  /* LPF corner frequency padrão */
 80016b2:	2302      	movs	r3, #2
 80016b4:	733b      	strb	r3, [r7, #12]
        status = BMS_WriteSingleDevice(hbms, slave_addr,
 80016b6:	f107 030c 	add.w	r3, r7, #12
 80016ba:	7bb9      	ldrb	r1, [r7, #14]
 80016bc:	2201      	movs	r2, #1
 80016be:	9200      	str	r2, [sp, #0]
 80016c0:	2207      	movs	r2, #7
 80016c2:	6878      	ldr	r0, [r7, #4]
 80016c4:	f7ff fa02 	bl	8000acc <BMS_WriteSingleDevice>
 80016c8:	4603      	mov	r3, r0
 80016ca:	737b      	strb	r3, [r7, #13]
                                        REG_ADC_CONF1, &data, 1U);
        if (status != BMS_OK) { return status; }
 80016cc:	7b7b      	ldrb	r3, [r7, #13]
 80016ce:	2b00      	cmp	r3, #0
 80016d0:	d001      	beq.n	80016d6 <BMS_ConfigureSlaves+0xb0>
 80016d2:	7b7b      	ldrb	r3, [r7, #13]
 80016d4:	e066      	b.n	80017a4 <BMS_ConfigureSlaves+0x17e>

        /* --- Activar protecções hardware OVUV --- */
        data = OVUV_CTRL_ENABLE;  /* 0x06 */
 80016d6:	2306      	movs	r3, #6
 80016d8:	733b      	strb	r3, [r7, #12]
        status = BMS_WriteSingleDevice(hbms, slave_addr,
 80016da:	f107 030c 	add.w	r3, r7, #12
 80016de:	7bb9      	ldrb	r1, [r7, #14]
 80016e0:	2201      	movs	r2, #1
 80016e2:	9200      	str	r2, [sp, #0]
 80016e4:	f44f 724b 	mov.w	r2, #812	@ 0x32c
 80016e8:	6878      	ldr	r0, [r7, #4]
 80016ea:	f7ff f9ef 	bl	8000acc <BMS_WriteSingleDevice>
 80016ee:	4603      	mov	r3, r0
 80016f0:	737b      	strb	r3, [r7, #13]
                                        REG_OVUV_CTRL, &data, 1U);
        if (status != BMS_OK) { return status; }
 80016f2:	7b7b      	ldrb	r3, [r7, #13]
 80016f4:	2b00      	cmp	r3, #0
 80016f6:	d001      	beq.n	80016fc <BMS_ConfigureSlaves+0xd6>
 80016f8:	7b7b      	ldrb	r3, [r7, #13]
 80016fa:	e053      	b.n	80017a4 <BMS_ConfigureSlaves+0x17e>

        /* --- Configurar temporizador de auto-stop de balanceamento --- */
        data = BAL_CTRL1_TIMER_10MIN;
 80016fc:	232a      	movs	r3, #42	@ 0x2a
 80016fe:	733b      	strb	r3, [r7, #12]
        status = BMS_WriteSingleDevice(hbms, slave_addr,
 8001700:	f107 030c 	add.w	r3, r7, #12
 8001704:	7bb9      	ldrb	r1, [r7, #14]
 8001706:	2201      	movs	r2, #1
 8001708:	9200      	str	r2, [sp, #0]
 800170a:	222e      	movs	r2, #46	@ 0x2e
 800170c:	6878      	ldr	r0, [r7, #4]
 800170e:	f7ff f9dd 	bl	8000acc <BMS_WriteSingleDevice>
 8001712:	4603      	mov	r3, r0
 8001714:	737b      	strb	r3, [r7, #13]
                                        REG_BAL_CTRL1, &data, 1U);
        if (status != BMS_OK) { return status; }
 8001716:	7b7b      	ldrb	r3, [r7, #13]
 8001718:	2b00      	cmp	r3, #0
 800171a:	d001      	beq.n	8001720 <BMS_ConfigureSlaves+0xfa>
 800171c:	7b7b      	ldrb	r3, [r7, #13]
 800171e:	e041      	b.n	80017a4 <BMS_ConfigureSlaves+0x17e>

        data = BAL_CTRL2_AUTOSTOP_EN;
 8001720:	2301      	movs	r3, #1
 8001722:	733b      	strb	r3, [r7, #12]
        status = BMS_WriteSingleDevice(hbms, slave_addr,
 8001724:	f107 030c 	add.w	r3, r7, #12
 8001728:	7bb9      	ldrb	r1, [r7, #14]
 800172a:	2201      	movs	r2, #1
 800172c:	9200      	str	r2, [sp, #0]
 800172e:	222f      	movs	r2, #47	@ 0x2f
 8001730:	6878      	ldr	r0, [r7, #4]
 8001732:	f7ff f9cb 	bl	8000acc <BMS_WriteSingleDevice>
 8001736:	4603      	mov	r3, r0
 8001738:	737b      	strb	r3, [r7, #13]
                                        REG_BAL_CTRL2, &data, 1U);
        if (status != BMS_OK) { return status; }
 800173a:	7b7b      	ldrb	r3, [r7, #13]
 800173c:	2b00      	cmp	r3, #0
 800173e:	d001      	beq.n	8001744 <BMS_ConfigureSlaves+0x11e>
 8001740:	7b7b      	ldrb	r3, [r7, #13]
 8001742:	e02f      	b.n	80017a4 <BMS_ConfigureSlaves+0x17e>

        /* --- Garantir balanceamento desligado ao arranque --- */
        {
            uint8_t zero[2U] = {0x00U, 0x00U};
 8001744:	2300      	movs	r3, #0
 8001746:	813b      	strh	r3, [r7, #8]
            status = BMS_WriteSingleDevice(hbms, slave_addr,
 8001748:	f107 0308 	add.w	r3, r7, #8
 800174c:	7bb9      	ldrb	r1, [r7, #14]
 800174e:	2202      	movs	r2, #2
 8001750:	9200      	str	r2, [sp, #0]
 8001752:	2230      	movs	r2, #48	@ 0x30
 8001754:	6878      	ldr	r0, [r7, #4]
 8001756:	f7ff f9b9 	bl	8000acc <BMS_WriteSingleDevice>
 800175a:	4603      	mov	r3, r0
 800175c:	737b      	strb	r3, [r7, #13]
                                            REG_CB_CELL1_CTRL, zero, 2U);
            if (status != BMS_OK) { return status; }
 800175e:	7b7b      	ldrb	r3, [r7, #13]
 8001760:	2b00      	cmp	r3, #0
 8001762:	d001      	beq.n	8001768 <BMS_ConfigureSlaves+0x142>
 8001764:	7b7b      	ldrb	r3, [r7, #13]
 8001766:	e01d      	b.n	80017a4 <BMS_ConfigureSlaves+0x17e>
        }

        /* --- Arrancar ADC em modo contínuo com LPF --- */
        /* MAIN_GO=1, MAIN_MODE=0b10, LPF_EN=1 -> 0x2E */
        data = ADC_CTRL1_CONTINUOUS_LPF;
 8001768:	232e      	movs	r3, #46	@ 0x2e
 800176a:	733b      	strb	r3, [r7, #12]
        status = BMS_WriteSingleDevice(hbms, slave_addr,
 800176c:	f107 030c 	add.w	r3, r7, #12
 8001770:	7bb9      	ldrb	r1, [r7, #14]
 8001772:	2201      	movs	r2, #1
 8001774:	9200      	str	r2, [sp, #0]
 8001776:	f240 320d 	movw	r2, #781	@ 0x30d
 800177a:	6878      	ldr	r0, [r7, #4]
 800177c:	f7ff f9a6 	bl	8000acc <BMS_WriteSingleDevice>
 8001780:	4603      	mov	r3, r0
 8001782:	737b      	strb	r3, [r7, #13]
                                        REG_ADC_CTRL1, &data, 1U);
        if (status != BMS_OK) { return status; }
 8001784:	7b7b      	ldrb	r3, [r7, #13]
 8001786:	2b00      	cmp	r3, #0
 8001788:	d001      	beq.n	800178e <BMS_ConfigureSlaves+0x168>
 800178a:	7b7b      	ldrb	r3, [r7, #13]
 800178c:	e00a      	b.n	80017a4 <BMS_ConfigureSlaves+0x17e>
    for (uint8_t s = 0U; s < BMS_NUM_SLAVES; s++)
 800178e:	7bfb      	ldrb	r3, [r7, #15]
 8001790:	3301      	adds	r3, #1
 8001792:	73fb      	strb	r3, [r7, #15]
 8001794:	7bfb      	ldrb	r3, [r7, #15]
 8001796:	2b01      	cmp	r3, #1
 8001798:	f67f af4c 	bls.w	8001634 <BMS_ConfigureSlaves+0xe>
    }

    BMS_DelayMs(DELAY_ADC_SETTLE_MS);  /* Aguardar estabilização ADC */
 800179c:	200a      	movs	r0, #10
 800179e:	f7ff f837 	bl	8000810 <BMS_DelayMs>
    return BMS_OK;
 80017a2:	2300      	movs	r3, #0
}
 80017a4:	4618      	mov	r0, r3
 80017a6:	3710      	adds	r7, #16
 80017a8:	46bd      	mov	sp, r7
 80017aa:	bd80      	pop	{r7, pc}

080017ac <BMS_Init>:
 * @param  htim     Handle Timer do HAL (para delays µs)
 * @return BMS_OK ou BMS_ERR_INIT_FAILED
 */
BMS_Status_t BMS_Init(BMS_Handle_t *hbms, UART_HandleTypeDef *huart,
                       TIM_HandleTypeDef *htim)
{
 80017ac:	b580      	push	{r7, lr}
 80017ae:	b086      	sub	sp, #24
 80017b0:	af00      	add	r7, sp, #0
 80017b2:	60f8      	str	r0, [r7, #12]
 80017b4:	60b9      	str	r1, [r7, #8]
 80017b6:	607a      	str	r2, [r7, #4]
    BMS_Status_t status;

    if ((hbms == NULL) || (huart == NULL))
 80017b8:	68fb      	ldr	r3, [r7, #12]
 80017ba:	2b00      	cmp	r3, #0
 80017bc:	d002      	beq.n	80017c4 <BMS_Init+0x18>
 80017be:	68bb      	ldr	r3, [r7, #8]
 80017c0:	2b00      	cmp	r3, #0
 80017c2:	d101      	bne.n	80017c8 <BMS_Init+0x1c>
    {
        return BMS_ERR_INVALID_PARAM;
 80017c4:	2304      	movs	r3, #4
 80017c6:	e049      	b.n	800185c <BMS_Init+0xb0>
    }

    /* Inicialização a zero da estrutura */
    memset(hbms, 0, sizeof(BMS_Handle_t));
 80017c8:	f44f 72f8 	mov.w	r2, #496	@ 0x1f0
 80017cc:	2100      	movs	r1, #0
 80017ce:	68f8      	ldr	r0, [r7, #12]
 80017d0:	f005 ff96 	bl	8007700 <memset>

    /* Atribuir handles HAL */
    hbms->huart        = huart;
 80017d4:	68fb      	ldr	r3, [r7, #12]
 80017d6:	68ba      	ldr	r2, [r7, #8]
 80017d8:	f8c3 20d0 	str.w	r2, [r3, #208]	@ 0xd0
    hbms->htim_delay   = htim;
 80017dc:	68fb      	ldr	r3, [r7, #12]
 80017de:	687a      	ldr	r2, [r7, #4]
 80017e0:	f8c3 20d4 	str.w	r2, [r3, #212]	@ 0xd4
    hbms->state        = BMS_STATE_INITIALIZING;
 80017e4:	68fb      	ldr	r3, [r7, #12]
 80017e6:	2201      	movs	r2, #1
 80017e8:	701a      	strb	r2, [r3, #0]
    hbms->ring_intact  = false;
 80017ea:	68fb      	ldr	r3, [r7, #12]
 80017ec:	2200      	movs	r2, #0
 80017ee:	721a      	strb	r2, [r3, #8]
    hbms->nfault_pending = 0U;
 80017f0:	68fb      	ldr	r3, [r7, #12]
 80017f2:	2200      	movs	r2, #0
 80017f4:	f8c3 2128 	str.w	r2, [r3, #296]	@ 0x128

    /* D9: Iniciar timer em modo free-running (counter runs indefinidamente).
     * BMS_DelayUs usa subtracção de contador, não Start/Stop por chamada.
     * Com TIM2 de 32 bits, ARR=0xFFFFFFFF e 1 µs/tick, wraparound a ~71 min. */
    if (hbms->htim_delay != NULL)
 80017f8:	68fb      	ldr	r3, [r7, #12]
 80017fa:	f8d3 30d4 	ldr.w	r3, [r3, #212]	@ 0xd4
 80017fe:	2b00      	cmp	r3, #0
 8001800:	d005      	beq.n	800180e <BMS_Init+0x62>
    {
        HAL_TIM_Base_Start(hbms->htim_delay);
 8001802:	68fb      	ldr	r3, [r7, #12]
 8001804:	f8d3 30d4 	ldr.w	r3, [r3, #212]	@ 0xd4
 8001808:	4618      	mov	r0, r3
 800180a:	f004 f9b9 	bl	8005b80 <HAL_TIM_Base_Start>
    }

    /* Regista ponteiro global para a ISR */
    g_hbms_irq = hbms;
 800180e:	4a15      	ldr	r2, [pc, #84]	@ (8001864 <BMS_Init+0xb8>)
 8001810:	68fb      	ldr	r3, [r7, #12]
 8001812:	6013      	str	r3, [r2, #0]

    /* Sequência de endereçamento automático */
    status = BMS_AutoAddressing(hbms);
 8001814:	68f8      	ldr	r0, [r7, #12]
 8001816:	f7ff fdad 	bl	8001374 <BMS_AutoAddressing>
 800181a:	4603      	mov	r3, r0
 800181c:	75fb      	strb	r3, [r7, #23]
    if (status != BMS_OK)
 800181e:	7dfb      	ldrb	r3, [r7, #23]
 8001820:	2b00      	cmp	r3, #0
 8001822:	d00a      	beq.n	800183a <BMS_Init+0x8e>
    {
        hbms->state = BMS_STATE_FAULT;
 8001824:	68fb      	ldr	r3, [r7, #12]
 8001826:	2205      	movs	r2, #5
 8001828:	701a      	strb	r2, [r3, #0]
        hbms->fault_flags |= BMS_FAULT_COMM;
 800182a:	68fb      	ldr	r3, [r7, #12]
 800182c:	685b      	ldr	r3, [r3, #4]
 800182e:	f043 0208 	orr.w	r2, r3, #8
 8001832:	68fb      	ldr	r3, [r7, #12]
 8001834:	605a      	str	r2, [r3, #4]
        return BMS_ERR_INIT_FAILED;
 8001836:	2306      	movs	r3, #6
 8001838:	e010      	b.n	800185c <BMS_Init+0xb0>
    }

    /* Configuração dos slaves (15S) */
    status = BMS_ConfigureSlaves(hbms);
 800183a:	68f8      	ldr	r0, [r7, #12]
 800183c:	f7ff fef3 	bl	8001626 <BMS_ConfigureSlaves>
 8001840:	4603      	mov	r3, r0
 8001842:	75fb      	strb	r3, [r7, #23]
    if (status != BMS_OK)
 8001844:	7dfb      	ldrb	r3, [r7, #23]
 8001846:	2b00      	cmp	r3, #0
 8001848:	d004      	beq.n	8001854 <BMS_Init+0xa8>
    {
        hbms->state = BMS_STATE_FAULT;
 800184a:	68fb      	ldr	r3, [r7, #12]
 800184c:	2205      	movs	r2, #5
 800184e:	701a      	strb	r2, [r3, #0]
        return BMS_ERR_INIT_FAILED;
 8001850:	2306      	movs	r3, #6
 8001852:	e003      	b.n	800185c <BMS_Init+0xb0>
    }

    hbms->state = BMS_STATE_MONITORING;
 8001854:	68fb      	ldr	r3, [r7, #12]
 8001856:	2203      	movs	r2, #3
 8001858:	701a      	strb	r2, [r3, #0]
    return BMS_OK;
 800185a:	2300      	movs	r3, #0
}
 800185c:	4618      	mov	r0, r3
 800185e:	3718      	adds	r7, #24
 8001860:	46bd      	mov	sp, r7
 8001862:	bd80      	pop	{r7, pc}
 8001864:	20000084 	.word	0x20000084

08001868 <BMS_SendShutdownPulse>:
 *  a consumir dezenas de mA — esgota a bateria auxiliar de 12V e causa
 *  descarga profunda do pack de HV. Este pulso coloca todos os ICs em
 *  low-power SHUTDOWN mode (consumo < 1 µA por IC).
 */
void BMS_SendShutdownPulse(BMS_Handle_t *hbms)
{
 8001868:	b580      	push	{r7, lr}
 800186a:	b088      	sub	sp, #32
 800186c:	af00      	add	r7, sp, #0
 800186e:	6078      	str	r0, [r7, #4]
    HAL_UART_DeInit(hbms->huart);
 8001870:	687b      	ldr	r3, [r7, #4]
 8001872:	f8d3 30d0 	ldr.w	r3, [r3, #208]	@ 0xd0
 8001876:	4618      	mov	r0, r3
 8001878:	f004 fe5a 	bl	8006530 <HAL_UART_DeInit>

    GPIO_InitTypeDef gpio_cfg = {0};
 800187c:	f107 030c 	add.w	r3, r7, #12
 8001880:	2200      	movs	r2, #0
 8001882:	601a      	str	r2, [r3, #0]
 8001884:	605a      	str	r2, [r3, #4]
 8001886:	609a      	str	r2, [r3, #8]
 8001888:	60da      	str	r2, [r3, #12]
 800188a:	611a      	str	r2, [r3, #16]
    gpio_cfg.Pin = BMS_BRIDGE_TX_PIN;          /* PA0 = UART4_TX */
 800188c:	2301      	movs	r3, #1
 800188e:	60fb      	str	r3, [r7, #12]
    gpio_cfg.Mode  = GPIO_MODE_OUTPUT_PP;
 8001890:	2301      	movs	r3, #1
 8001892:	613b      	str	r3, [r7, #16]
    gpio_cfg.Pull  = GPIO_NOPULL;
 8001894:	2300      	movs	r3, #0
 8001896:	617b      	str	r3, [r7, #20]
    gpio_cfg.Speed = GPIO_SPEED_FREQ_LOW;
 8001898:	2300      	movs	r3, #0
 800189a:	61bb      	str	r3, [r7, #24]
    HAL_GPIO_Init(BMS_BRIDGE_TX_PORT, &gpio_cfg);
 800189c:	f107 030c 	add.w	r3, r7, #12
 80018a0:	4619      	mov	r1, r3
 80018a2:	480f      	ldr	r0, [pc, #60]	@ (80018e0 <BMS_SendShutdownPulse+0x78>)
 80018a4:	f003 f860 	bl	8004968 <HAL_GPIO_Init>

    HAL_GPIO_WritePin(BMS_BRIDGE_TX_PORT, BMS_BRIDGE_TX_PIN, GPIO_PIN_RESET);  /* LOW */
 80018a8:	2200      	movs	r2, #0
 80018aa:	2101      	movs	r1, #1
 80018ac:	480c      	ldr	r0, [pc, #48]	@ (80018e0 <BMS_SendShutdownPulse+0x78>)
 80018ae:	f003 fafb 	bl	8004ea8 <HAL_GPIO_WritePin>
    BMS_DelayUs(hbms, DELAY_SHUTDOWN_PULSE_US);             /* 9 000 µs */
 80018b2:	f242 3128 	movw	r1, #9000	@ 0x2328
 80018b6:	6878      	ldr	r0, [r7, #4]
 80018b8:	f7fe ffb5 	bl	8000826 <BMS_DelayUs>
    HAL_GPIO_WritePin(BMS_BRIDGE_TX_PORT, BMS_BRIDGE_TX_PIN, GPIO_PIN_SET);    /* HIGH */
 80018bc:	2201      	movs	r2, #1
 80018be:	2101      	movs	r1, #1
 80018c0:	4807      	ldr	r0, [pc, #28]	@ (80018e0 <BMS_SendShutdownPulse+0x78>)
 80018c2:	f003 faf1 	bl	8004ea8 <HAL_GPIO_WritePin>

    HAL_UART_Init(hbms->huart);
 80018c6:	687b      	ldr	r3, [r7, #4]
 80018c8:	f8d3 30d0 	ldr.w	r3, [r3, #208]	@ 0xd0
 80018cc:	4618      	mov	r0, r3
 80018ce:	f004 fddf 	bl	8006490 <HAL_UART_Init>
    hbms->state = BMS_STATE_SLEEP;
 80018d2:	687b      	ldr	r3, [r7, #4]
 80018d4:	2207      	movs	r2, #7
 80018d6:	701a      	strb	r2, [r3, #0]
}
 80018d8:	bf00      	nop
 80018da:	3720      	adds	r7, #32
 80018dc:	46bd      	mov	sp, r7
 80018de:	bd80      	pop	{r7, pc}
 80018e0:	40020000 	.word	0x40020000

080018e4 <BMS_EnterSleep>:
/**
 * @brief  Sequência completa de entrada em Sleep
 *         Para balanceamento → abre contactor → aguarda → pulso shutdown
 */
void BMS_EnterSleep(BMS_Handle_t *hbms)
{
 80018e4:	b580      	push	{r7, lr}
 80018e6:	b082      	sub	sp, #8
 80018e8:	af00      	add	r7, sp, #0
 80018ea:	6078      	str	r0, [r7, #4]
    /* 1. Parar balanceamento imediatamente */
    (void)BMS_StopAllBalancing(hbms);
 80018ec:	6878      	ldr	r0, [r7, #4]
 80018ee:	f001 f82a 	bl	8002946 <BMS_StopAllBalancing>

    /* 2. Abrir contactor de potência */
    BMS_ContactorOpen(hbms);
 80018f2:	6878      	ldr	r0, [r7, #4]
 80018f4:	f000 fe64 	bl	80025c0 <BMS_ContactorOpen>
    BMS_DelayMs(DELAY_SLEEP_CONTACTOR_MS);  /* Aguardar abertura mecânica */
 80018f8:	2064      	movs	r0, #100	@ 0x64
 80018fa:	f7fe ff89 	bl	8000810 <BMS_DelayMs>

    /* 3. Enviar pulso de shutdown para todos os ICs */
    BMS_SendShutdownPulse(hbms);
 80018fe:	6878      	ldr	r0, [r7, #4]
 8001900:	f7ff ffb2 	bl	8001868 <BMS_SendShutdownPulse>
    /* state = BMS_STATE_SLEEP (set em BMS_SendShutdownPulse) */
}
 8001904:	bf00      	nop
 8001906:	3708      	adds	r7, #8
 8001908:	46bd      	mov	sp, r7
 800190a:	bd80      	pop	{r7, pc}

0800190c <BMS_IWDG_Init>:
 * Configuração: PSC=64 → tick=2ms, RLR=250 → timeout≈500ms.
 * Refresh obrigatório em CADA iteração do super-loop (100 ms cadência).
 * 5 ciclos de margem antes do reset. */

void BMS_IWDG_Init(void)
{
 800190c:	b580      	push	{r7, lr}
 800190e:	b084      	sub	sp, #16
 8001910:	af00      	add	r7, sp, #0
    IWDG_HandleTypeDef hiwdg = {0};
 8001912:	1d3b      	adds	r3, r7, #4
 8001914:	2200      	movs	r2, #0
 8001916:	601a      	str	r2, [r3, #0]
 8001918:	605a      	str	r2, [r3, #4]
 800191a:	609a      	str	r2, [r3, #8]
    hiwdg.Instance       = IWDG;
 800191c:	4b06      	ldr	r3, [pc, #24]	@ (8001938 <BMS_IWDG_Init+0x2c>)
 800191e:	607b      	str	r3, [r7, #4]
    hiwdg.Init.Prescaler = BMS_IWDG_PRESCALER;   /* IWDG_PRESCALER_64 */
 8001920:	2304      	movs	r3, #4
 8001922:	60bb      	str	r3, [r7, #8]
    hiwdg.Init.Reload    = BMS_IWDG_RELOAD;       /* 250 → ~500 ms */
 8001924:	23fa      	movs	r3, #250	@ 0xfa
 8001926:	60fb      	str	r3, [r7, #12]
    (void)HAL_IWDG_Init(&hiwdg);
 8001928:	1d3b      	adds	r3, r7, #4
 800192a:	4618      	mov	r0, r3
 800192c:	f003 faef 	bl	8004f0e <HAL_IWDG_Init>
    /* A partir deste ponto, HAL_IWDG_Refresh DEVE ser chamado a cada <500ms */
}
 8001930:	bf00      	nop
 8001932:	3710      	adds	r7, #16
 8001934:	46bd      	mov	sp, r7
 8001936:	bd80      	pop	{r7, pc}
 8001938:	40003000 	.word	0x40003000

0800193c <BMS_IWDG_Refresh>:

void BMS_IWDG_Refresh(void)
{
 800193c:	b580      	push	{r7, lr}
 800193e:	b084      	sub	sp, #16
 8001940:	af00      	add	r7, sp, #0
    IWDG_HandleTypeDef hiwdg = {0};
 8001942:	1d3b      	adds	r3, r7, #4
 8001944:	2200      	movs	r2, #0
 8001946:	601a      	str	r2, [r3, #0]
 8001948:	605a      	str	r2, [r3, #4]
 800194a:	609a      	str	r2, [r3, #8]
    hiwdg.Instance = IWDG;
 800194c:	4b04      	ldr	r3, [pc, #16]	@ (8001960 <BMS_IWDG_Refresh+0x24>)
 800194e:	607b      	str	r3, [r7, #4]
    (void)HAL_IWDG_Refresh(&hiwdg);
 8001950:	1d3b      	adds	r3, r7, #4
 8001952:	4618      	mov	r0, r3
 8001954:	f003 fb1f 	bl	8004f96 <HAL_IWDG_Refresh>
}
 8001958:	bf00      	nop
 800195a:	3710      	adds	r7, #16
 800195c:	46bd      	mov	sp, r7
 800195e:	bd80      	pop	{r7, pc}
 8001960:	40003000 	.word	0x40003000

08001964 <BMS_CommClear>:
 *
 * Este procedimento é descrito na datasheet do BQ79600-Q1 como obrigatório
 * após qualquer timeout de comunicação (secção "COMM CLEAR"). */

void BMS_CommClear(BMS_Handle_t *hbms)
{
 8001964:	b580      	push	{r7, lr}
 8001966:	b088      	sub	sp, #32
 8001968:	af00      	add	r7, sp, #0
 800196a:	6078      	str	r0, [r7, #4]
    /* Desinicializar UART para controlo GPIO directo */
    HAL_UART_DeInit(hbms->huart);
 800196c:	687b      	ldr	r3, [r7, #4]
 800196e:	f8d3 30d0 	ldr.w	r3, [r3, #208]	@ 0xd0
 8001972:	4618      	mov	r0, r3
 8001974:	f004 fddc 	bl	8006530 <HAL_UART_DeInit>

    GPIO_InitTypeDef gpio_cfg = {0};
 8001978:	f107 030c 	add.w	r3, r7, #12
 800197c:	2200      	movs	r2, #0
 800197e:	601a      	str	r2, [r3, #0]
 8001980:	605a      	str	r2, [r3, #4]
 8001982:	609a      	str	r2, [r3, #8]
 8001984:	60da      	str	r2, [r3, #12]
 8001986:	611a      	str	r2, [r3, #16]
    gpio_cfg.Pin = BMS_BRIDGE_TX_PIN;   /* PA0 = UART4_TX */
 8001988:	2301      	movs	r3, #1
 800198a:	60fb      	str	r3, [r7, #12]
    gpio_cfg.Mode  = GPIO_MODE_OUTPUT_PP;
 800198c:	2301      	movs	r3, #1
 800198e:	613b      	str	r3, [r7, #16]
    gpio_cfg.Pull  = GPIO_NOPULL;
 8001990:	2300      	movs	r3, #0
 8001992:	617b      	str	r3, [r7, #20]
    gpio_cfg.Speed = GPIO_SPEED_FREQ_HIGH;
 8001994:	2302      	movs	r3, #2
 8001996:	61bb      	str	r3, [r7, #24]
    HAL_GPIO_Init(BMS_BRIDGE_TX_PORT, &gpio_cfg);
 8001998:	f107 030c 	add.w	r3, r7, #12
 800199c:	4619      	mov	r1, r3
 800199e:	480f      	ldr	r0, [pc, #60]	@ (80019dc <BMS_CommClear+0x78>)
 80019a0:	f002 ffe2 	bl	8004968 <HAL_GPIO_Init>

    /* Forçar TX a LOW por 18 períodos de bit = 18 µs @ 1 Mbps */
    HAL_GPIO_WritePin(BMS_BRIDGE_TX_PORT, BMS_BRIDGE_TX_PIN, GPIO_PIN_RESET);
 80019a4:	2200      	movs	r2, #0
 80019a6:	2101      	movs	r1, #1
 80019a8:	480c      	ldr	r0, [pc, #48]	@ (80019dc <BMS_CommClear+0x78>)
 80019aa:	f003 fa7d 	bl	8004ea8 <HAL_GPIO_WritePin>
    BMS_DelayUs(hbms, BMS_COMM_CLEAR_BITS);   /* 18 µs */
 80019ae:	2112      	movs	r1, #18
 80019b0:	6878      	ldr	r0, [r7, #4]
 80019b2:	f7fe ff38 	bl	8000826 <BMS_DelayUs>
    HAL_GPIO_WritePin(BMS_BRIDGE_TX_PORT, BMS_BRIDGE_TX_PIN, GPIO_PIN_SET);
 80019b6:	2201      	movs	r2, #1
 80019b8:	2101      	movs	r1, #1
 80019ba:	4808      	ldr	r0, [pc, #32]	@ (80019dc <BMS_CommClear+0x78>)
 80019bc:	f003 fa74 	bl	8004ea8 <HAL_GPIO_WritePin>

    /* Reinicializar UART */
    HAL_UART_Init(hbms->huart);
 80019c0:	687b      	ldr	r3, [r7, #4]
 80019c2:	f8d3 30d0 	ldr.w	r3, [r3, #208]	@ 0xd0
 80019c6:	4618      	mov	r0, r3
 80019c8:	f004 fd62 	bl	8006490 <HAL_UART_Init>
    BMS_DelayUs(hbms, 50U);  /* Estabilização pós-UART init */
 80019cc:	2132      	movs	r1, #50	@ 0x32
 80019ce:	6878      	ldr	r0, [r7, #4]
 80019d0:	f7fe ff29 	bl	8000826 <BMS_DelayUs>
}
 80019d4:	bf00      	nop
 80019d6:	3720      	adds	r7, #32
 80019d8:	46bd      	mov	sp, r7
 80019da:	bd80      	pop	{r7, pc}
 80019dc:	40020000 	.word	0x40020000

080019e0 <BMS_CheckContactorWeld>:
 * Três ciclos consecutivos com leitura HIGH → soldadura confirmada.
 * Uma leitura LOW reinicia o contador — debounce natural pelo período
 * do superloop (100 ms >> tempo de bounce mecânico de ~2 ms). */

bool BMS_CheckContactorWeld(void)
{
 80019e0:	b580      	push	{r7, lr}
 80019e2:	af00      	add	r7, sp, #0
    /* Variável estática: persiste entre chamadas — conta ciclos consecutivos */
    static uint8_t consecutive_high = 0U;

    if (HAL_GPIO_ReadPin(CONTACTOR_WELD_PORT, CONTACTOR_WELD_PIN) == GPIO_PIN_SET)
 80019e4:	f44f 4100 	mov.w	r1, #32768	@ 0x8000
 80019e8:	480e      	ldr	r0, [pc, #56]	@ (8001a24 <BMS_CheckContactorWeld+0x44>)
 80019ea:	f003 fa45 	bl	8004e78 <HAL_GPIO_ReadPin>
 80019ee:	4603      	mov	r3, r0
 80019f0:	2b01      	cmp	r3, #1
 80019f2:	d10a      	bne.n	8001a0a <BMS_CheckContactorWeld+0x2a>
    {
        if (consecutive_high < 255U) { consecutive_high++; }
 80019f4:	4b0c      	ldr	r3, [pc, #48]	@ (8001a28 <BMS_CheckContactorWeld+0x48>)
 80019f6:	781b      	ldrb	r3, [r3, #0]
 80019f8:	2bff      	cmp	r3, #255	@ 0xff
 80019fa:	d009      	beq.n	8001a10 <BMS_CheckContactorWeld+0x30>
 80019fc:	4b0a      	ldr	r3, [pc, #40]	@ (8001a28 <BMS_CheckContactorWeld+0x48>)
 80019fe:	781b      	ldrb	r3, [r3, #0]
 8001a00:	3301      	adds	r3, #1
 8001a02:	b2da      	uxtb	r2, r3
 8001a04:	4b08      	ldr	r3, [pc, #32]	@ (8001a28 <BMS_CheckContactorWeld+0x48>)
 8001a06:	701a      	strb	r2, [r3, #0]
 8001a08:	e002      	b.n	8001a10 <BMS_CheckContactorWeld+0x30>
    }
    else
    {
        consecutive_high = 0U;   /* Reset: pin LOW → contactor abriu correctamente */
 8001a0a:	4b07      	ldr	r3, [pc, #28]	@ (8001a28 <BMS_CheckContactorWeld+0x48>)
 8001a0c:	2200      	movs	r2, #0
 8001a0e:	701a      	strb	r2, [r3, #0]
    }

    /* Maioria 3/3: três ciclos consecutivos (300 ms) com pin HIGH → weld */
    return (consecutive_high >= 3U);
 8001a10:	4b05      	ldr	r3, [pc, #20]	@ (8001a28 <BMS_CheckContactorWeld+0x48>)
 8001a12:	781b      	ldrb	r3, [r3, #0]
 8001a14:	2b02      	cmp	r3, #2
 8001a16:	bf8c      	ite	hi
 8001a18:	2301      	movhi	r3, #1
 8001a1a:	2300      	movls	r3, #0
 8001a1c:	b2db      	uxtb	r3, r3
}
 8001a1e:	4618      	mov	r0, r3
 8001a20:	bd80      	pop	{r7, pc}
 8001a22:	bf00      	nop
 8001a24:	40020400 	.word	0x40020400
 8001a28:	20000088 	.word	0x20000088

08001a2c <BMS_PowerOnSelfTest>:
 * NÃO transita para MONITORING — permanece em FAULT até resolução.
 *
 * Referência: ISO 26262 Part 5 — Hardware Design Verification */

BMS_Status_t BMS_PowerOnSelfTest(BMS_Handle_t *hbms)
{
 8001a2c:	b580      	push	{r7, lr}
 8001a2e:	b08a      	sub	sp, #40	@ 0x28
 8001a30:	af02      	add	r7, sp, #8
 8001a32:	6078      	str	r0, [r7, #4]
     * TESTE 1: Integridade do algoritmo CRC
     * Verifica o vector padrão "123456789" → 0x4B37 (CRC-16/MODBUS)
     * Se falhar, corrupção de código/RAM — MCU comprometido.
     * --------------------------------------------------------------- */
    {
        uint8_t crc_test[] = {'1','2','3','4','5','6','7','8','9'};
 8001a34:	4a4c      	ldr	r2, [pc, #304]	@ (8001b68 <BMS_PowerOnSelfTest+0x13c>)
 8001a36:	f107 0308 	add.w	r3, r7, #8
 8001a3a:	ca07      	ldmia	r2, {r0, r1, r2}
 8001a3c:	c303      	stmia	r3!, {r0, r1}
 8001a3e:	701a      	strb	r2, [r3, #0]
        uint16_t crc = BMS_CalculateCRC16(crc_test, 9U);
 8001a40:	f107 0308 	add.w	r3, r7, #8
 8001a44:	2109      	movs	r1, #9
 8001a46:	4618      	mov	r0, r3
 8001a48:	f7fe ff1c 	bl	8000884 <BMS_CalculateCRC16>
 8001a4c:	4603      	mov	r3, r0
 8001a4e:	837b      	strh	r3, [r7, #26]
        if (crc != 0x4B37U)
 8001a50:	8b7b      	ldrh	r3, [r7, #26]
 8001a52:	f644 3237 	movw	r2, #19255	@ 0x4b37
 8001a56:	4293      	cmp	r3, r2
 8001a58:	d007      	beq.n	8001a6a <BMS_PowerOnSelfTest+0x3e>
        {
            hbms->fault_flags |= BMS_FAULT_CRC;
 8001a5a:	687b      	ldr	r3, [r7, #4]
 8001a5c:	685b      	ldr	r3, [r3, #4]
 8001a5e:	f043 0280 	orr.w	r2, r3, #128	@ 0x80
 8001a62:	687b      	ldr	r3, [r7, #4]
 8001a64:	605a      	str	r2, [r3, #4]
            return BMS_ERR_INIT_FAILED;
 8001a66:	2306      	movs	r3, #6
 8001a68:	e07a      	b.n	8001b60 <BMS_PowerOnSelfTest+0x134>
    /* ---------------------------------------------------------------
     * TESTE 2: Comunicação com cada slave (lê ACTIVE_CELL)
     * Valor esperado: 0x0F (15 células, configurado em BMS_ConfigureSlaves)
     * Se falhar: slave inacessível, cabo partido, ou IC danificado.
     * --------------------------------------------------------------- */
    for (uint8_t s = 0U; s < BMS_NUM_SLAVES; s++)
 8001a6a:	2300      	movs	r3, #0
 8001a6c:	77fb      	strb	r3, [r7, #31]
 8001a6e:	e02a      	b.n	8001ac6 <BMS_PowerOnSelfTest+0x9a>
    {
        status = BMS_ReadSingleDevice(hbms, hbms->slave[s].address,
 8001a70:	7ffb      	ldrb	r3, [r7, #31]
 8001a72:	687a      	ldr	r2, [r7, #4]
 8001a74:	2154      	movs	r1, #84	@ 0x54
 8001a76:	fb01 f303 	mul.w	r3, r1, r3
 8001a7a:	4413      	add	r3, r2
 8001a7c:	330c      	adds	r3, #12
 8001a7e:	7819      	ldrb	r1, [r3, #0]
 8001a80:	f107 0314 	add.w	r3, r7, #20
 8001a84:	2201      	movs	r2, #1
 8001a86:	9200      	str	r2, [sp, #0]
 8001a88:	2203      	movs	r2, #3
 8001a8a:	6878      	ldr	r0, [r7, #4]
 8001a8c:	f7ff f8c6 	bl	8000c1c <BMS_ReadSingleDevice>
 8001a90:	4603      	mov	r3, r0
 8001a92:	767b      	strb	r3, [r7, #25]
                                       REG_ACTIVE_CELL, test_buf, 1U);
        if (status != BMS_OK)
 8001a94:	7e7b      	ldrb	r3, [r7, #25]
 8001a96:	2b00      	cmp	r3, #0
 8001a98:	d007      	beq.n	8001aaa <BMS_PowerOnSelfTest+0x7e>
        {
            hbms->fault_flags |= BMS_FAULT_COMM;
 8001a9a:	687b      	ldr	r3, [r7, #4]
 8001a9c:	685b      	ldr	r3, [r3, #4]
 8001a9e:	f043 0208 	orr.w	r2, r3, #8
 8001aa2:	687b      	ldr	r3, [r7, #4]
 8001aa4:	605a      	str	r2, [r3, #4]
            return BMS_ERR_INIT_FAILED;
 8001aa6:	2306      	movs	r3, #6
 8001aa8:	e05a      	b.n	8001b60 <BMS_PowerOnSelfTest+0x134>
        }
        if (test_buf[0] != ACTIVE_CELL_15S)
 8001aaa:	7d3b      	ldrb	r3, [r7, #20]
 8001aac:	2b0f      	cmp	r3, #15
 8001aae:	d007      	beq.n	8001ac0 <BMS_PowerOnSelfTest+0x94>
        {
            /* Registo não corresponde à configuração — IC não inicializado */
            hbms->fault_flags |= BMS_FAULT_COMM;
 8001ab0:	687b      	ldr	r3, [r7, #4]
 8001ab2:	685b      	ldr	r3, [r3, #4]
 8001ab4:	f043 0208 	orr.w	r2, r3, #8
 8001ab8:	687b      	ldr	r3, [r7, #4]
 8001aba:	605a      	str	r2, [r3, #4]
            return BMS_ERR_INIT_FAILED;
 8001abc:	2306      	movs	r3, #6
 8001abe:	e04f      	b.n	8001b60 <BMS_PowerOnSelfTest+0x134>
    for (uint8_t s = 0U; s < BMS_NUM_SLAVES; s++)
 8001ac0:	7ffb      	ldrb	r3, [r7, #31]
 8001ac2:	3301      	adds	r3, #1
 8001ac4:	77fb      	strb	r3, [r7, #31]
 8001ac6:	7ffb      	ldrb	r3, [r7, #31]
 8001ac8:	2b01      	cmp	r3, #1
 8001aca:	d9d1      	bls.n	8001a70 <BMS_PowerOnSelfTest+0x44>
    /* ---------------------------------------------------------------
     * TESTE 3: Sanidade do ADC (tensões celulares no range físico)
     * Cada célula LiIon deve estar entre 1000 mV e 4500 mV.
     * Fora deste range: sensor desligado, open wire, ou ADC danificado.
     * --------------------------------------------------------------- */
    status = BMS_ReadAllCellVoltages(hbms);
 8001acc:	6878      	ldr	r0, [r7, #4]
 8001ace:	f000 f8e2 	bl	8001c96 <BMS_ReadAllCellVoltages>
 8001ad2:	4603      	mov	r3, r0
 8001ad4:	767b      	strb	r3, [r7, #25]
    if (status != BMS_OK)
 8001ad6:	7e7b      	ldrb	r3, [r7, #25]
 8001ad8:	2b00      	cmp	r3, #0
 8001ada:	d001      	beq.n	8001ae0 <BMS_PowerOnSelfTest+0xb4>
    {
        return BMS_ERR_INIT_FAILED;
 8001adc:	2306      	movs	r3, #6
 8001ade:	e03f      	b.n	8001b60 <BMS_PowerOnSelfTest+0x134>
    }
    for (uint8_t s = 0U; s < BMS_NUM_SLAVES; s++)
 8001ae0:	2300      	movs	r3, #0
 8001ae2:	77bb      	strb	r3, [r7, #30]
 8001ae4:	e028      	b.n	8001b38 <BMS_PowerOnSelfTest+0x10c>
    {
        for (uint8_t c = 0U; c < BMS_CELLS_PER_SLAVE; c++)
 8001ae6:	2300      	movs	r3, #0
 8001ae8:	777b      	strb	r3, [r7, #29]
 8001aea:	e01f      	b.n	8001b2c <BMS_PowerOnSelfTest+0x100>
        {
            uint16_t mv = hbms->slave[s].cell_voltage_mv[c];
 8001aec:	7fb9      	ldrb	r1, [r7, #30]
 8001aee:	7f7b      	ldrb	r3, [r7, #29]
 8001af0:	687a      	ldr	r2, [r7, #4]
 8001af2:	202a      	movs	r0, #42	@ 0x2a
 8001af4:	fb00 f101 	mul.w	r1, r0, r1
 8001af8:	440b      	add	r3, r1
 8001afa:	3304      	adds	r3, #4
 8001afc:	005b      	lsls	r3, r3, #1
 8001afe:	4413      	add	r3, r2
 8001b00:	88db      	ldrh	r3, [r3, #6]
 8001b02:	82fb      	strh	r3, [r7, #22]
            if ((mv < 1000U) || (mv > 4500U))
 8001b04:	8afb      	ldrh	r3, [r7, #22]
 8001b06:	f5b3 7f7a 	cmp.w	r3, #1000	@ 0x3e8
 8001b0a:	d304      	bcc.n	8001b16 <BMS_PowerOnSelfTest+0xea>
 8001b0c:	8afb      	ldrh	r3, [r7, #22]
 8001b0e:	f241 1294 	movw	r2, #4500	@ 0x1194
 8001b12:	4293      	cmp	r3, r2
 8001b14:	d907      	bls.n	8001b26 <BMS_PowerOnSelfTest+0xfa>
            {
                hbms->fault_flags |= BMS_FAULT_OPEN_WIRE;
 8001b16:	687b      	ldr	r3, [r7, #4]
 8001b18:	685b      	ldr	r3, [r3, #4]
 8001b1a:	f043 0220 	orr.w	r2, r3, #32
 8001b1e:	687b      	ldr	r3, [r7, #4]
 8001b20:	605a      	str	r2, [r3, #4]
                return BMS_ERR_INIT_FAILED;
 8001b22:	2306      	movs	r3, #6
 8001b24:	e01c      	b.n	8001b60 <BMS_PowerOnSelfTest+0x134>
        for (uint8_t c = 0U; c < BMS_CELLS_PER_SLAVE; c++)
 8001b26:	7f7b      	ldrb	r3, [r7, #29]
 8001b28:	3301      	adds	r3, #1
 8001b2a:	777b      	strb	r3, [r7, #29]
 8001b2c:	7f7b      	ldrb	r3, [r7, #29]
 8001b2e:	2b0e      	cmp	r3, #14
 8001b30:	d9dc      	bls.n	8001aec <BMS_PowerOnSelfTest+0xc0>
    for (uint8_t s = 0U; s < BMS_NUM_SLAVES; s++)
 8001b32:	7fbb      	ldrb	r3, [r7, #30]
 8001b34:	3301      	adds	r3, #1
 8001b36:	77bb      	strb	r3, [r7, #30]
 8001b38:	7fbb      	ldrb	r3, [r7, #30]
 8001b3a:	2b01      	cmp	r3, #1
 8001b3c:	d9d3      	bls.n	8001ae6 <BMS_PowerOnSelfTest+0xba>
    /* ---------------------------------------------------------------
     * TESTE 4: NFAULT deve estar HIGH (sem faults residuais)
     * Após limpeza dos latches em BMS_AutoAddressing, o pin deve estar
     * desassertado. Se LOW: IC com fault permanente ou hardware danificado.
     * --------------------------------------------------------------- */
    if (__atomic_load_n(&hbms->nfault_pending, __ATOMIC_SEQ_CST) != 0U)
 8001b3e:	687b      	ldr	r3, [r7, #4]
 8001b40:	f503 7394 	add.w	r3, r3, #296	@ 0x128
 8001b44:	f3bf 8f5b 	dmb	ish
 8001b48:	681b      	ldr	r3, [r3, #0]
 8001b4a:	f3bf 8f5b 	dmb	ish
 8001b4e:	2b00      	cmp	r3, #0
 8001b50:	d001      	beq.n	8001b56 <BMS_PowerOnSelfTest+0x12a>
    {
        return BMS_ERR_FAULT_ACTIVE;
 8001b52:	2305      	movs	r3, #5
 8001b54:	e004      	b.n	8001b60 <BMS_PowerOnSelfTest+0x134>
    }

    hbms->post_passed = true;
 8001b56:	687b      	ldr	r3, [r7, #4]
 8001b58:	2201      	movs	r2, #1
 8001b5a:	f883 2124 	strb.w	r2, [r3, #292]	@ 0x124
    return BMS_OK;
 8001b5e:	2300      	movs	r3, #0
}
 8001b60:	4618      	mov	r0, r3
 8001b62:	3720      	adds	r7, #32
 8001b64:	46bd      	mov	sp, r7
 8001b66:	bd80      	pop	{r7, pc}
 8001b68:	0800821c 	.word	0x0800821c

08001b6c <BMS_RawToMillivolts>:
 * @param  hi_byte  Byte alto do registo VCx_HI
 * @param  lo_byte  Byte baixo do registo VCx_LO
 * @return Tensão em mV
 */
static inline uint16_t BMS_RawToMillivolts(uint8_t hi_byte, uint8_t lo_byte)
{
 8001b6c:	b480      	push	{r7}
 8001b6e:	b085      	sub	sp, #20
 8001b70:	af00      	add	r7, sp, #0
 8001b72:	4603      	mov	r3, r0
 8001b74:	460a      	mov	r2, r1
 8001b76:	71fb      	strb	r3, [r7, #7]
 8001b78:	4613      	mov	r3, r2
 8001b7a:	71bb      	strb	r3, [r7, #6]
    uint16_t raw = ((uint16_t)hi_byte << 8U) | (uint16_t)lo_byte;
 8001b7c:	79fb      	ldrb	r3, [r7, #7]
 8001b7e:	b21b      	sxth	r3, r3
 8001b80:	021b      	lsls	r3, r3, #8
 8001b82:	b21a      	sxth	r2, r3
 8001b84:	79bb      	ldrb	r3, [r7, #6]
 8001b86:	b21b      	sxth	r3, r3
 8001b88:	4313      	orrs	r3, r2
 8001b8a:	b21b      	sxth	r3, r3
 8001b8c:	81fb      	strh	r3, [r7, #14]
    /* 190.73 µV/LSB -> (raw * 1907) / 10000
     * Usa aritmética de 32 bits para evitar overflow (max raw=65535):
     * 65535 * 1907 = 124,985,285 -> dentro de uint32_t (max 4,294,967,295) */
    return (uint16_t)(((uint32_t)raw * 1907UL) / 10000UL);
 8001b8e:	89fb      	ldrh	r3, [r7, #14]
 8001b90:	f240 7273 	movw	r2, #1907	@ 0x773
 8001b94:	fb02 f303 	mul.w	r3, r2, r3
 8001b98:	4a05      	ldr	r2, [pc, #20]	@ (8001bb0 <BMS_RawToMillivolts+0x44>)
 8001b9a:	fba2 2303 	umull	r2, r3, r2, r3
 8001b9e:	0b5b      	lsrs	r3, r3, #13
 8001ba0:	b29b      	uxth	r3, r3
}
 8001ba2:	4618      	mov	r0, r3
 8001ba4:	3714      	adds	r7, #20
 8001ba6:	46bd      	mov	sp, r7
 8001ba8:	f85d 7b04 	ldr.w	r7, [sp], #4
 8001bac:	4770      	bx	lr
 8001bae:	bf00      	nop
 8001bb0:	d1b71759 	.word	0xd1b71759

08001bb4 <BMS_ReadSlaveVoltages>:
 * @param  hbms         Handle do BMS
 * @param  slave_idx    Índice do slave (0 ou 1)
 * @return BMS_OK ou código de erro
 */
static BMS_Status_t BMS_ReadSlaveVoltages(BMS_Handle_t *hbms, uint8_t slave_idx)
{
 8001bb4:	b5b0      	push	{r4, r5, r7, lr}
 8001bb6:	b08e      	sub	sp, #56	@ 0x38
 8001bb8:	af02      	add	r7, sp, #8
 8001bba:	6078      	str	r0, [r7, #4]
 8001bbc:	460b      	mov	r3, r1
 8001bbe:	70fb      	strb	r3, [r7, #3]
    uint8_t      rx_buf[BMS_VCELL_READ_BYTES];  /* 30 bytes */
    BMS_Status_t status;
    uint8_t      slave_addr = hbms->slave[slave_idx].address;
 8001bc0:	78fb      	ldrb	r3, [r7, #3]
 8001bc2:	687a      	ldr	r2, [r7, #4]
 8001bc4:	2154      	movs	r1, #84	@ 0x54
 8001bc6:	fb01 f303 	mul.w	r3, r1, r3
 8001bca:	4413      	add	r3, r2
 8001bcc:	330c      	adds	r3, #12
 8001bce:	781b      	ldrb	r3, [r3, #0]
 8001bd0:	f887 302e 	strb.w	r3, [r7, #46]	@ 0x2e

    /* Lê 30 bytes contíguos a partir de VCELL15_HI (0x056A)
     * Cobre células 15 (topo activo) descendo até célula 1 (base).
     * VCELL16 em 0x0568 é omitido pois está fisicamente curto-circuitado a VC15. */
    status = BMS_ReadSingleDevice(hbms, slave_addr,
 8001bd4:	f107 030c 	add.w	r3, r7, #12
 8001bd8:	f897 102e 	ldrb.w	r1, [r7, #46]	@ 0x2e
 8001bdc:	221e      	movs	r2, #30
 8001bde:	9200      	str	r2, [sp, #0]
 8001be0:	f240 526a 	movw	r2, #1386	@ 0x56a
 8001be4:	6878      	ldr	r0, [r7, #4]
 8001be6:	f7ff f819 	bl	8000c1c <BMS_ReadSingleDevice>
 8001bea:	4603      	mov	r3, r0
 8001bec:	f887 302d 	strb.w	r3, [r7, #45]	@ 0x2d
                                   REG_VCELL15_HI, rx_buf,
                                   (uint8_t)BMS_VCELL_READ_BYTES);
    if (status != BMS_OK)
 8001bf0:	f897 302d 	ldrb.w	r3, [r7, #45]	@ 0x2d
 8001bf4:	2b00      	cmp	r3, #0
 8001bf6:	d00b      	beq.n	8001c10 <BMS_ReadSlaveVoltages+0x5c>
    {
        hbms->slave[slave_idx].comm_ok = false;
 8001bf8:	78fb      	ldrb	r3, [r7, #3]
 8001bfa:	687a      	ldr	r2, [r7, #4]
 8001bfc:	2154      	movs	r1, #84	@ 0x54
 8001bfe:	fb01 f303 	mul.w	r3, r1, r3
 8001c02:	4413      	add	r3, r2
 8001c04:	335a      	adds	r3, #90	@ 0x5a
 8001c06:	2200      	movs	r2, #0
 8001c08:	701a      	strb	r2, [r3, #0]
        return status;
 8001c0a:	f897 302d 	ldrb.w	r3, [r7, #45]	@ 0x2d
 8001c0e:	e03e      	b.n	8001c8e <BMS_ReadSlaveVoltages+0xda>

    /* Mapeamento invertido: registos em ordem descendente (VCELL15 primeiro),
     * array em ordem ascendente (índice 0 = Cell 1).
     * Índice c=0 → Cell 1 → rx_buf[28..29] (byte offset = (14-0)*2 = 28)
     * Índice c=14 → Cell 15 → rx_buf[0..1]  (byte offset = (14-14)*2 = 0)  */
    for (uint8_t c = 0U; c < BMS_CELLS_PER_SLAVE; c++)
 8001c10:	2300      	movs	r3, #0
 8001c12:	f887 302f 	strb.w	r3, [r7, #47]	@ 0x2f
 8001c16:	e02c      	b.n	8001c72 <BMS_ReadSlaveVoltages+0xbe>
    {
        uint8_t buf_idx = (uint8_t)((BMS_CELLS_PER_SLAVE - 1U - c) * 2U);
 8001c18:	f897 302f 	ldrb.w	r3, [r7, #47]	@ 0x2f
 8001c1c:	f1c3 030e 	rsb	r3, r3, #14
 8001c20:	b2db      	uxtb	r3, r3
 8001c22:	005b      	lsls	r3, r3, #1
 8001c24:	f887 302c 	strb.w	r3, [r7, #44]	@ 0x2c
        hbms->slave[slave_idx].cell_voltage_mv[c] =
            BMS_RawToMillivolts(rx_buf[buf_idx], rx_buf[buf_idx + 1U]);
 8001c28:	f897 302c 	ldrb.w	r3, [r7, #44]	@ 0x2c
 8001c2c:	3330      	adds	r3, #48	@ 0x30
 8001c2e:	443b      	add	r3, r7
 8001c30:	f813 2c24 	ldrb.w	r2, [r3, #-36]
 8001c34:	f897 302c 	ldrb.w	r3, [r7, #44]	@ 0x2c
 8001c38:	3301      	adds	r3, #1
 8001c3a:	3330      	adds	r3, #48	@ 0x30
 8001c3c:	443b      	add	r3, r7
 8001c3e:	f813 3c24 	ldrb.w	r3, [r3, #-36]
        hbms->slave[slave_idx].cell_voltage_mv[c] =
 8001c42:	78fd      	ldrb	r5, [r7, #3]
 8001c44:	f897 402f 	ldrb.w	r4, [r7, #47]	@ 0x2f
            BMS_RawToMillivolts(rx_buf[buf_idx], rx_buf[buf_idx + 1U]);
 8001c48:	4619      	mov	r1, r3
 8001c4a:	4610      	mov	r0, r2
 8001c4c:	f7ff ff8e 	bl	8001b6c <BMS_RawToMillivolts>
 8001c50:	4603      	mov	r3, r0
 8001c52:	4619      	mov	r1, r3
        hbms->slave[slave_idx].cell_voltage_mv[c] =
 8001c54:	687a      	ldr	r2, [r7, #4]
 8001c56:	232a      	movs	r3, #42	@ 0x2a
 8001c58:	fb05 f303 	mul.w	r3, r5, r3
 8001c5c:	4423      	add	r3, r4
 8001c5e:	3304      	adds	r3, #4
 8001c60:	005b      	lsls	r3, r3, #1
 8001c62:	4413      	add	r3, r2
 8001c64:	460a      	mov	r2, r1
 8001c66:	80da      	strh	r2, [r3, #6]
    for (uint8_t c = 0U; c < BMS_CELLS_PER_SLAVE; c++)
 8001c68:	f897 302f 	ldrb.w	r3, [r7, #47]	@ 0x2f
 8001c6c:	3301      	adds	r3, #1
 8001c6e:	f887 302f 	strb.w	r3, [r7, #47]	@ 0x2f
 8001c72:	f897 302f 	ldrb.w	r3, [r7, #47]	@ 0x2f
 8001c76:	2b0e      	cmp	r3, #14
 8001c78:	d9ce      	bls.n	8001c18 <BMS_ReadSlaveVoltages+0x64>
    }
    hbms->slave[slave_idx].comm_ok = true;
 8001c7a:	78fb      	ldrb	r3, [r7, #3]
 8001c7c:	687a      	ldr	r2, [r7, #4]
 8001c7e:	2154      	movs	r1, #84	@ 0x54
 8001c80:	fb01 f303 	mul.w	r3, r1, r3
 8001c84:	4413      	add	r3, r2
 8001c86:	335a      	adds	r3, #90	@ 0x5a
 8001c88:	2201      	movs	r2, #1
 8001c8a:	701a      	strb	r2, [r3, #0]
    return BMS_OK;
 8001c8c:	2300      	movs	r3, #0
}
 8001c8e:	4618      	mov	r0, r3
 8001c90:	3730      	adds	r7, #48	@ 0x30
 8001c92:	46bd      	mov	sp, r7
 8001c94:	bdb0      	pop	{r4, r5, r7, pc}

08001c96 <BMS_ReadAllCellVoltages>:
 *
 * @param  hbms     Handle do BMS
 * @return BMS_OK ou código de erro (falha parcial não bloqueia)
 */
BMS_Status_t BMS_ReadAllCellVoltages(BMS_Handle_t *hbms)
{
 8001c96:	b580      	push	{r7, lr}
 8001c98:	b086      	sub	sp, #24
 8001c9a:	af00      	add	r7, sp, #0
 8001c9c:	6078      	str	r0, [r7, #4]
    BMS_Status_t status;
    uint32_t pack_sum  = 0UL;  /* uint32 obrigatório: 30S × 3600 mV = 108 000 mV > UINT16_MAX */
 8001c9e:	2300      	movs	r3, #0
 8001ca0:	617b      	str	r3, [r7, #20]
    uint16_t min_mv    = 0xFFFFU;
 8001ca2:	f64f 73ff 	movw	r3, #65535	@ 0xffff
 8001ca6:	827b      	strh	r3, [r7, #18]
    uint16_t max_mv    = 0U;
 8001ca8:	2300      	movs	r3, #0
 8001caa:	823b      	strh	r3, [r7, #16]

    for (uint8_t s = 0U; s < BMS_NUM_SLAVES; s++)
 8001cac:	2300      	movs	r3, #0
 8001cae:	73fb      	strb	r3, [r7, #15]
 8001cb0:	e045      	b.n	8001d3e <BMS_ReadAllCellVoltages+0xa8>
    {
        status = BMS_ReadSlaveVoltages(hbms, s);
 8001cb2:	7bfb      	ldrb	r3, [r7, #15]
 8001cb4:	4619      	mov	r1, r3
 8001cb6:	6878      	ldr	r0, [r7, #4]
 8001cb8:	f7ff ff7c 	bl	8001bb4 <BMS_ReadSlaveVoltages>
 8001cbc:	4603      	mov	r3, r0
 8001cbe:	737b      	strb	r3, [r7, #13]
        if (status != BMS_OK)
 8001cc0:	7b7b      	ldrb	r3, [r7, #13]
 8001cc2:	2b00      	cmp	r3, #0
 8001cc4:	d013      	beq.n	8001cee <BMS_ReadAllCellVoltages+0x58>
             * + colisão UART que corrompia state machines dos ADCs.
             *
             * Correcção: registar o erro, zerar dados stale, e deixar o
             * BMS_ProcessFaults → BMS_RingRecovery tratar a comutação de
             * DIR_SEL de forma atómica e completa. */
            hbms->fault_flags |= BMS_FAULT_COMM;
 8001cc6:	687b      	ldr	r3, [r7, #4]
 8001cc8:	685b      	ldr	r3, [r3, #4]
 8001cca:	f043 0208 	orr.w	r2, r3, #8
 8001cce:	687b      	ldr	r3, [r7, #4]
 8001cd0:	605a      	str	r2, [r3, #4]
            memset(hbms->slave[s].cell_voltage_mv, 0,
 8001cd2:	7bfb      	ldrb	r3, [r7, #15]
 8001cd4:	2254      	movs	r2, #84	@ 0x54
 8001cd6:	fb02 f303 	mul.w	r3, r2, r3
 8001cda:	3308      	adds	r3, #8
 8001cdc:	687a      	ldr	r2, [r7, #4]
 8001cde:	4413      	add	r3, r2
 8001ce0:	3306      	adds	r3, #6
 8001ce2:	221e      	movs	r2, #30
 8001ce4:	2100      	movs	r1, #0
 8001ce6:	4618      	mov	r0, r3
 8001ce8:	f005 fd0a 	bl	8007700 <memset>
                   sizeof(hbms->slave[s].cell_voltage_mv));
            continue;
 8001cec:	e024      	b.n	8001d38 <BMS_ReadAllCellVoltages+0xa2>
        }

        /* Acumula métricas globais */
        for (uint8_t c = 0U; c < BMS_CELLS_PER_SLAVE; c++)
 8001cee:	2300      	movs	r3, #0
 8001cf0:	73bb      	strb	r3, [r7, #14]
 8001cf2:	e01e      	b.n	8001d32 <BMS_ReadAllCellVoltages+0x9c>
        {
            uint16_t mv = hbms->slave[s].cell_voltage_mv[c];
 8001cf4:	7bf9      	ldrb	r1, [r7, #15]
 8001cf6:	7bbb      	ldrb	r3, [r7, #14]
 8001cf8:	687a      	ldr	r2, [r7, #4]
 8001cfa:	202a      	movs	r0, #42	@ 0x2a
 8001cfc:	fb00 f101 	mul.w	r1, r0, r1
 8001d00:	440b      	add	r3, r1
 8001d02:	3304      	adds	r3, #4
 8001d04:	005b      	lsls	r3, r3, #1
 8001d06:	4413      	add	r3, r2
 8001d08:	88db      	ldrh	r3, [r3, #6]
 8001d0a:	817b      	strh	r3, [r7, #10]
            pack_sum += mv;
 8001d0c:	897b      	ldrh	r3, [r7, #10]
 8001d0e:	697a      	ldr	r2, [r7, #20]
 8001d10:	4413      	add	r3, r2
 8001d12:	617b      	str	r3, [r7, #20]
            if (mv < min_mv) { min_mv = mv; }
 8001d14:	897a      	ldrh	r2, [r7, #10]
 8001d16:	8a7b      	ldrh	r3, [r7, #18]
 8001d18:	429a      	cmp	r2, r3
 8001d1a:	d201      	bcs.n	8001d20 <BMS_ReadAllCellVoltages+0x8a>
 8001d1c:	897b      	ldrh	r3, [r7, #10]
 8001d1e:	827b      	strh	r3, [r7, #18]
            if (mv > max_mv) { max_mv = mv; }
 8001d20:	897a      	ldrh	r2, [r7, #10]
 8001d22:	8a3b      	ldrh	r3, [r7, #16]
 8001d24:	429a      	cmp	r2, r3
 8001d26:	d901      	bls.n	8001d2c <BMS_ReadAllCellVoltages+0x96>
 8001d28:	897b      	ldrh	r3, [r7, #10]
 8001d2a:	823b      	strh	r3, [r7, #16]
        for (uint8_t c = 0U; c < BMS_CELLS_PER_SLAVE; c++)
 8001d2c:	7bbb      	ldrb	r3, [r7, #14]
 8001d2e:	3301      	adds	r3, #1
 8001d30:	73bb      	strb	r3, [r7, #14]
 8001d32:	7bbb      	ldrb	r3, [r7, #14]
 8001d34:	2b0e      	cmp	r3, #14
 8001d36:	d9dd      	bls.n	8001cf4 <BMS_ReadAllCellVoltages+0x5e>
    for (uint8_t s = 0U; s < BMS_NUM_SLAVES; s++)
 8001d38:	7bfb      	ldrb	r3, [r7, #15]
 8001d3a:	3301      	adds	r3, #1
 8001d3c:	73fb      	strb	r3, [r7, #15]
 8001d3e:	7bfb      	ldrb	r3, [r7, #15]
 8001d40:	2b01      	cmp	r3, #1
 8001d42:	d9b6      	bls.n	8001cb2 <BMS_ReadAllCellVoltages+0x1c>
        }
    }

    hbms->pack_voltage_mv = pack_sum;
 8001d44:	687b      	ldr	r3, [r7, #4]
 8001d46:	697a      	ldr	r2, [r7, #20]
 8001d48:	f8c3 20b4 	str.w	r2, [r3, #180]	@ 0xb4
    hbms->min_cell_mv     = (min_mv == 0xFFFFU) ? 0U : min_mv;
 8001d4c:	8a7b      	ldrh	r3, [r7, #18]
 8001d4e:	f64f 72ff 	movw	r2, #65535	@ 0xffff
 8001d52:	4293      	cmp	r3, r2
 8001d54:	d001      	beq.n	8001d5a <BMS_ReadAllCellVoltages+0xc4>
 8001d56:	8a7a      	ldrh	r2, [r7, #18]
 8001d58:	e000      	b.n	8001d5c <BMS_ReadAllCellVoltages+0xc6>
 8001d5a:	2200      	movs	r2, #0
 8001d5c:	687b      	ldr	r3, [r7, #4]
 8001d5e:	f8a3 20b8 	strh.w	r2, [r3, #184]	@ 0xb8
    hbms->max_cell_mv     = max_mv;
 8001d62:	687b      	ldr	r3, [r7, #4]
 8001d64:	8a3a      	ldrh	r2, [r7, #16]
 8001d66:	f8a3 20ba 	strh.w	r2, [r3, #186]	@ 0xba
    hbms->delta_cell_mv   = (max_mv > hbms->min_cell_mv) ?
 8001d6a:	687b      	ldr	r3, [r7, #4]
 8001d6c:	f8b3 30b8 	ldrh.w	r3, [r3, #184]	@ 0xb8
 8001d70:	8a3a      	ldrh	r2, [r7, #16]
 8001d72:	429a      	cmp	r2, r3
 8001d74:	d906      	bls.n	8001d84 <BMS_ReadAllCellVoltages+0xee>
                             (max_mv - hbms->min_cell_mv) : 0U;
 8001d76:	687b      	ldr	r3, [r7, #4]
 8001d78:	f8b3 30b8 	ldrh.w	r3, [r3, #184]	@ 0xb8
    hbms->delta_cell_mv   = (max_mv > hbms->min_cell_mv) ?
 8001d7c:	8a3a      	ldrh	r2, [r7, #16]
 8001d7e:	1ad3      	subs	r3, r2, r3
 8001d80:	b29a      	uxth	r2, r3
 8001d82:	e000      	b.n	8001d86 <BMS_ReadAllCellVoltages+0xf0>
 8001d84:	2200      	movs	r2, #0
 8001d86:	687b      	ldr	r3, [r7, #4]
 8001d88:	f8a3 20bc 	strh.w	r2, [r3, #188]	@ 0xbc

    return BMS_OK;
 8001d8c:	2300      	movs	r3, #0
}
 8001d8e:	4618      	mov	r0, r3
 8001d90:	3718      	adds	r7, #24
 8001d92:	46bd      	mov	sp, r7
 8001d94:	bd80      	pop	{r7, pc}
	...

08001d98 <BMS_RawToTemperature_Ratiometric>:
 * @param  tsref_raw  Leitura ADC da referência TSREF (16 bits)
 * @return Temperatura em °C; INT8_MIN (-128) se conversão inválida
 */
static int16_t BMS_RawToTemperature_Ratiometric(uint16_t gpio_raw,
                                                  uint16_t tsref_raw)
{
 8001d98:	b480      	push	{r7}
 8001d9a:	b08b      	sub	sp, #44	@ 0x2c
 8001d9c:	af00      	add	r7, sp, #0
 8001d9e:	4603      	mov	r3, r0
 8001da0:	460a      	mov	r2, r1
 8001da2:	80fb      	strh	r3, [r7, #6]
 8001da4:	4613      	mov	r3, r2
 8001da6:	80bb      	strh	r3, [r7, #4]
    if (tsref_raw == 0U)
 8001da8:	88bb      	ldrh	r3, [r7, #4]
 8001daa:	2b00      	cmp	r3, #0
 8001dac:	d102      	bne.n	8001db4 <BMS_RawToTemperature_Ratiometric+0x1c>
    {
        return INT8_MIN;   /* TSREF inválido - sensor desligado */
 8001dae:	f06f 037f 	mvn.w	r3, #127	@ 0x7f
 8001db2:	e072      	b.n	8001e9a <BMS_RawToTemperature_Ratiometric+0x102>
    }

    /* ratio = V_GPIO / V_TSREF, escalado x10000 para aritmética inteira */
    uint32_t ratio_x10000 = ((uint32_t)gpio_raw * 10000UL) / (uint32_t)tsref_raw;
 8001db4:	88fb      	ldrh	r3, [r7, #6]
 8001db6:	f242 7210 	movw	r2, #10000	@ 0x2710
 8001dba:	fb03 f202 	mul.w	r2, r3, r2
 8001dbe:	88bb      	ldrh	r3, [r7, #4]
 8001dc0:	fbb2 f3f3 	udiv	r3, r2, r3
 8001dc4:	623b      	str	r3, [r7, #32]
     * nenhuma protecção térmica → risco de Thermal Runaway em pista.
     *
     * Limiar 9500: corresponde a R_NTC > 190 kΩ, ou seja T < -30°C.
     * Fisicamente impossível num veículo em operação (excluindo Antárctida).
     * Retornar 127°C garante que BMS_CheckProtections detecta OT imediato. */
    if (ratio_x10000 > 9500U)
 8001dc6:	6a3b      	ldr	r3, [r7, #32]
 8001dc8:	f242 521c 	movw	r2, #9500	@ 0x251c
 8001dcc:	4293      	cmp	r3, r2
 8001dce:	d901      	bls.n	8001dd4 <BMS_RawToTemperature_Ratiometric+0x3c>
    {
        return (int16_t)127;   /* Força OT → contactor abre */
 8001dd0:	237f      	movs	r3, #127	@ 0x7f
 8001dd2:	e062      	b.n	8001e9a <BMS_RawToTemperature_Ratiometric+0x102>
    }

    /* Clamp para os extremos da tabela */
    if (ratio_x10000 <= (uint32_t)g_ntc_table[0].ratio_x10000)
 8001dd4:	f240 4367 	movw	r3, #1127	@ 0x467
 8001dd8:	461a      	mov	r2, r3
 8001dda:	6a3b      	ldr	r3, [r7, #32]
 8001ddc:	4293      	cmp	r3, r2
 8001dde:	d801      	bhi.n	8001de4 <BMS_RawToTemperature_Ratiometric+0x4c>
    {
        return (int16_t)g_ntc_table[0].temp_c;
 8001de0:	2350      	movs	r3, #80	@ 0x50
 8001de2:	e05a      	b.n	8001e9a <BMS_RawToTemperature_Ratiometric+0x102>
    }
    if (ratio_x10000 >= (uint32_t)g_ntc_table[BMS_NTC_TABLE_SIZE - 1U].ratio_x10000)
 8001de4:	f242 33ad 	movw	r3, #9133	@ 0x23ad
 8001de8:	461a      	mov	r2, r3
 8001dea:	6a3b      	ldr	r3, [r7, #32]
 8001dec:	4293      	cmp	r3, r2
 8001dee:	d302      	bcc.n	8001df6 <BMS_RawToTemperature_Ratiometric+0x5e>
    {
        return (int16_t)g_ntc_table[BMS_NTC_TABLE_SIZE - 1U].temp_c;
 8001df0:	f06f 0313 	mvn.w	r3, #19
 8001df4:	e051      	b.n	8001e9a <BMS_RawToTemperature_Ratiometric+0x102>
    }

    /* Pesquisa binária + interpolação linear entre dois pontos da tabela */
    uint8_t lo = 0U;
 8001df6:	2300      	movs	r3, #0
 8001df8:	f887 3027 	strb.w	r3, [r7, #39]	@ 0x27
    uint8_t hi = BMS_NTC_TABLE_SIZE - 1U;
 8001dfc:	2314      	movs	r3, #20
 8001dfe:	f887 3026 	strb.w	r3, [r7, #38]	@ 0x26

    while ((hi - lo) > 1U)
 8001e02:	e015      	b.n	8001e30 <BMS_RawToTemperature_Ratiometric+0x98>
    {
        uint8_t mid = (uint8_t)((lo + hi) / 2U);
 8001e04:	f897 2027 	ldrb.w	r2, [r7, #39]	@ 0x27
 8001e08:	f897 3026 	ldrb.w	r3, [r7, #38]	@ 0x26
 8001e0c:	4413      	add	r3, r2
 8001e0e:	085b      	lsrs	r3, r3, #1
 8001e10:	72fb      	strb	r3, [r7, #11]
        if (ratio_x10000 < (uint32_t)g_ntc_table[mid].ratio_x10000)
 8001e12:	7afb      	ldrb	r3, [r7, #11]
 8001e14:	4a24      	ldr	r2, [pc, #144]	@ (8001ea8 <BMS_RawToTemperature_Ratiometric+0x110>)
 8001e16:	f832 3023 	ldrh.w	r3, [r2, r3, lsl #2]
 8001e1a:	461a      	mov	r2, r3
 8001e1c:	6a3b      	ldr	r3, [r7, #32]
 8001e1e:	4293      	cmp	r3, r2
 8001e20:	d203      	bcs.n	8001e2a <BMS_RawToTemperature_Ratiometric+0x92>
        {
            hi = mid;
 8001e22:	7afb      	ldrb	r3, [r7, #11]
 8001e24:	f887 3026 	strb.w	r3, [r7, #38]	@ 0x26
 8001e28:	e002      	b.n	8001e30 <BMS_RawToTemperature_Ratiometric+0x98>
        }
        else
        {
            lo = mid;
 8001e2a:	7afb      	ldrb	r3, [r7, #11]
 8001e2c:	f887 3027 	strb.w	r3, [r7, #39]	@ 0x27
    while ((hi - lo) > 1U)
 8001e30:	f897 2026 	ldrb.w	r2, [r7, #38]	@ 0x26
 8001e34:	f897 3027 	ldrb.w	r3, [r7, #39]	@ 0x27
 8001e38:	1ad3      	subs	r3, r2, r3
 8001e3a:	2b01      	cmp	r3, #1
 8001e3c:	d8e2      	bhi.n	8001e04 <BMS_RawToTemperature_Ratiometric+0x6c>
        }
    }

    /* Interpolação linear entre g_ntc_table[lo] e g_ntc_table[hi] */
    uint32_t r_lo = (uint32_t)g_ntc_table[lo].ratio_x10000;
 8001e3e:	f897 3027 	ldrb.w	r3, [r7, #39]	@ 0x27
 8001e42:	4a19      	ldr	r2, [pc, #100]	@ (8001ea8 <BMS_RawToTemperature_Ratiometric+0x110>)
 8001e44:	f832 3023 	ldrh.w	r3, [r2, r3, lsl #2]
 8001e48:	61fb      	str	r3, [r7, #28]
    uint32_t r_hi = (uint32_t)g_ntc_table[hi].ratio_x10000;
 8001e4a:	f897 3026 	ldrb.w	r3, [r7, #38]	@ 0x26
 8001e4e:	4a16      	ldr	r2, [pc, #88]	@ (8001ea8 <BMS_RawToTemperature_Ratiometric+0x110>)
 8001e50:	f832 3023 	ldrh.w	r3, [r2, r3, lsl #2]
 8001e54:	61bb      	str	r3, [r7, #24]
    int32_t  t_lo = (int32_t)g_ntc_table[lo].temp_c;
 8001e56:	f897 3027 	ldrb.w	r3, [r7, #39]	@ 0x27
 8001e5a:	4a13      	ldr	r2, [pc, #76]	@ (8001ea8 <BMS_RawToTemperature_Ratiometric+0x110>)
 8001e5c:	009b      	lsls	r3, r3, #2
 8001e5e:	4413      	add	r3, r2
 8001e60:	f993 3002 	ldrsb.w	r3, [r3, #2]
 8001e64:	617b      	str	r3, [r7, #20]
    int32_t  t_hi = (int32_t)g_ntc_table[hi].temp_c;
 8001e66:	f897 3026 	ldrb.w	r3, [r7, #38]	@ 0x26
 8001e6a:	4a0f      	ldr	r2, [pc, #60]	@ (8001ea8 <BMS_RawToTemperature_Ratiometric+0x110>)
 8001e6c:	009b      	lsls	r3, r3, #2
 8001e6e:	4413      	add	r3, r2
 8001e70:	f993 3002 	ldrsb.w	r3, [r3, #2]
 8001e74:	613b      	str	r3, [r7, #16]

    /* temp = t_lo + (t_hi - t_lo) * (ratio - r_lo) / (r_hi - r_lo) */
    int32_t temp_c = t_lo + ((t_hi - t_lo) * (int32_t)(ratio_x10000 - r_lo)) /
 8001e76:	693a      	ldr	r2, [r7, #16]
 8001e78:	697b      	ldr	r3, [r7, #20]
 8001e7a:	1ad3      	subs	r3, r2, r3
 8001e7c:	6a39      	ldr	r1, [r7, #32]
 8001e7e:	69fa      	ldr	r2, [r7, #28]
 8001e80:	1a8a      	subs	r2, r1, r2
 8001e82:	fb02 f303 	mul.w	r3, r2, r3
                              (int32_t)(r_hi - r_lo);
 8001e86:	69b9      	ldr	r1, [r7, #24]
 8001e88:	69fa      	ldr	r2, [r7, #28]
 8001e8a:	1a8a      	subs	r2, r1, r2
    int32_t temp_c = t_lo + ((t_hi - t_lo) * (int32_t)(ratio_x10000 - r_lo)) /
 8001e8c:	fb93 f3f2 	sdiv	r3, r3, r2
 8001e90:	697a      	ldr	r2, [r7, #20]
 8001e92:	4413      	add	r3, r2
 8001e94:	60fb      	str	r3, [r7, #12]

    return (int16_t)temp_c;
 8001e96:	68fb      	ldr	r3, [r7, #12]
 8001e98:	b21b      	sxth	r3, r3
}
 8001e9a:	4618      	mov	r0, r3
 8001e9c:	372c      	adds	r7, #44	@ 0x2c
 8001e9e:	46bd      	mov	sp, r7
 8001ea0:	f85d 7b04 	ldr.w	r7, [sp], #4
 8001ea4:	4770      	bx	lr
 8001ea6:	bf00      	nop
 8001ea8:	08008718 	.word	0x08008718

08001eac <BMS_ReadAllTemperatures>:
 *
 * @param  hbms     Handle do BMS
 * @return BMS_OK ou código de erro
 */
BMS_Status_t BMS_ReadAllTemperatures(BMS_Handle_t *hbms)
{
 8001eac:	b5b0      	push	{r4, r5, r7, lr}
 8001eae:	b08a      	sub	sp, #40	@ 0x28
 8001eb0:	af02      	add	r7, sp, #8
 8001eb2:	6078      	str	r0, [r7, #4]
    uint8_t  aux_buf[BMS_AUX_READ_BYTES];  /* 10 bytes: GPIO1-4 + TSREF */
    int16_t  max_temp = -100;
 8001eb4:	f64f 739c 	movw	r3, #65436	@ 0xff9c
 8001eb8:	83fb      	strh	r3, [r7, #30]
    BMS_Status_t status;

    for (uint8_t s = 0U; s < BMS_NUM_SLAVES; s++)
 8001eba:	2300      	movs	r3, #0
 8001ebc:	777b      	strb	r3, [r7, #29]
 8001ebe:	e070      	b.n	8001fa2 <BMS_ReadAllTemperatures+0xf6>
    {
        /* Uma única transacção lê GPIO1, GPIO2, GPIO3, GPIO4, TSREF */
        status = BMS_ReadSingleDevice(hbms, hbms->slave[s].address,
 8001ec0:	7f7b      	ldrb	r3, [r7, #29]
 8001ec2:	687a      	ldr	r2, [r7, #4]
 8001ec4:	2154      	movs	r1, #84	@ 0x54
 8001ec6:	fb01 f303 	mul.w	r3, r1, r3
 8001eca:	4413      	add	r3, r2
 8001ecc:	330c      	adds	r3, #12
 8001ece:	7819      	ldrb	r1, [r3, #0]
 8001ed0:	f107 030c 	add.w	r3, r7, #12
 8001ed4:	220a      	movs	r2, #10
 8001ed6:	9200      	str	r2, [sp, #0]
 8001ed8:	f44f 62b1 	mov.w	r2, #1416	@ 0x588
 8001edc:	6878      	ldr	r0, [r7, #4]
 8001ede:	f7fe fe9d 	bl	8000c1c <BMS_ReadSingleDevice>
 8001ee2:	4603      	mov	r3, r0
 8001ee4:	76fb      	strb	r3, [r7, #27]
                                       REG_GPIO1_HI, aux_buf,
                                       BMS_AUX_READ_BYTES);
        if (status != BMS_OK) { continue; }
 8001ee6:	7efb      	ldrb	r3, [r7, #27]
 8001ee8:	2b00      	cmp	r3, #0
 8001eea:	d156      	bne.n	8001f9a <BMS_ReadAllTemperatures+0xee>

        /* TSREF raw (bytes 8:9) — partilhado por todos os canais */
        uint16_t tsref_raw = ((uint16_t)aux_buf[8] << 8U) | (uint16_t)aux_buf[9];
 8001eec:	7d3b      	ldrb	r3, [r7, #20]
 8001eee:	b21b      	sxth	r3, r3
 8001ef0:	021b      	lsls	r3, r3, #8
 8001ef2:	b21a      	sxth	r2, r3
 8001ef4:	7d7b      	ldrb	r3, [r7, #21]
 8001ef6:	b21b      	sxth	r3, r3
 8001ef8:	4313      	orrs	r3, r2
 8001efa:	b21b      	sxth	r3, r3
 8001efc:	833b      	strh	r3, [r7, #24]

        /* Conversão NTC para cada um dos 3 sensores */
        for (uint8_t ch = 0U; ch < BMS_NUM_TEMP_SENSORS; ch++)
 8001efe:	2300      	movs	r3, #0
 8001f00:	773b      	strb	r3, [r7, #28]
 8001f02:	e046      	b.n	8001f92 <BMS_ReadAllTemperatures+0xe6>
        {
            uint16_t gpio_raw = ((uint16_t)aux_buf[ch * 2U] << 8U) |
 8001f04:	7f3b      	ldrb	r3, [r7, #28]
 8001f06:	005b      	lsls	r3, r3, #1
 8001f08:	3320      	adds	r3, #32
 8001f0a:	443b      	add	r3, r7
 8001f0c:	f813 3c14 	ldrb.w	r3, [r3, #-20]
 8001f10:	b21b      	sxth	r3, r3
 8001f12:	021b      	lsls	r3, r3, #8
 8001f14:	b21a      	sxth	r2, r3
                                 (uint16_t)aux_buf[ch * 2U + 1U];
 8001f16:	7f3b      	ldrb	r3, [r7, #28]
 8001f18:	005b      	lsls	r3, r3, #1
 8001f1a:	3301      	adds	r3, #1
 8001f1c:	3320      	adds	r3, #32
 8001f1e:	443b      	add	r3, r7
 8001f20:	f813 3c14 	ldrb.w	r3, [r3, #-20]
 8001f24:	b21b      	sxth	r3, r3
            uint16_t gpio_raw = ((uint16_t)aux_buf[ch * 2U] << 8U) |
 8001f26:	4313      	orrs	r3, r2
 8001f28:	b21b      	sxth	r3, r3
 8001f2a:	82fb      	strh	r3, [r7, #22]
            hbms->slave[s].temperatures_c[ch] =
 8001f2c:	7f7d      	ldrb	r5, [r7, #29]
 8001f2e:	7f3c      	ldrb	r4, [r7, #28]
                BMS_RawToTemperature_Ratiometric(gpio_raw, tsref_raw);
 8001f30:	8b3a      	ldrh	r2, [r7, #24]
 8001f32:	8afb      	ldrh	r3, [r7, #22]
 8001f34:	4611      	mov	r1, r2
 8001f36:	4618      	mov	r0, r3
 8001f38:	f7ff ff2e 	bl	8001d98 <BMS_RawToTemperature_Ratiometric>
 8001f3c:	4603      	mov	r3, r0
 8001f3e:	4619      	mov	r1, r3
            hbms->slave[s].temperatures_c[ch] =
 8001f40:	687a      	ldr	r2, [r7, #4]
 8001f42:	232a      	movs	r3, #42	@ 0x2a
 8001f44:	fb05 f303 	mul.w	r3, r5, r3
 8001f48:	4423      	add	r3, r4
 8001f4a:	3314      	adds	r3, #20
 8001f4c:	005b      	lsls	r3, r3, #1
 8001f4e:	4413      	add	r3, r2
 8001f50:	460a      	mov	r2, r1
 8001f52:	809a      	strh	r2, [r3, #4]

            if (hbms->slave[s].temperatures_c[ch] > max_temp)
 8001f54:	7f79      	ldrb	r1, [r7, #29]
 8001f56:	7f3b      	ldrb	r3, [r7, #28]
 8001f58:	687a      	ldr	r2, [r7, #4]
 8001f5a:	202a      	movs	r0, #42	@ 0x2a
 8001f5c:	fb00 f101 	mul.w	r1, r0, r1
 8001f60:	440b      	add	r3, r1
 8001f62:	3314      	adds	r3, #20
 8001f64:	005b      	lsls	r3, r3, #1
 8001f66:	4413      	add	r3, r2
 8001f68:	f9b3 3004 	ldrsh.w	r3, [r3, #4]
 8001f6c:	f9b7 201e 	ldrsh.w	r2, [r7, #30]
 8001f70:	429a      	cmp	r2, r3
 8001f72:	da0b      	bge.n	8001f8c <BMS_ReadAllTemperatures+0xe0>
            {
                max_temp = hbms->slave[s].temperatures_c[ch];
 8001f74:	7f79      	ldrb	r1, [r7, #29]
 8001f76:	7f3b      	ldrb	r3, [r7, #28]
 8001f78:	687a      	ldr	r2, [r7, #4]
 8001f7a:	202a      	movs	r0, #42	@ 0x2a
 8001f7c:	fb00 f101 	mul.w	r1, r0, r1
 8001f80:	440b      	add	r3, r1
 8001f82:	3314      	adds	r3, #20
 8001f84:	005b      	lsls	r3, r3, #1
 8001f86:	4413      	add	r3, r2
 8001f88:	889b      	ldrh	r3, [r3, #4]
 8001f8a:	83fb      	strh	r3, [r7, #30]
        for (uint8_t ch = 0U; ch < BMS_NUM_TEMP_SENSORS; ch++)
 8001f8c:	7f3b      	ldrb	r3, [r7, #28]
 8001f8e:	3301      	adds	r3, #1
 8001f90:	773b      	strb	r3, [r7, #28]
 8001f92:	7f3b      	ldrb	r3, [r7, #28]
 8001f94:	2b02      	cmp	r3, #2
 8001f96:	d9b5      	bls.n	8001f04 <BMS_ReadAllTemperatures+0x58>
 8001f98:	e000      	b.n	8001f9c <BMS_ReadAllTemperatures+0xf0>
        if (status != BMS_OK) { continue; }
 8001f9a:	bf00      	nop
    for (uint8_t s = 0U; s < BMS_NUM_SLAVES; s++)
 8001f9c:	7f7b      	ldrb	r3, [r7, #29]
 8001f9e:	3301      	adds	r3, #1
 8001fa0:	777b      	strb	r3, [r7, #29]
 8001fa2:	7f7b      	ldrb	r3, [r7, #29]
 8001fa4:	2b01      	cmp	r3, #1
 8001fa6:	d98b      	bls.n	8001ec0 <BMS_ReadAllTemperatures+0x14>
            }
        }
    }
    hbms->max_temp_c = max_temp;
 8001fa8:	687b      	ldr	r3, [r7, #4]
 8001faa:	8bfa      	ldrh	r2, [r7, #30]
 8001fac:	f8a3 20be 	strh.w	r2, [r3, #190]	@ 0xbe
    return BMS_OK;
 8001fb0:	2300      	movs	r3, #0
}
 8001fb2:	4618      	mov	r0, r3
 8001fb4:	3720      	adds	r7, #32
 8001fb6:	46bd      	mov	sp, r7
 8001fb8:	bdb0      	pop	{r4, r5, r7, pc}
	...

08001fbc <BMS_ReadInverterVoltage>:
 *
 * @param  hbms     Handle do BMS
 * @return BMS_OK ou código de erro
 */
BMS_Status_t BMS_ReadInverterVoltage(BMS_Handle_t *hbms)
{
 8001fbc:	b580      	push	{r7, lr}
 8001fbe:	b088      	sub	sp, #32
 8001fc0:	af02      	add	r7, sp, #8
 8001fc2:	6078      	str	r0, [r7, #4]
    uint8_t buf[2U];
    BMS_Status_t status;

    /* Lê apenas GPIO4 do Slave 1 */
    status = BMS_ReadSingleDevice(hbms, hbms->slave[0].address,
 8001fc4:	687b      	ldr	r3, [r7, #4]
 8001fc6:	7b19      	ldrb	r1, [r3, #12]
 8001fc8:	f107 030c 	add.w	r3, r7, #12
 8001fcc:	2202      	movs	r2, #2
 8001fce:	9200      	str	r2, [sp, #0]
 8001fd0:	f240 528e 	movw	r2, #1422	@ 0x58e
 8001fd4:	6878      	ldr	r0, [r7, #4]
 8001fd6:	f7fe fe21 	bl	8000c1c <BMS_ReadSingleDevice>
 8001fda:	4603      	mov	r3, r0
 8001fdc:	75fb      	strb	r3, [r7, #23]
                                   REG_GPIO4_HI, buf, 2U);
    if (status != BMS_OK) { return status; }
 8001fde:	7dfb      	ldrb	r3, [r7, #23]
 8001fe0:	2b00      	cmp	r3, #0
 8001fe2:	d001      	beq.n	8001fe8 <BMS_ReadInverterVoltage+0x2c>
 8001fe4:	7dfb      	ldrb	r3, [r7, #23]
 8001fe6:	e028      	b.n	800203a <BMS_ReadInverterVoltage+0x7e>

    uint16_t raw = ((uint16_t)buf[0] << 8U) | (uint16_t)buf[1];
 8001fe8:	7b3b      	ldrb	r3, [r7, #12]
 8001fea:	b21b      	sxth	r3, r3
 8001fec:	021b      	lsls	r3, r3, #8
 8001fee:	b21a      	sxth	r2, r3
 8001ff0:	7b7b      	ldrb	r3, [r7, #13]
 8001ff2:	b21b      	sxth	r3, r3
 8001ff4:	4313      	orrs	r3, r2
 8001ff6:	b21b      	sxth	r3, r3
 8001ff8:	82bb      	strh	r3, [r7, #20]
    /* Converter raw ADC → tensão em mV com a resolução do BQ79616 */
    uint32_t vadc_mv = (uint32_t)(((uint32_t)raw * 1907UL) / 10000UL);
 8001ffa:	8abb      	ldrh	r3, [r7, #20]
 8001ffc:	f240 7273 	movw	r2, #1907	@ 0x773
 8002000:	fb02 f303 	mul.w	r3, r2, r3
 8002004:	4a0f      	ldr	r2, [pc, #60]	@ (8002044 <BMS_ReadInverterVoltage+0x88>)
 8002006:	fba2 2303 	umull	r2, r3, r2, r3
 800200a:	0b5b      	lsrs	r3, r3, #13
 800200c:	613b      	str	r3, [r7, #16]
    /* Aplicar rácio de atenuação do hardware */
    hbms->inverter_voltage_mv = vadc_mv * (uint32_t)HV_BUS_ATTENUATION_RATIO;
 800200e:	693a      	ldr	r2, [r7, #16]
 8002010:	4613      	mov	r3, r2
 8002012:	011b      	lsls	r3, r3, #4
 8002014:	1a9b      	subs	r3, r3, r2
 8002016:	005b      	lsls	r3, r3, #1
 8002018:	461a      	mov	r2, r3
 800201a:	687b      	ldr	r3, [r7, #4]
 800201c:	f8c3 20d8 	str.w	r2, [r3, #216]	@ 0xd8

    hbms->precharge_ready =
        (hbms->inverter_voltage_mv >= PRECHARGE_THRESHOLD_MV);
 8002020:	687b      	ldr	r3, [r7, #4]
 8002022:	f8d3 30d8 	ldr.w	r3, [r3, #216]	@ 0xd8
 8002026:	4a08      	ldr	r2, [pc, #32]	@ (8002048 <BMS_ReadInverterVoltage+0x8c>)
 8002028:	4293      	cmp	r3, r2
 800202a:	bf8c      	ite	hi
 800202c:	2301      	movhi	r3, #1
 800202e:	2300      	movls	r3, #0
 8002030:	b2da      	uxtb	r2, r3
    hbms->precharge_ready =
 8002032:	687b      	ldr	r3, [r7, #4]
 8002034:	f883 20dc 	strb.w	r2, [r3, #220]	@ 0xdc

    return BMS_OK;
 8002038:	2300      	movs	r3, #0
}
 800203a:	4618      	mov	r0, r3
 800203c:	3718      	adds	r7, #24
 800203e:	46bd      	mov	sp, r7
 8002040:	bd80      	pop	{r7, pc}
 8002042:	bf00      	nop
 8002044:	d1b71759 	.word	0xd1b71759
 8002048:	0001baf7 	.word	0x0001baf7

0800204c <BMS_CheckProtections>:
 *
 * @param  hbms     Handle do BMS
 * @return BMS_OK se tudo OK, BMS_ERR_FAULT_ACTIVE se há fault
 */
BMS_Status_t BMS_CheckProtections(BMS_Handle_t *hbms)
{
 800204c:	b580      	push	{r7, lr}
 800204e:	b086      	sub	sp, #24
 8002050:	af00      	add	r7, sp, #0
 8002052:	6078      	str	r0, [r7, #4]
    bool fault_detected = false;
 8002054:	2300      	movs	r3, #0
 8002056:	75fb      	strb	r3, [r7, #23]
     * // for (s = 0; s < BMS_NUM_SLAVES; s++)
     * //     hbms->slave[s].fault_flags &= ~(BMS_FAULT_OV|BMS_FAULT_UV|BMS_FAULT_OT);
     */

    /* --- Verificação por célula --- */
    for (uint8_t s = 0U; s < BMS_NUM_SLAVES; s++)
 8002058:	2300      	movs	r3, #0
 800205a:	75bb      	strb	r3, [r7, #22]
 800205c:	e0ce      	b.n	80021fc <BMS_CheckProtections+0x1b0>
    {
        for (uint8_t c = 0U; c < BMS_CELLS_PER_SLAVE; c++)
 800205e:	2300      	movs	r3, #0
 8002060:	757b      	strb	r3, [r7, #21]
 8002062:	e079      	b.n	8002158 <BMS_CheckProtections+0x10c>
        {
            uint16_t mv = hbms->slave[s].cell_voltage_mv[c];
 8002064:	7db9      	ldrb	r1, [r7, #22]
 8002066:	7d7b      	ldrb	r3, [r7, #21]
 8002068:	687a      	ldr	r2, [r7, #4]
 800206a:	202a      	movs	r0, #42	@ 0x2a
 800206c:	fb00 f101 	mul.w	r1, r0, r1
 8002070:	440b      	add	r3, r1
 8002072:	3304      	adds	r3, #4
 8002074:	005b      	lsls	r3, r3, #1
 8002076:	4413      	add	r3, r2
 8002078:	88db      	ldrh	r3, [r3, #6]
 800207a:	81fb      	strh	r3, [r7, #14]

            /* Over-Voltage */
            if (mv >= CELL_OV_MV)
 800207c:	89fb      	ldrh	r3, [r7, #14]
 800207e:	f5b3 6f61 	cmp.w	r3, #3600	@ 0xe10
 8002082:	d325      	bcc.n	80020d0 <BMS_CheckProtections+0x84>
            {
                hbms->slave[s].ov_cell[c] = true;
 8002084:	7dba      	ldrb	r2, [r7, #22]
 8002086:	7d7b      	ldrb	r3, [r7, #21]
 8002088:	6879      	ldr	r1, [r7, #4]
 800208a:	2054      	movs	r0, #84	@ 0x54
 800208c:	fb00 f202 	mul.w	r2, r0, r2
 8002090:	440a      	add	r2, r1
 8002092:	4413      	add	r3, r2
 8002094:	333c      	adds	r3, #60	@ 0x3c
 8002096:	2201      	movs	r2, #1
 8002098:	701a      	strb	r2, [r3, #0]
                hbms->slave[s].fault_flags |= BMS_FAULT_OV;
 800209a:	7dbb      	ldrb	r3, [r7, #22]
 800209c:	687a      	ldr	r2, [r7, #4]
 800209e:	2154      	movs	r1, #84	@ 0x54
 80020a0:	fb01 f303 	mul.w	r3, r1, r3
 80020a4:	4413      	add	r3, r2
 80020a6:	3334      	adds	r3, #52	@ 0x34
 80020a8:	681a      	ldr	r2, [r3, #0]
 80020aa:	7dbb      	ldrb	r3, [r7, #22]
 80020ac:	f042 0201 	orr.w	r2, r2, #1
 80020b0:	6879      	ldr	r1, [r7, #4]
 80020b2:	2054      	movs	r0, #84	@ 0x54
 80020b4:	fb00 f303 	mul.w	r3, r0, r3
 80020b8:	440b      	add	r3, r1
 80020ba:	3334      	adds	r3, #52	@ 0x34
 80020bc:	601a      	str	r2, [r3, #0]
                hbms->fault_flags |= BMS_FAULT_OV;
 80020be:	687b      	ldr	r3, [r7, #4]
 80020c0:	685b      	ldr	r3, [r3, #4]
 80020c2:	f043 0201 	orr.w	r2, r3, #1
 80020c6:	687b      	ldr	r3, [r7, #4]
 80020c8:	605a      	str	r2, [r3, #4]
                fault_detected = true;
 80020ca:	2301      	movs	r3, #1
 80020cc:	75fb      	strb	r3, [r7, #23]
 80020ce:	e00a      	b.n	80020e6 <BMS_CheckProtections+0x9a>
            }
            else
            {
                hbms->slave[s].ov_cell[c] = false;
 80020d0:	7dba      	ldrb	r2, [r7, #22]
 80020d2:	7d7b      	ldrb	r3, [r7, #21]
 80020d4:	6879      	ldr	r1, [r7, #4]
 80020d6:	2054      	movs	r0, #84	@ 0x54
 80020d8:	fb00 f202 	mul.w	r2, r0, r2
 80020dc:	440a      	add	r2, r1
 80020de:	4413      	add	r3, r2
 80020e0:	333c      	adds	r3, #60	@ 0x3c
 80020e2:	2200      	movs	r2, #0
 80020e4:	701a      	strb	r2, [r3, #0]
             * BUG ASIL-D CORRIGIDO: removido o guard (mv > 0U).
             * Com ACTIVE_CELL=15, todos os canais ADC são activos.
             * Uma leitura de 0 mV indica célula morta, curto-circuito total
             * ou cabo de sensor cortado — condição letal que DEVE despoletar
             * a abertura do contactor. O guard anterior mascarava esta falha. */
            if (mv <= CELL_UV_MV)
 80020e6:	89fb      	ldrh	r3, [r7, #14]
 80020e8:	f640 32b8 	movw	r2, #3000	@ 0xbb8
 80020ec:	4293      	cmp	r3, r2
 80020ee:	d825      	bhi.n	800213c <BMS_CheckProtections+0xf0>
            {
                hbms->slave[s].uv_cell[c] = true;
 80020f0:	7dba      	ldrb	r2, [r7, #22]
 80020f2:	7d7b      	ldrb	r3, [r7, #21]
 80020f4:	6879      	ldr	r1, [r7, #4]
 80020f6:	2054      	movs	r0, #84	@ 0x54
 80020f8:	fb00 f202 	mul.w	r2, r0, r2
 80020fc:	440a      	add	r2, r1
 80020fe:	4413      	add	r3, r2
 8002100:	334b      	adds	r3, #75	@ 0x4b
 8002102:	2201      	movs	r2, #1
 8002104:	701a      	strb	r2, [r3, #0]
                hbms->slave[s].fault_flags |= BMS_FAULT_UV;
 8002106:	7dbb      	ldrb	r3, [r7, #22]
 8002108:	687a      	ldr	r2, [r7, #4]
 800210a:	2154      	movs	r1, #84	@ 0x54
 800210c:	fb01 f303 	mul.w	r3, r1, r3
 8002110:	4413      	add	r3, r2
 8002112:	3334      	adds	r3, #52	@ 0x34
 8002114:	681a      	ldr	r2, [r3, #0]
 8002116:	7dbb      	ldrb	r3, [r7, #22]
 8002118:	f042 0202 	orr.w	r2, r2, #2
 800211c:	6879      	ldr	r1, [r7, #4]
 800211e:	2054      	movs	r0, #84	@ 0x54
 8002120:	fb00 f303 	mul.w	r3, r0, r3
 8002124:	440b      	add	r3, r1
 8002126:	3334      	adds	r3, #52	@ 0x34
 8002128:	601a      	str	r2, [r3, #0]
                hbms->fault_flags |= BMS_FAULT_UV;
 800212a:	687b      	ldr	r3, [r7, #4]
 800212c:	685b      	ldr	r3, [r3, #4]
 800212e:	f043 0202 	orr.w	r2, r3, #2
 8002132:	687b      	ldr	r3, [r7, #4]
 8002134:	605a      	str	r2, [r3, #4]
                fault_detected = true;
 8002136:	2301      	movs	r3, #1
 8002138:	75fb      	strb	r3, [r7, #23]
 800213a:	e00a      	b.n	8002152 <BMS_CheckProtections+0x106>
            }
            else
            {
                hbms->slave[s].uv_cell[c] = false;
 800213c:	7dba      	ldrb	r2, [r7, #22]
 800213e:	7d7b      	ldrb	r3, [r7, #21]
 8002140:	6879      	ldr	r1, [r7, #4]
 8002142:	2054      	movs	r0, #84	@ 0x54
 8002144:	fb00 f202 	mul.w	r2, r0, r2
 8002148:	440a      	add	r2, r1
 800214a:	4413      	add	r3, r2
 800214c:	334b      	adds	r3, #75	@ 0x4b
 800214e:	2200      	movs	r2, #0
 8002150:	701a      	strb	r2, [r3, #0]
        for (uint8_t c = 0U; c < BMS_CELLS_PER_SLAVE; c++)
 8002152:	7d7b      	ldrb	r3, [r7, #21]
 8002154:	3301      	adds	r3, #1
 8002156:	757b      	strb	r3, [r7, #21]
 8002158:	7d7b      	ldrb	r3, [r7, #21]
 800215a:	2b0e      	cmp	r3, #14
 800215c:	d982      	bls.n	8002064 <BMS_CheckProtections+0x18>
            }
        }

        /* Over-Temperature */
        int16_t slave_max_t = hbms->slave[s].temperatures_c[0];
 800215e:	7dbb      	ldrb	r3, [r7, #22]
 8002160:	687a      	ldr	r2, [r7, #4]
 8002162:	2154      	movs	r1, #84	@ 0x54
 8002164:	fb01 f303 	mul.w	r3, r1, r3
 8002168:	4413      	add	r3, r2
 800216a:	332c      	adds	r3, #44	@ 0x2c
 800216c:	881b      	ldrh	r3, [r3, #0]
 800216e:	827b      	strh	r3, [r7, #18]
        for (uint8_t t = 1U; t < BMS_NUM_TEMP_SENSORS; t++) {
 8002170:	2301      	movs	r3, #1
 8002172:	747b      	strb	r3, [r7, #17]
 8002174:	e01e      	b.n	80021b4 <BMS_CheckProtections+0x168>
            if (hbms->slave[s].temperatures_c[t] > slave_max_t)
 8002176:	7db9      	ldrb	r1, [r7, #22]
 8002178:	7c7b      	ldrb	r3, [r7, #17]
 800217a:	687a      	ldr	r2, [r7, #4]
 800217c:	202a      	movs	r0, #42	@ 0x2a
 800217e:	fb00 f101 	mul.w	r1, r0, r1
 8002182:	440b      	add	r3, r1
 8002184:	3314      	adds	r3, #20
 8002186:	005b      	lsls	r3, r3, #1
 8002188:	4413      	add	r3, r2
 800218a:	f9b3 3004 	ldrsh.w	r3, [r3, #4]
 800218e:	f9b7 2012 	ldrsh.w	r2, [r7, #18]
 8002192:	429a      	cmp	r2, r3
 8002194:	da0b      	bge.n	80021ae <BMS_CheckProtections+0x162>
                slave_max_t = hbms->slave[s].temperatures_c[t];
 8002196:	7db9      	ldrb	r1, [r7, #22]
 8002198:	7c7b      	ldrb	r3, [r7, #17]
 800219a:	687a      	ldr	r2, [r7, #4]
 800219c:	202a      	movs	r0, #42	@ 0x2a
 800219e:	fb00 f101 	mul.w	r1, r0, r1
 80021a2:	440b      	add	r3, r1
 80021a4:	3314      	adds	r3, #20
 80021a6:	005b      	lsls	r3, r3, #1
 80021a8:	4413      	add	r3, r2
 80021aa:	889b      	ldrh	r3, [r3, #4]
 80021ac:	827b      	strh	r3, [r7, #18]
        for (uint8_t t = 1U; t < BMS_NUM_TEMP_SENSORS; t++) {
 80021ae:	7c7b      	ldrb	r3, [r7, #17]
 80021b0:	3301      	adds	r3, #1
 80021b2:	747b      	strb	r3, [r7, #17]
 80021b4:	7c7b      	ldrb	r3, [r7, #17]
 80021b6:	2b02      	cmp	r3, #2
 80021b8:	d9dd      	bls.n	8002176 <BMS_CheckProtections+0x12a>
        }
        if (slave_max_t >= (int16_t)CELL_TEMP_MAX_C)
 80021ba:	f9b7 3012 	ldrsh.w	r3, [r7, #18]
 80021be:	2b3b      	cmp	r3, #59	@ 0x3b
 80021c0:	dd19      	ble.n	80021f6 <BMS_CheckProtections+0x1aa>
        {
            hbms->slave[s].fault_flags |= BMS_FAULT_OT;
 80021c2:	7dbb      	ldrb	r3, [r7, #22]
 80021c4:	687a      	ldr	r2, [r7, #4]
 80021c6:	2154      	movs	r1, #84	@ 0x54
 80021c8:	fb01 f303 	mul.w	r3, r1, r3
 80021cc:	4413      	add	r3, r2
 80021ce:	3334      	adds	r3, #52	@ 0x34
 80021d0:	681a      	ldr	r2, [r3, #0]
 80021d2:	7dbb      	ldrb	r3, [r7, #22]
 80021d4:	f042 0204 	orr.w	r2, r2, #4
 80021d8:	6879      	ldr	r1, [r7, #4]
 80021da:	2054      	movs	r0, #84	@ 0x54
 80021dc:	fb00 f303 	mul.w	r3, r0, r3
 80021e0:	440b      	add	r3, r1
 80021e2:	3334      	adds	r3, #52	@ 0x34
 80021e4:	601a      	str	r2, [r3, #0]
            hbms->fault_flags |= BMS_FAULT_OT;
 80021e6:	687b      	ldr	r3, [r7, #4]
 80021e8:	685b      	ldr	r3, [r3, #4]
 80021ea:	f043 0204 	orr.w	r2, r3, #4
 80021ee:	687b      	ldr	r3, [r7, #4]
 80021f0:	605a      	str	r2, [r3, #4]
            fault_detected = true;
 80021f2:	2301      	movs	r3, #1
 80021f4:	75fb      	strb	r3, [r7, #23]
    for (uint8_t s = 0U; s < BMS_NUM_SLAVES; s++)
 80021f6:	7dbb      	ldrb	r3, [r7, #22]
 80021f8:	3301      	adds	r3, #1
 80021fa:	75bb      	strb	r3, [r7, #22]
 80021fc:	7dbb      	ldrb	r3, [r7, #22]
 80021fe:	2b01      	cmp	r3, #1
 8002200:	f67f af2d 	bls.w	800205e <BMS_CheckProtections+0x12>
    {
        /* Desequilíbrio grave - regista mas não actua imediatamente */
        /* Pode acionar cell balancing se implementado */
    }

    if (fault_detected)
 8002204:	7dfb      	ldrb	r3, [r7, #23]
 8002206:	2b00      	cmp	r3, #0
 8002208:	d007      	beq.n	800221a <BMS_CheckProtections+0x1ce>
         * BMS_STATE_FAULT sem actuar no hardware. Faults de software (OT,
         * UV por leitura ADC) não disparam NFAULT — são invisíveis ao ISR.
         * Sem esta linha, o contactor permanecia fechado com corrente a fluir
         * num pack a 65°C → Thermal Runaway.
         * BMS_EmergencyShutdown: abre contactor + deasserta BMS_OK_PIN. */
        BMS_EmergencyShutdown(hbms);
 800220a:	6878      	ldr	r0, [r7, #4]
 800220c:	f000 fa2e 	bl	800266c <BMS_EmergencyShutdown>
        hbms->state = BMS_STATE_FAULT;
 8002210:	687b      	ldr	r3, [r7, #4]
 8002212:	2205      	movs	r2, #5
 8002214:	701a      	strb	r2, [r3, #0]
        return BMS_ERR_FAULT_ACTIVE;
 8002216:	2305      	movs	r3, #5
 8002218:	e000      	b.n	800221c <BMS_CheckProtections+0x1d0>
    }

    return BMS_OK;
 800221a:	2300      	movs	r3, #0
}
 800221c:	4618      	mov	r0, r3
 800221e:	3718      	adds	r7, #24
 8002220:	46bd      	mov	sp, r7
 8002222:	bd80      	pop	{r7, pc}

08002224 <BMS_ProcessFaults>:
 *
 * @param  hbms     Handle do BMS
 * @return BMS_OK ou BMS_ERR_FAULT_ACTIVE
 */
BMS_Status_t BMS_ProcessFaults(BMS_Handle_t *hbms)
{
 8002224:	b580      	push	{r7, lr}
 8002226:	b08a      	sub	sp, #40	@ 0x28
 8002228:	af02      	add	r7, sp, #8
 800222a:	6078      	str	r0, [r7, #4]
    /* Leitura e limpeza atómica: se a flag estava a 1 retorna 1 e coloca 0
     * Se entretanto uma ISR colocar a 1 durante esta instrução, STREX falha
     * e a instrução repete; o valor 1 não se perde em nenhum cenário.
     * __atomic_exchange_n() compila para LDREX/STREX no Cortex-M4 com GCC. */
    uint32_t was_pending = __atomic_exchange_n(&hbms->nfault_pending, 0U,
 800222c:	687b      	ldr	r3, [r7, #4]
 800222e:	f503 7294 	add.w	r2, r3, #296	@ 0x128
 8002232:	2100      	movs	r1, #0
 8002234:	f3bf 8f5b 	dmb	ish
 8002238:	e852 3f00 	ldrex	r3, [r2]
 800223c:	e842 1000 	strex	r0, r1, [r2]
 8002240:	2800      	cmp	r0, #0
 8002242:	d1f9      	bne.n	8002238 <BMS_ProcessFaults+0x14>
 8002244:	f3bf 8f5b 	dmb	ish
 8002248:	61bb      	str	r3, [r7, #24]
                                                __ATOMIC_SEQ_CST);
    if (was_pending == 0U)
 800224a:	69bb      	ldr	r3, [r7, #24]
 800224c:	2b00      	cmp	r3, #0
 800224e:	d101      	bne.n	8002254 <BMS_ProcessFaults+0x30>
    {
        return BMS_OK;
 8002250:	2300      	movs	r3, #0
 8002252:	e116      	b.n	8002482 <BMS_ProcessFaults+0x25e>
    }

    /* Variáveis locais declaradas após o guard atómico (C89 compat) */
    uint8_t      fault_buf[4U];
    BMS_Status_t status;
    bool         critical_fault = false;
 8002254:	2300      	movs	r3, #0
 8002256:	77fb      	strb	r3, [r7, #31]

    /* --- Leitura FAULT_SUMMARY da Bridge --- */
    status = BMS_ReadSingleDevice(hbms, BMS_ADDR_BRIDGE,
 8002258:	f107 0310 	add.w	r3, r7, #16
 800225c:	2202      	movs	r2, #2
 800225e:	9200      	str	r2, [sp, #0]
 8002260:	f44f 5204 	mov.w	r2, #8448	@ 0x2100
 8002264:	2100      	movs	r1, #0
 8002266:	6878      	ldr	r0, [r7, #4]
 8002268:	f7fe fcd8 	bl	8000c1c <BMS_ReadSingleDevice>
 800226c:	4603      	mov	r3, r0
 800226e:	75fb      	strb	r3, [r7, #23]
                                   REG_BRIDGE_FAULT_SUMMARY, fault_buf, 2U);
    if (status == BMS_OK)
 8002270:	7dfb      	ldrb	r3, [r7, #23]
 8002272:	2b00      	cmp	r3, #0
 8002274:	d11a      	bne.n	80022ac <BMS_ProcessFaults+0x88>
    {
        uint8_t bridge_fault_comm2 = fault_buf[1];
 8002276:	7c7b      	ldrb	r3, [r7, #17]
 8002278:	75bb      	strb	r3, [r7, #22]

        /* Bit de Ring Break */
        if (bridge_fault_comm2 & 0x01U)
 800227a:	7dbb      	ldrb	r3, [r7, #22]
 800227c:	f003 0301 	and.w	r3, r3, #1
 8002280:	2b00      	cmp	r3, #0
 8002282:	d008      	beq.n	8002296 <BMS_ProcessFaults+0x72>
        {
            hbms->fault_flags |= BMS_FAULT_RING_BREAK;
 8002284:	687b      	ldr	r3, [r7, #4]
 8002286:	685b      	ldr	r3, [r3, #4]
 8002288:	f043 0210 	orr.w	r2, r3, #16
 800228c:	687b      	ldr	r3, [r7, #4]
 800228e:	605a      	str	r2, [r3, #4]
            hbms->ring_intact   = false;
 8002290:	687b      	ldr	r3, [r7, #4]
 8002292:	2200      	movs	r2, #0
 8002294:	721a      	strb	r2, [r3, #8]
        }

        /* Heartbeat Fail */
        if (bridge_fault_comm2 & 0x40U)
 8002296:	7dbb      	ldrb	r3, [r7, #22]
 8002298:	f003 0340 	and.w	r3, r3, #64	@ 0x40
 800229c:	2b00      	cmp	r3, #0
 800229e:	d005      	beq.n	80022ac <BMS_ProcessFaults+0x88>
        {
            hbms->fault_flags |= BMS_FAULT_HB_FAIL;
 80022a0:	687b      	ldr	r3, [r7, #4]
 80022a2:	685b      	ldr	r3, [r3, #4]
 80022a4:	f043 0240 	orr.w	r2, r3, #64	@ 0x40
 80022a8:	687b      	ldr	r3, [r7, #4]
 80022aa:	605a      	str	r2, [r3, #4]
     *
     * Correcção: ler apenas 1 byte (FAULT_SUMMARY) e usar os bits correctos:
     *   BQ79616 FAULT_SUMMARY: Bit2=OV, Bit3=UV, Bit4=COMM, Bit5=SYS, etc.
     *   (os bits 0x01 e 0x02 usados antes correspondem a reservados/outros). */
    uint8_t slave_fault_data[BMS_NUM_SLAVES * 1U];
    status = BMS_ReadBroadcast(hbms, REG_SLAVE_FAULT_SUMMARY,
 80022ac:	f107 020c 	add.w	r2, r7, #12
 80022b0:	2301      	movs	r3, #1
 80022b2:	f240 512d 	movw	r1, #1325	@ 0x52d
 80022b6:	6878      	ldr	r0, [r7, #4]
 80022b8:	f7fe fe34 	bl	8000f24 <BMS_ReadBroadcast>
 80022bc:	4603      	mov	r3, r0
 80022be:	75fb      	strb	r3, [r7, #23]
                                slave_fault_data, 1U);
    if (status == BMS_OK)
 80022c0:	7dfb      	ldrb	r3, [r7, #23]
 80022c2:	2b00      	cmp	r3, #0
 80022c4:	d173      	bne.n	80023ae <BMS_ProcessFaults+0x18a>
    {
        for (uint8_t s = 0U; s < BMS_NUM_SLAVES; s++)
 80022c6:	2300      	movs	r3, #0
 80022c8:	77bb      	strb	r3, [r7, #30]
 80022ca:	e06c      	b.n	80023a6 <BMS_ProcessFaults+0x182>
        {
            uint8_t sf = slave_fault_data[s];
 80022cc:	7fbb      	ldrb	r3, [r7, #30]
 80022ce:	3320      	adds	r3, #32
 80022d0:	443b      	add	r3, r7
 80022d2:	f813 3c14 	ldrb.w	r3, [r3, #-20]
 80022d6:	757b      	strb	r3, [r7, #21]
            hbms->slave[s].fault_summary_raw[0] = sf;
 80022d8:	7fbb      	ldrb	r3, [r7, #30]
 80022da:	687a      	ldr	r2, [r7, #4]
 80022dc:	2154      	movs	r1, #84	@ 0x54
 80022de:	fb01 f303 	mul.w	r3, r1, r3
 80022e2:	4413      	add	r3, r2
 80022e4:	3338      	adds	r3, #56	@ 0x38
 80022e6:	7d7a      	ldrb	r2, [r7, #21]
 80022e8:	701a      	strb	r2, [r3, #0]

            if (sf & 0x04U)   /* Bit 2: OV fault */
 80022ea:	7d7b      	ldrb	r3, [r7, #21]
 80022ec:	f003 0304 	and.w	r3, r3, #4
 80022f0:	2b00      	cmp	r3, #0
 80022f2:	d019      	beq.n	8002328 <BMS_ProcessFaults+0x104>
            {
                hbms->slave[s].fault_flags |= BMS_FAULT_OV;
 80022f4:	7fbb      	ldrb	r3, [r7, #30]
 80022f6:	687a      	ldr	r2, [r7, #4]
 80022f8:	2154      	movs	r1, #84	@ 0x54
 80022fa:	fb01 f303 	mul.w	r3, r1, r3
 80022fe:	4413      	add	r3, r2
 8002300:	3334      	adds	r3, #52	@ 0x34
 8002302:	681a      	ldr	r2, [r3, #0]
 8002304:	7fbb      	ldrb	r3, [r7, #30]
 8002306:	f042 0201 	orr.w	r2, r2, #1
 800230a:	6879      	ldr	r1, [r7, #4]
 800230c:	2054      	movs	r0, #84	@ 0x54
 800230e:	fb00 f303 	mul.w	r3, r0, r3
 8002312:	440b      	add	r3, r1
 8002314:	3334      	adds	r3, #52	@ 0x34
 8002316:	601a      	str	r2, [r3, #0]
                hbms->fault_flags |= BMS_FAULT_OV;
 8002318:	687b      	ldr	r3, [r7, #4]
 800231a:	685b      	ldr	r3, [r3, #4]
 800231c:	f043 0201 	orr.w	r2, r3, #1
 8002320:	687b      	ldr	r3, [r7, #4]
 8002322:	605a      	str	r2, [r3, #4]
                critical_fault = true;
 8002324:	2301      	movs	r3, #1
 8002326:	77fb      	strb	r3, [r7, #31]
            }
            if (sf & 0x08U)   /* Bit 3: UV fault */
 8002328:	7d7b      	ldrb	r3, [r7, #21]
 800232a:	f003 0308 	and.w	r3, r3, #8
 800232e:	2b00      	cmp	r3, #0
 8002330:	d019      	beq.n	8002366 <BMS_ProcessFaults+0x142>
            {
                hbms->slave[s].fault_flags |= BMS_FAULT_UV;
 8002332:	7fbb      	ldrb	r3, [r7, #30]
 8002334:	687a      	ldr	r2, [r7, #4]
 8002336:	2154      	movs	r1, #84	@ 0x54
 8002338:	fb01 f303 	mul.w	r3, r1, r3
 800233c:	4413      	add	r3, r2
 800233e:	3334      	adds	r3, #52	@ 0x34
 8002340:	681a      	ldr	r2, [r3, #0]
 8002342:	7fbb      	ldrb	r3, [r7, #30]
 8002344:	f042 0202 	orr.w	r2, r2, #2
 8002348:	6879      	ldr	r1, [r7, #4]
 800234a:	2054      	movs	r0, #84	@ 0x54
 800234c:	fb00 f303 	mul.w	r3, r0, r3
 8002350:	440b      	add	r3, r1
 8002352:	3334      	adds	r3, #52	@ 0x34
 8002354:	601a      	str	r2, [r3, #0]
                hbms->fault_flags |= BMS_FAULT_UV;
 8002356:	687b      	ldr	r3, [r7, #4]
 8002358:	685b      	ldr	r3, [r3, #4]
 800235a:	f043 0202 	orr.w	r2, r3, #2
 800235e:	687b      	ldr	r3, [r7, #4]
 8002360:	605a      	str	r2, [r3, #4]
                critical_fault = true;
 8002362:	2301      	movs	r3, #1
 8002364:	77fb      	strb	r3, [r7, #31]
            }
            if (sf & 0x10U)   /* Bit 4: COMM fault → possível ring break */
 8002366:	7d7b      	ldrb	r3, [r7, #21]
 8002368:	f003 0310 	and.w	r3, r3, #16
 800236c:	2b00      	cmp	r3, #0
 800236e:	d017      	beq.n	80023a0 <BMS_ProcessFaults+0x17c>
            {
                hbms->slave[s].fault_flags |= BMS_FAULT_COMM;
 8002370:	7fbb      	ldrb	r3, [r7, #30]
 8002372:	687a      	ldr	r2, [r7, #4]
 8002374:	2154      	movs	r1, #84	@ 0x54
 8002376:	fb01 f303 	mul.w	r3, r1, r3
 800237a:	4413      	add	r3, r2
 800237c:	3334      	adds	r3, #52	@ 0x34
 800237e:	681a      	ldr	r2, [r3, #0]
 8002380:	7fbb      	ldrb	r3, [r7, #30]
 8002382:	f042 0208 	orr.w	r2, r2, #8
 8002386:	6879      	ldr	r1, [r7, #4]
 8002388:	2054      	movs	r0, #84	@ 0x54
 800238a:	fb00 f303 	mul.w	r3, r0, r3
 800238e:	440b      	add	r3, r1
 8002390:	3334      	adds	r3, #52	@ 0x34
 8002392:	601a      	str	r2, [r3, #0]
                hbms->fault_flags |= BMS_FAULT_RING_BREAK;
 8002394:	687b      	ldr	r3, [r7, #4]
 8002396:	685b      	ldr	r3, [r3, #4]
 8002398:	f043 0210 	orr.w	r2, r3, #16
 800239c:	687b      	ldr	r3, [r7, #4]
 800239e:	605a      	str	r2, [r3, #4]
        for (uint8_t s = 0U; s < BMS_NUM_SLAVES; s++)
 80023a0:	7fbb      	ldrb	r3, [r7, #30]
 80023a2:	3301      	adds	r3, #1
 80023a4:	77bb      	strb	r3, [r7, #30]
 80023a6:	7fbb      	ldrb	r3, [r7, #30]
 80023a8:	2b01      	cmp	r3, #1
 80023aa:	d98f      	bls.n	80022cc <BMS_ProcessFaults+0xa8>
 80023ac:	e008      	b.n	80023c0 <BMS_ProcessFaults+0x19c>
        }
    }
    else
    {
        /* Falha na leitura Broadcast -> possível rotura do anel */
        hbms->fault_flags |= BMS_FAULT_RING_BREAK;
 80023ae:	687b      	ldr	r3, [r7, #4]
 80023b0:	685b      	ldr	r3, [r3, #4]
 80023b2:	f043 0210 	orr.w	r2, r3, #16
 80023b6:	687b      	ldr	r3, [r7, #4]
 80023b8:	605a      	str	r2, [r3, #4]
        hbms->ring_intact   = false;
 80023ba:	687b      	ldr	r3, [r7, #4]
 80023bc:	2200      	movs	r2, #0
 80023be:	721a      	strb	r2, [r3, #8]
     * o byte 0x0531 (FAULT_COMM). Uma falha transiente de CRC activa FAULT_COMM;
     * o código confundia-o com cabo partido → BMS_FAULT_OPEN_WIRE → bloqueio
     * permanente (Open Wire é não-recuperável em BMS_FaultRecoveryAttempt).
     * Solução: ler apenas 1 byte — exactamente FAULT_VCOW, sem adjacências. */
    uint8_t vcow_buf[BMS_NUM_SLAVES * 1U];
    if (BMS_ReadBroadcast(hbms, REG_SLAVE_FAULT_VCOW, vcow_buf, 1U) == BMS_OK)
 80023c0:	f107 0208 	add.w	r2, r7, #8
 80023c4:	2301      	movs	r3, #1
 80023c6:	f44f 61a6 	mov.w	r1, #1328	@ 0x530
 80023ca:	6878      	ldr	r0, [r7, #4]
 80023cc:	f7fe fdaa 	bl	8000f24 <BMS_ReadBroadcast>
 80023d0:	4603      	mov	r3, r0
 80023d2:	2b00      	cmp	r3, #0
 80023d4:	d127      	bne.n	8002426 <BMS_ProcessFaults+0x202>
    {
        for (uint8_t s = 0U; s < BMS_NUM_SLAVES; s++)
 80023d6:	2300      	movs	r3, #0
 80023d8:	777b      	strb	r3, [r7, #29]
 80023da:	e021      	b.n	8002420 <BMS_ProcessFaults+0x1fc>
        {
            if (vcow_buf[s] != 0U)
 80023dc:	7f7b      	ldrb	r3, [r7, #29]
 80023de:	3320      	adds	r3, #32
 80023e0:	443b      	add	r3, r7
 80023e2:	f813 3c18 	ldrb.w	r3, [r3, #-24]
 80023e6:	2b00      	cmp	r3, #0
 80023e8:	d017      	beq.n	800241a <BMS_ProcessFaults+0x1f6>
            {
                hbms->slave[s].fault_flags |= BMS_FAULT_OPEN_WIRE;
 80023ea:	7f7b      	ldrb	r3, [r7, #29]
 80023ec:	687a      	ldr	r2, [r7, #4]
 80023ee:	2154      	movs	r1, #84	@ 0x54
 80023f0:	fb01 f303 	mul.w	r3, r1, r3
 80023f4:	4413      	add	r3, r2
 80023f6:	3334      	adds	r3, #52	@ 0x34
 80023f8:	681a      	ldr	r2, [r3, #0]
 80023fa:	7f7b      	ldrb	r3, [r7, #29]
 80023fc:	f042 0220 	orr.w	r2, r2, #32
 8002400:	6879      	ldr	r1, [r7, #4]
 8002402:	2054      	movs	r0, #84	@ 0x54
 8002404:	fb00 f303 	mul.w	r3, r0, r3
 8002408:	440b      	add	r3, r1
 800240a:	3334      	adds	r3, #52	@ 0x34
 800240c:	601a      	str	r2, [r3, #0]
                hbms->fault_flags          |= BMS_FAULT_OPEN_WIRE;
 800240e:	687b      	ldr	r3, [r7, #4]
 8002410:	685b      	ldr	r3, [r3, #4]
 8002412:	f043 0220 	orr.w	r2, r3, #32
 8002416:	687b      	ldr	r3, [r7, #4]
 8002418:	605a      	str	r2, [r3, #4]
        for (uint8_t s = 0U; s < BMS_NUM_SLAVES; s++)
 800241a:	7f7b      	ldrb	r3, [r7, #29]
 800241c:	3301      	adds	r3, #1
 800241e:	777b      	strb	r3, [r7, #29]
 8002420:	7f7b      	ldrb	r3, [r7, #29]
 8002422:	2b01      	cmp	r3, #1
 8002424:	d9da      	bls.n	80023dc <BMS_ProcessFaults+0x1b8>
            }
        }
    }

    /* --- Acções de Segurança --- */
    if (critical_fault ||
 8002426:	7ffb      	ldrb	r3, [r7, #31]
 8002428:	2b00      	cmp	r3, #0
 800242a:	d105      	bne.n	8002438 <BMS_ProcessFaults+0x214>
        (hbms->fault_flags & (BMS_FAULT_OV | BMS_FAULT_UV | BMS_FAULT_OT)))
 800242c:	687b      	ldr	r3, [r7, #4]
 800242e:	685b      	ldr	r3, [r3, #4]
 8002430:	f003 0307 	and.w	r3, r3, #7
    if (critical_fault ||
 8002434:	2b00      	cmp	r3, #0
 8002436:	d003      	beq.n	8002440 <BMS_ProcessFaults+0x21c>
    {
        BMS_EmergencyShutdown(hbms);
 8002438:	6878      	ldr	r0, [r7, #4]
 800243a:	f000 f917 	bl	800266c <BMS_EmergencyShutdown>
 800243e:	e010      	b.n	8002462 <BMS_ProcessFaults+0x23e>
    }
    else if (hbms->fault_flags & BMS_FAULT_RING_BREAK)
 8002440:	687b      	ldr	r3, [r7, #4]
 8002442:	685b      	ldr	r3, [r3, #4]
 8002444:	f003 0310 	and.w	r3, r3, #16
 8002448:	2b00      	cmp	r3, #0
 800244a:	d00a      	beq.n	8002462 <BMS_ProcessFaults+0x23e>
    {
        /* Tentar recuperação do anel antes de desligar */
        BMS_Status_t ring_status = BMS_RingRecovery(hbms);
 800244c:	6878      	ldr	r0, [r7, #4]
 800244e:	f000 f81c 	bl	800248a <BMS_RingRecovery>
 8002452:	4603      	mov	r3, r0
 8002454:	753b      	strb	r3, [r7, #20]
        if (ring_status != BMS_OK)
 8002456:	7d3b      	ldrb	r3, [r7, #20]
 8002458:	2b00      	cmp	r3, #0
 800245a:	d002      	beq.n	8002462 <BMS_ProcessFaults+0x23e>
        {
            BMS_EmergencyShutdown(hbms);
 800245c:	6878      	ldr	r0, [r7, #4]
 800245e:	f000 f905 	bl	800266c <BMS_EmergencyShutdown>
        }
    }

    hbms->state = (hbms->fault_flags != 0U) ? BMS_STATE_FAULT : BMS_STATE_MONITORING;
 8002462:	687b      	ldr	r3, [r7, #4]
 8002464:	685b      	ldr	r3, [r3, #4]
 8002466:	2b00      	cmp	r3, #0
 8002468:	d001      	beq.n	800246e <BMS_ProcessFaults+0x24a>
 800246a:	2205      	movs	r2, #5
 800246c:	e000      	b.n	8002470 <BMS_ProcessFaults+0x24c>
 800246e:	2203      	movs	r2, #3
 8002470:	687b      	ldr	r3, [r7, #4]
 8002472:	701a      	strb	r2, [r3, #0]

    return (hbms->fault_flags != 0U) ? BMS_ERR_FAULT_ACTIVE : BMS_OK;
 8002474:	687b      	ldr	r3, [r7, #4]
 8002476:	685b      	ldr	r3, [r3, #4]
 8002478:	2b00      	cmp	r3, #0
 800247a:	d001      	beq.n	8002480 <BMS_ProcessFaults+0x25c>
 800247c:	2305      	movs	r3, #5
 800247e:	e000      	b.n	8002482 <BMS_ProcessFaults+0x25e>
 8002480:	2300      	movs	r3, #0
}
 8002482:	4618      	mov	r0, r3
 8002484:	3720      	adds	r7, #32
 8002486:	46bd      	mov	sp, r7
 8002488:	bd80      	pop	{r7, pc}

0800248a <BMS_RingRecovery>:
 *
 * @param  hbms     Handle do BMS
 * @return BMS_OK se pelo menos um slave for acessível pelo caminho reverso
 */
BMS_Status_t BMS_RingRecovery(BMS_Handle_t *hbms)
{
 800248a:	b580      	push	{r7, lr}
 800248c:	b086      	sub	sp, #24
 800248e:	af02      	add	r7, sp, #8
 8002490:	6078      	str	r0, [r7, #4]
    BMS_Status_t status;
    uint8_t data;

    hbms->state = BMS_STATE_RING_RECOVERY;
 8002492:	687b      	ldr	r3, [r7, #4]
 8002494:	2208      	movs	r2, #8
 8002496:	701a      	strb	r2, [r3, #0]
    hbms->ring_recovery_count++;
 8002498:	687b      	ldr	r3, [r7, #4]
 800249a:	f8d3 30c4 	ldr.w	r3, [r3, #196]	@ 0xc4
 800249e:	1c5a      	adds	r2, r3, #1
 80024a0:	687b      	ldr	r3, [r7, #4]
 80024a2:	f8c3 20c4 	str.w	r2, [r3, #196]	@ 0xc4
    hbms->ring_intact = false;   /* Confirma rotura física */
 80024a6:	687b      	ldr	r3, [r7, #4]
 80024a8:	2200      	movs	r2, #0
 80024aa:	721a      	strb	r2, [r3, #8]

    /* Comuta DIR_SEL para o caminho reverso na Bridge */
    data = CTRL1_DIR_SEL;  /* 0x02 */
 80024ac:	2302      	movs	r3, #2
 80024ae:	72bb      	strb	r3, [r7, #10]
    status = BMS_WriteSingleDevice(hbms, BMS_ADDR_BRIDGE,
 80024b0:	f107 030a 	add.w	r3, r7, #10
 80024b4:	2201      	movs	r2, #1
 80024b6:	9200      	str	r2, [sp, #0]
 80024b8:	f240 3209 	movw	r2, #777	@ 0x309
 80024bc:	2100      	movs	r1, #0
 80024be:	6878      	ldr	r0, [r7, #4]
 80024c0:	f7fe fb04 	bl	8000acc <BMS_WriteSingleDevice>
 80024c4:	4603      	mov	r3, r0
 80024c6:	73bb      	strb	r3, [r7, #14]
                                    REG_BRIDGE_CONTROL1, &data, 1U);
    if (status != BMS_OK)
 80024c8:	7bbb      	ldrb	r3, [r7, #14]
 80024ca:	2b00      	cmp	r3, #0
 80024cc:	d001      	beq.n	80024d2 <BMS_RingRecovery+0x48>
    {
        /* Bridge inacessível - falha total */
        return BMS_ERR_COMM;
 80024ce:	2303      	movs	r3, #3
 80024d0:	e071      	b.n	80025b6 <BMS_RingRecovery+0x12c>
    }
    BMS_DelayUs(hbms, DELAY_DIR_SEL_SWITCH_US);  /* 100 µs */
 80024d2:	2164      	movs	r1, #100	@ 0x64
 80024d4:	6878      	ldr	r0, [r7, #4]
 80024d6:	f7fe f9a6 	bl	8000826 <BMS_DelayUs>

    /* Testa comunicação com ambos os slaves pelo caminho reverso
     * NOTA: usa address_rev[] directamente - NÃO condicionado a ring_intact */
    uint8_t test_buf[1U];
    bool slave0_rev_ok = (BMS_ReadSingleDevice(hbms, hbms->slave[0].address_rev,
 80024da:	687b      	ldr	r3, [r7, #4]
 80024dc:	7b59      	ldrb	r1, [r3, #13]
 80024de:	f107 0308 	add.w	r3, r7, #8
 80024e2:	2201      	movs	r2, #1
 80024e4:	9200      	str	r2, [sp, #0]
 80024e6:	2203      	movs	r2, #3
 80024e8:	6878      	ldr	r0, [r7, #4]
 80024ea:	f7fe fb97 	bl	8000c1c <BMS_ReadSingleDevice>
 80024ee:	4603      	mov	r3, r0
 80024f0:	2b00      	cmp	r3, #0
 80024f2:	bf0c      	ite	eq
 80024f4:	2301      	moveq	r3, #1
 80024f6:	2300      	movne	r3, #0
 80024f8:	737b      	strb	r3, [r7, #13]
                                                REG_ACTIVE_CELL, test_buf, 1U) == BMS_OK);
    bool slave1_rev_ok = (BMS_ReadSingleDevice(hbms, hbms->slave[1].address_rev,
 80024fa:	687b      	ldr	r3, [r7, #4]
 80024fc:	f893 1061 	ldrb.w	r1, [r3, #97]	@ 0x61
 8002500:	f107 0308 	add.w	r3, r7, #8
 8002504:	2201      	movs	r2, #1
 8002506:	9200      	str	r2, [sp, #0]
 8002508:	2203      	movs	r2, #3
 800250a:	6878      	ldr	r0, [r7, #4]
 800250c:	f7fe fb86 	bl	8000c1c <BMS_ReadSingleDevice>
 8002510:	4603      	mov	r3, r0
 8002512:	2b00      	cmp	r3, #0
 8002514:	bf0c      	ite	eq
 8002516:	2301      	moveq	r3, #1
 8002518:	2300      	movne	r3, #0
 800251a:	733b      	strb	r3, [r7, #12]
                                                REG_ACTIVE_CELL, test_buf, 1U) == BMS_OK);

    if (slave0_rev_ok || slave1_rev_ok)
 800251c:	7b7b      	ldrb	r3, [r7, #13]
 800251e:	2b00      	cmp	r3, #0
 8002520:	d102      	bne.n	8002528 <BMS_RingRecovery+0x9e>
 8002522:	7b3b      	ldrb	r3, [r7, #12]
 8002524:	2b00      	cmp	r3, #0
 8002526:	d039      	beq.n	800259c <BMS_RingRecovery+0x112>
    {
        /* Caminho reverso funcional: activar routing reverso permanente
         * As funções de leitura passam a usar address_rev[] até próxima init */
        hbms->ring_using_reverse = true;
 8002528:	687b      	ldr	r3, [r7, #4]
 800252a:	2201      	movs	r2, #1
 800252c:	725a      	strb	r2, [r3, #9]
        hbms->fault_flags &= ~BMS_FAULT_RING_BREAK;
 800252e:	687b      	ldr	r3, [r7, #4]
 8002530:	685b      	ldr	r3, [r3, #4]
 8002532:	f023 0210 	bic.w	r2, r3, #16
 8002536:	687b      	ldr	r3, [r7, #4]
 8002538:	605a      	str	r2, [r3, #4]
         * de operar, anulando todo o propósito do Ring Recovery.
         * O modo degradado (anel físico partido) é comunicado à VCU pelo
         * campo ring_intact=false no pacote de telemetria, não por fault_flag. */

        /* Actualizar endereços activos para o caminho reverso */
        for (uint8_t s = 0U; s < BMS_NUM_SLAVES; s++)
 800253a:	2300      	movs	r3, #0
 800253c:	73fb      	strb	r3, [r7, #15]
 800253e:	e025      	b.n	800258c <BMS_RingRecovery+0x102>
        {
            uint8_t tmp         = hbms->slave[s].address;
 8002540:	7bfb      	ldrb	r3, [r7, #15]
 8002542:	687a      	ldr	r2, [r7, #4]
 8002544:	2154      	movs	r1, #84	@ 0x54
 8002546:	fb01 f303 	mul.w	r3, r1, r3
 800254a:	4413      	add	r3, r2
 800254c:	330c      	adds	r3, #12
 800254e:	781b      	ldrb	r3, [r3, #0]
 8002550:	72fb      	strb	r3, [r7, #11]
            hbms->slave[s].address     = hbms->slave[s].address_rev;
 8002552:	7bfa      	ldrb	r2, [r7, #15]
 8002554:	7bfb      	ldrb	r3, [r7, #15]
 8002556:	6879      	ldr	r1, [r7, #4]
 8002558:	2054      	movs	r0, #84	@ 0x54
 800255a:	fb00 f202 	mul.w	r2, r0, r2
 800255e:	440a      	add	r2, r1
 8002560:	320d      	adds	r2, #13
 8002562:	7810      	ldrb	r0, [r2, #0]
 8002564:	687a      	ldr	r2, [r7, #4]
 8002566:	2154      	movs	r1, #84	@ 0x54
 8002568:	fb01 f303 	mul.w	r3, r1, r3
 800256c:	4413      	add	r3, r2
 800256e:	330c      	adds	r3, #12
 8002570:	4602      	mov	r2, r0
 8002572:	701a      	strb	r2, [r3, #0]
            hbms->slave[s].address_rev = tmp;  /* Guardar original para re-init */
 8002574:	7bfb      	ldrb	r3, [r7, #15]
 8002576:	687a      	ldr	r2, [r7, #4]
 8002578:	2154      	movs	r1, #84	@ 0x54
 800257a:	fb01 f303 	mul.w	r3, r1, r3
 800257e:	4413      	add	r3, r2
 8002580:	330d      	adds	r3, #13
 8002582:	7afa      	ldrb	r2, [r7, #11]
 8002584:	701a      	strb	r2, [r3, #0]
        for (uint8_t s = 0U; s < BMS_NUM_SLAVES; s++)
 8002586:	7bfb      	ldrb	r3, [r7, #15]
 8002588:	3301      	adds	r3, #1
 800258a:	73fb      	strb	r3, [r7, #15]
 800258c:	7bfb      	ldrb	r3, [r7, #15]
 800258e:	2b01      	cmp	r3, #1
 8002590:	d9d6      	bls.n	8002540 <BMS_RingRecovery+0xb6>
        }

        hbms->state = BMS_STATE_MONITORING;
 8002592:	687b      	ldr	r3, [r7, #4]
 8002594:	2203      	movs	r2, #3
 8002596:	701a      	strb	r2, [r3, #0]
        return BMS_OK;
 8002598:	2300      	movs	r3, #0
 800259a:	e00c      	b.n	80025b6 <BMS_RingRecovery+0x12c>
    }

    /* Ambos os caminhos inacessíveis - falha total */
    hbms->ring_using_reverse = false;
 800259c:	687b      	ldr	r3, [r7, #4]
 800259e:	2200      	movs	r2, #0
 80025a0:	725a      	strb	r2, [r3, #9]
    hbms->fault_flags |= BMS_FAULT_COMM;
 80025a2:	687b      	ldr	r3, [r7, #4]
 80025a4:	685b      	ldr	r3, [r3, #4]
 80025a6:	f043 0208 	orr.w	r2, r3, #8
 80025aa:	687b      	ldr	r3, [r7, #4]
 80025ac:	605a      	str	r2, [r3, #4]
    hbms->state = BMS_STATE_FAULT;
 80025ae:	687b      	ldr	r3, [r7, #4]
 80025b0:	2205      	movs	r2, #5
 80025b2:	701a      	strb	r2, [r3, #0]
    return BMS_ERR_COMM;
 80025b4:	2303      	movs	r3, #3
}
 80025b6:	4618      	mov	r0, r3
 80025b8:	3710      	adds	r7, #16
 80025ba:	46bd      	mov	sp, r7
 80025bc:	bd80      	pop	{r7, pc}
	...

080025c0 <BMS_ContactorOpen>:
 * @brief  Abre o contactor de potência (desliga a bateria)
 *         O pino do contactor deve ser configurado na inicialização do projecto
 *         Exemplo: GPIOB_PIN_12 ligado ao relay/MOSFET gate do contactor
 */
void BMS_ContactorOpen(BMS_Handle_t *hbms)
{
 80025c0:	b580      	push	{r7, lr}
 80025c2:	b082      	sub	sp, #8
 80025c4:	af00      	add	r7, sp, #0
 80025c6:	6078      	str	r0, [r7, #4]
    /* Parar balanceamento ANTES de abrir o contactor.
     * Com o contactor aberto, as células ficam isoladas do exterior.
     * Continuar a balancear sem via de dissipação térmica é inseguro. */
    if (hbms->is_balancing)
 80025c8:	687b      	ldr	r3, [r7, #4]
 80025ca:	f893 30dd 	ldrb.w	r3, [r3, #221]	@ 0xdd
 80025ce:	2b00      	cmp	r3, #0
 80025d0:	d002      	beq.n	80025d8 <BMS_ContactorOpen+0x18>
    {
        (void)BMS_StopAllBalancing(hbms);
 80025d2:	6878      	ldr	r0, [r7, #4]
 80025d4:	f000 f9b7 	bl	8002946 <BMS_StopAllBalancing>
    }
    HAL_GPIO_WritePin(GPIOB, GPIO_PIN_12, GPIO_PIN_RESET);
 80025d8:	2200      	movs	r2, #0
 80025da:	f44f 5180 	mov.w	r1, #4096	@ 0x1000
 80025de:	4805      	ldr	r0, [pc, #20]	@ (80025f4 <BMS_ContactorOpen+0x34>)
 80025e0:	f002 fc62 	bl	8004ea8 <HAL_GPIO_WritePin>
    hbms->contactor_closed = false;
 80025e4:	687b      	ldr	r3, [r7, #4]
 80025e6:	2200      	movs	r2, #0
 80025e8:	729a      	strb	r2, [r3, #10]
}
 80025ea:	bf00      	nop
 80025ec:	3708      	adds	r7, #8
 80025ee:	46bd      	mov	sp, r7
 80025f0:	bd80      	pop	{r7, pc}
 80025f2:	bf00      	nop
 80025f4:	40020400 	.word	0x40020400

080025f8 <BMS_ContactorClose>:
 *  [2] fault_flags == 0      — sem falhas mapeadas pelo software
 *  [3] state == MONITORING   — máquina de estados em operação normal
 *  [4] min_cell_mv >= CELL_UV_MV && max_cell_mv <= CELL_OV_MV — tensões OK
 */
void BMS_ContactorClose(BMS_Handle_t *hbms)
{
 80025f8:	b580      	push	{r7, lr}
 80025fa:	b082      	sub	sp, #8
 80025fc:	af00      	add	r7, sp, #0
 80025fe:	6078      	str	r0, [r7, #4]
     * BARREIRA 1 (CRÍTICA): evento NFAULT de hardware ainda por processar
     * A leitura atómica não limpa a flag — apenas verifica a presença.
     * Enquanto nfault_pending != 0, o fecho é incondicionalmente proibido,
     * independentemente de qualquer outro estado do sistema.
     * --------------------------------------------------------------- */
    if (__atomic_load_n(&hbms->nfault_pending, __ATOMIC_SEQ_CST) != 0U)
 8002600:	687b      	ldr	r3, [r7, #4]
 8002602:	f503 7394 	add.w	r3, r3, #296	@ 0x128
 8002606:	f3bf 8f5b 	dmb	ish
 800260a:	681b      	ldr	r3, [r3, #0]
 800260c:	f3bf 8f5b 	dmb	ish
 8002610:	2b00      	cmp	r3, #0
 8002612:	d11e      	bne.n	8002652 <BMS_ContactorClose+0x5a>
    {
        return;   /* Abortar: evento de hardware não dissecado */
    }

    /* BARREIRA 2: sem falhas mapeadas pelo software */
    if (hbms->fault_flags != 0U)
 8002614:	687b      	ldr	r3, [r7, #4]
 8002616:	685b      	ldr	r3, [r3, #4]
 8002618:	2b00      	cmp	r3, #0
 800261a:	d11c      	bne.n	8002656 <BMS_ContactorClose+0x5e>
    {
        return;
    }

    /* BARREIRA 3: máquina de estados em operação normal */
    if (hbms->state != BMS_STATE_MONITORING)
 800261c:	687b      	ldr	r3, [r7, #4]
 800261e:	781b      	ldrb	r3, [r3, #0]
 8002620:	2b03      	cmp	r3, #3
 8002622:	d11a      	bne.n	800265a <BMS_ContactorClose+0x62>
    {
        return;
    }

    /* BARREIRA 4: tensões celulares dentro dos limites operacionais */
    if ((hbms->min_cell_mv < CELL_UV_MV) ||
 8002624:	687b      	ldr	r3, [r7, #4]
 8002626:	f8b3 30b8 	ldrh.w	r3, [r3, #184]	@ 0xb8
 800262a:	f640 32b7 	movw	r2, #2999	@ 0xbb7
 800262e:	4293      	cmp	r3, r2
 8002630:	d915      	bls.n	800265e <BMS_ContactorClose+0x66>
        (hbms->max_cell_mv > CELL_OV_MV))
 8002632:	687b      	ldr	r3, [r7, #4]
 8002634:	f8b3 30ba 	ldrh.w	r3, [r3, #186]	@ 0xba
    if ((hbms->min_cell_mv < CELL_UV_MV) ||
 8002638:	f5b3 6f61 	cmp.w	r3, #3600	@ 0xe10
 800263c:	d80f      	bhi.n	800265e <BMS_ContactorClose+0x66>
    {
        return;
    }

    /* Todas as barreiras ultrapassadas — fecho autorizado */
    HAL_GPIO_WritePin(GPIOB, GPIO_PIN_12, GPIO_PIN_SET);
 800263e:	2201      	movs	r2, #1
 8002640:	f44f 5180 	mov.w	r1, #4096	@ 0x1000
 8002644:	4808      	ldr	r0, [pc, #32]	@ (8002668 <BMS_ContactorClose+0x70>)
 8002646:	f002 fc2f 	bl	8004ea8 <HAL_GPIO_WritePin>
    hbms->contactor_closed = true;
 800264a:	687b      	ldr	r3, [r7, #4]
 800264c:	2201      	movs	r2, #1
 800264e:	729a      	strb	r2, [r3, #10]
 8002650:	e006      	b.n	8002660 <BMS_ContactorClose+0x68>
        return;   /* Abortar: evento de hardware não dissecado */
 8002652:	bf00      	nop
 8002654:	e004      	b.n	8002660 <BMS_ContactorClose+0x68>
        return;
 8002656:	bf00      	nop
 8002658:	e002      	b.n	8002660 <BMS_ContactorClose+0x68>
        return;
 800265a:	bf00      	nop
 800265c:	e000      	b.n	8002660 <BMS_ContactorClose+0x68>
        return;
 800265e:	bf00      	nop
}
 8002660:	3708      	adds	r7, #8
 8002662:	46bd      	mov	sp, r7
 8002664:	bd80      	pop	{r7, pc}
 8002666:	bf00      	nop
 8002668:	40020400 	.word	0x40020400

0800266c <BMS_EmergencyShutdown>:
 *         Chamado em condições críticas (OV, UV, OT, Ring fail total)
 *
 * @param  hbms     Handle do BMS
 */
void BMS_EmergencyShutdown(BMS_Handle_t *hbms)
{
 800266c:	b580      	push	{r7, lr}
 800266e:	b082      	sub	sp, #8
 8002670:	af00      	add	r7, sp, #0
 8002672:	6078      	str	r0, [r7, #4]
    /* Abre o contactor imediatamente (pára balanceamento + GPIO RESET) */
    BMS_ContactorOpen(hbms);
 8002674:	6878      	ldr	r0, [r7, #4]
 8002676:	f7ff ffa3 	bl	80025c0 <BMS_ContactorOpen>
     * BMS_ERR_FAULT_ACTIVE — BMS_Task_100ms retorna cedo, saltando
     * BMS_UpdateHardwareInterlocks. Nos ciclos seguintes, o guard de FAULT
     * volta a saltar essa função. Sem esta linha, BMS_OK_PIN ficaria preso em
     * HIGH após um fault de software e a VCU veria "BMS OK" com o contactor
     * aberto. Espelha o comportamento da ISR NFAULT para faults de hardware. */
    HAL_GPIO_WritePin(BMS_OK_PORT, BMS_OK_PIN, GPIO_PIN_RESET);
 800267a:	2200      	movs	r2, #0
 800267c:	f44f 5100 	mov.w	r1, #8192	@ 0x2000
 8002680:	4804      	ldr	r0, [pc, #16]	@ (8002694 <BMS_EmergencyShutdown+0x28>)
 8002682:	f002 fc11 	bl	8004ea8 <HAL_GPIO_WritePin>

    /* Actualiza estado */
    hbms->state = BMS_STATE_FAULT;
 8002686:	687b      	ldr	r3, [r7, #4]
 8002688:	2205      	movs	r2, #5
 800268a:	701a      	strb	r2, [r3, #0]

    /* Opcional: sinalização LED ou log de evento */
    /* BMS_Log_Event(hbms, "EMERGENCY SHUTDOWN", hbms->fault_flags); */
}
 800268c:	bf00      	nop
 800268e:	3708      	adds	r7, #8
 8002690:	46bd      	mov	sp, r7
 8002692:	bd80      	pop	{r7, pc}
 8002694:	40020400 	.word	0x40020400

08002698 <BMS_Task_100ms>:
 *
 * @param  hbms     Handle do BMS
 * @return BMS_OK ou código de erro
 */
BMS_Status_t BMS_Task_100ms(BMS_Handle_t *hbms)
{
 8002698:	b580      	push	{r7, lr}
 800269a:	b084      	sub	sp, #16
 800269c:	af00      	add	r7, sp, #0
 800269e:	6078      	str	r0, [r7, #4]
    BMS_Status_t status = BMS_OK;
 80026a0:	2300      	movs	r3, #0
 80026a2:	73fb      	strb	r3, [r7, #15]

    if (hbms == NULL) { return BMS_ERR_INVALID_PARAM; }
 80026a4:	687b      	ldr	r3, [r7, #4]
 80026a6:	2b00      	cmp	r3, #0
 80026a8:	d101      	bne.n	80026ae <BMS_Task_100ms+0x16>
 80026aa:	2304      	movs	r3, #4
 80026ac:	e072      	b.n	8002794 <BMS_Task_100ms+0xfc>
     * Usa __atomic_load_n para leitura consistente da flag volatile.
     * NÃO limpa aqui — a limpeza atómica é feita dentro de
     * BMS_ProcessFaults() via __atomic_exchange_n, garantindo que
     * um evento que chegue entre esta leitura e o processamento
     * não é perdido silenciosamente. */
    if (__atomic_load_n(&hbms->nfault_pending, __ATOMIC_SEQ_CST) != 0U)
 80026ae:	687b      	ldr	r3, [r7, #4]
 80026b0:	f503 7394 	add.w	r3, r3, #296	@ 0x128
 80026b4:	f3bf 8f5b 	dmb	ish
 80026b8:	681b      	ldr	r3, [r3, #0]
 80026ba:	f3bf 8f5b 	dmb	ish
 80026be:	2b00      	cmp	r3, #0
 80026c0:	d008      	beq.n	80026d4 <BMS_Task_100ms+0x3c>
    {
        BMS_ProcessFaults(hbms);
 80026c2:	6878      	ldr	r0, [r7, #4]
 80026c4:	f7ff fdae 	bl	8002224 <BMS_ProcessFaults>
        /* Contactor já foi aberto na ISR. Se estado=FAULT, interrompe ciclo. */
        if (hbms->state == BMS_STATE_FAULT)
 80026c8:	687b      	ldr	r3, [r7, #4]
 80026ca:	781b      	ldrb	r3, [r3, #0]
 80026cc:	2b05      	cmp	r3, #5
 80026ce:	d101      	bne.n	80026d4 <BMS_Task_100ms+0x3c>
        {
            return BMS_ERR_FAULT_ACTIVE;
 80026d0:	2305      	movs	r3, #5
 80026d2:	e05f      	b.n	8002794 <BMS_Task_100ms+0xfc>
     * BUG-2 CORRIGIDO: a versão anterior só excluía BMS_STATE_FAULT.
     * Com SHUTDOWN apenas como flag de variável (sem hardware dormido),
     * BMS_CheckProtections detectava a falha, repunha state=FAULT e o
     * super-loop reiniciava os contadores → ciclo infinito de tentativas.
     * SLEEP e UNINITIALIZED têm ADCs inactivos: medir seria ler lixo. */
    if ((hbms->state == BMS_STATE_FAULT)        ||
 80026d4:	687b      	ldr	r3, [r7, #4]
 80026d6:	781b      	ldrb	r3, [r3, #0]
 80026d8:	2b05      	cmp	r3, #5
 80026da:	d00b      	beq.n	80026f4 <BMS_Task_100ms+0x5c>
        (hbms->state == BMS_STATE_SHUTDOWN)     ||
 80026dc:	687b      	ldr	r3, [r7, #4]
 80026de:	781b      	ldrb	r3, [r3, #0]
    if ((hbms->state == BMS_STATE_FAULT)        ||
 80026e0:	2b06      	cmp	r3, #6
 80026e2:	d007      	beq.n	80026f4 <BMS_Task_100ms+0x5c>
        (hbms->state == BMS_STATE_SLEEP)        ||
 80026e4:	687b      	ldr	r3, [r7, #4]
 80026e6:	781b      	ldrb	r3, [r3, #0]
        (hbms->state == BMS_STATE_SHUTDOWN)     ||
 80026e8:	2b07      	cmp	r3, #7
 80026ea:	d003      	beq.n	80026f4 <BMS_Task_100ms+0x5c>
        (hbms->state == BMS_STATE_UNINITIALIZED))
 80026ec:	687b      	ldr	r3, [r7, #4]
 80026ee:	781b      	ldrb	r3, [r3, #0]
        (hbms->state == BMS_STATE_SLEEP)        ||
 80026f0:	2b00      	cmp	r3, #0
 80026f2:	d101      	bne.n	80026f8 <BMS_Task_100ms+0x60>
    {
        return BMS_ERR_FAULT_ACTIVE;
 80026f4:	2305      	movs	r3, #5
 80026f6:	e04d      	b.n	8002794 <BMS_Task_100ms+0xfc>
     * taxa fixa de dizimação interna. Duas leituras UART consecutivas separadas
     * por ~3 µs extraem fisicamente a MESMA conversão — a comparação valida
     * apenas a integridade do link UART, que o CRC-16/MODBUS já garante.
     * Redundância ASIL-D real requer o ADC de diagnóstico secundário do silício
     * (canal independente), não a releitura do mesmo registo. */
    status = BMS_ReadAllCellVoltages(hbms);
 80026f8:	6878      	ldr	r0, [r7, #4]
 80026fa:	f7ff facc 	bl	8001c96 <BMS_ReadAllCellVoltages>
 80026fe:	4603      	mov	r3, r0
 8002700:	73fb      	strb	r3, [r7, #15]
    if (status != BMS_OK)
 8002702:	7bfb      	ldrb	r3, [r7, #15]
 8002704:	2b00      	cmp	r3, #0
 8002706:	d006      	beq.n	8002716 <BMS_Task_100ms+0x7e>
    {
        hbms->comm_error_count++;
 8002708:	687b      	ldr	r3, [r7, #4]
 800270a:	f8d3 30c8 	ldr.w	r3, [r3, #200]	@ 0xc8
 800270e:	1c5a      	adds	r2, r3, #1
 8002710:	687b      	ldr	r3, [r7, #4]
 8002712:	f8c3 20c8 	str.w	r2, [r3, #200]	@ 0xc8
    }

    /* --- Leitura de temperaturas --- */
    status = BMS_ReadAllTemperatures(hbms);
 8002716:	6878      	ldr	r0, [r7, #4]
 8002718:	f7ff fbc8 	bl	8001eac <BMS_ReadAllTemperatures>
 800271c:	4603      	mov	r3, r0
 800271e:	73fb      	strb	r3, [r7, #15]

    /* --- Tensão HV do barramento (pré-carga) --- */
    (void)BMS_ReadInverterVoltage(hbms);
 8002720:	6878      	ldr	r0, [r7, #4]
 8002722:	f7ff fc4b 	bl	8001fbc <BMS_ReadInverterVoltage>
     * mascarar transitórios reais. Se o comparador OV de hardware (NFAULT) disparar
     * por um pico que o filtro IIR suaviza, a telemetria SW não corrobora o evento
     * → mismatch HW/SW nos registos de diagnóstico post-mortem.
     * FTTI (Fault Tolerant Time Interval) exige que SW reaja ao mesmo transitório
     * que o HW, sem filtragem adicional na cadeia de segurança. */
    status = BMS_CheckProtections(hbms);
 8002726:	6878      	ldr	r0, [r7, #4]
 8002728:	f7ff fc90 	bl	800204c <BMS_CheckProtections>
 800272c:	4603      	mov	r3, r0
 800272e:	73fb      	strb	r3, [r7, #15]
    if (status == BMS_ERR_FAULT_ACTIVE)
 8002730:	7bfb      	ldrb	r3, [r7, #15]
 8002732:	2b05      	cmp	r3, #5
 8002734:	d101      	bne.n	800273a <BMS_Task_100ms+0xa2>
    {
        return BMS_ERR_FAULT_ACTIVE;
 8002736:	2305      	movs	r3, #5
 8002738:	e02c      	b.n	8002794 <BMS_Task_100ms+0xfc>
     * Os dados filtrados são usados por:
     *   - BMS_RunPassiveBalancing (decisão de delta suavizada)
     *   - BMS_MasterComm_Task_100ms (telemetria VCU, ecrã de cabina)
     *   - BMS_PrintStatus (debug)
     * NÃO são usados por BMS_CheckProtections (que já executou com raw acima). */
    BMS_ApplyVoltageFilter(hbms);
 800273a:	6878      	ldr	r0, [r7, #4]
 800273c:	f000 fa30 	bl	8002ba0 <BMS_ApplyVoltageFilter>
     * período mínimo de ~30 minutos). Com contactor fechado, mantém o
     * último SoC válido. Para estimação dinâmica sob carga, implementar
     * Coulomb Counting ou Extended Kalman Filter (requer sensor de corrente).
     *
     * Proxy sem sensor de corrente: contactor_closed == false implica I ≈ 0. */
    if (!hbms->contactor_closed)
 8002740:	687b      	ldr	r3, [r7, #4]
 8002742:	7a9b      	ldrb	r3, [r3, #10]
 8002744:	b2db      	uxtb	r3, r3
 8002746:	f083 0301 	eor.w	r3, r3, #1
 800274a:	b2db      	uxtb	r3, r3
 800274c:	2b00      	cmp	r3, #0
 800274e:	d01a      	beq.n	8002786 <BMS_Task_100ms+0xee>
    {
        if ((hbms->min_cell_mv > 0U) && (hbms->max_cell_mv > 0U))
 8002750:	687b      	ldr	r3, [r7, #4]
 8002752:	f8b3 30b8 	ldrh.w	r3, [r3, #184]	@ 0xb8
 8002756:	2b00      	cmp	r3, #0
 8002758:	d015      	beq.n	8002786 <BMS_Task_100ms+0xee>
 800275a:	687b      	ldr	r3, [r7, #4]
 800275c:	f8b3 30ba 	ldrh.w	r3, [r3, #186]	@ 0xba
 8002760:	2b00      	cmp	r3, #0
 8002762:	d010      	beq.n	8002786 <BMS_Task_100ms+0xee>
        {
            uint16_t avg_mv = (uint16_t)(hbms->pack_voltage_mv /
 8002764:	687b      	ldr	r3, [r7, #4]
 8002766:	f8d3 30b4 	ldr.w	r3, [r3, #180]	@ 0xb4
 800276a:	4a0c      	ldr	r2, [pc, #48]	@ (800279c <BMS_Task_100ms+0x104>)
 800276c:	fba2 2303 	umull	r2, r3, r2, r3
 8002770:	091b      	lsrs	r3, r3, #4
 8002772:	81bb      	strh	r3, [r7, #12]
                                          (uint32_t)BMS_TOTAL_CELLS);
            hbms->soc_percent = BMS_EstimateSoC(avg_mv);
 8002774:	89bb      	ldrh	r3, [r7, #12]
 8002776:	4618      	mov	r0, r3
 8002778:	f000 fa8a 	bl	8002c90 <BMS_EstimateSoC>
 800277c:	4603      	mov	r3, r0
 800277e:	461a      	mov	r2, r3
 8002780:	687b      	ldr	r3, [r7, #4]
 8002782:	f883 20e4 	strb.w	r2, [r3, #228]	@ 0xe4
        }
    }
    /* Com contactor fechado: hbms->soc_percent mantém o último valor válido */

    /* --- Balanceamento celular passivo --- */
    (void)BMS_RunPassiveBalancing(hbms);
 8002786:	6878      	ldr	r0, [r7, #4]
 8002788:	f000 f917 	bl	80029ba <BMS_RunPassiveBalancing>

    /* --- Actualizar saídas digitais de interlock (BMS_OK, PRECHARGE_OK) --- */
    BMS_UpdateHardwareInterlocks(hbms);
 800278c:	6878      	ldr	r0, [r7, #4]
 800278e:	f000 f9cf 	bl	8002b30 <BMS_UpdateHardwareInterlocks>

    return BMS_OK;
 8002792:	2300      	movs	r3, #0
}
 8002794:	4618      	mov	r0, r3
 8002796:	3710      	adds	r7, #16
 8002798:	46bd      	mov	sp, r7
 800279a:	bd80      	pop	{r7, pc}
 800279c:	88888889 	.word	0x88888889

080027a0 <BMS_GetStateString>:

/**
 * @brief  Retorna string legível para o estado do BMS
 */
const char *BMS_GetStateString(BMS_State_t state)
{
 80027a0:	b480      	push	{r7}
 80027a2:	b083      	sub	sp, #12
 80027a4:	af00      	add	r7, sp, #0
 80027a6:	4603      	mov	r3, r0
 80027a8:	71fb      	strb	r3, [r7, #7]
    switch (state)
 80027aa:	79fb      	ldrb	r3, [r7, #7]
 80027ac:	2b08      	cmp	r3, #8
 80027ae:	d827      	bhi.n	8002800 <BMS_GetStateString+0x60>
 80027b0:	a201      	add	r2, pc, #4	@ (adr r2, 80027b8 <BMS_GetStateString+0x18>)
 80027b2:	f852 f023 	ldr.w	pc, [r2, r3, lsl #2]
 80027b6:	bf00      	nop
 80027b8:	080027dd 	.word	0x080027dd
 80027bc:	080027e1 	.word	0x080027e1
 80027c0:	080027e5 	.word	0x080027e5
 80027c4:	080027e9 	.word	0x080027e9
 80027c8:	080027ed 	.word	0x080027ed
 80027cc:	080027f1 	.word	0x080027f1
 80027d0:	080027f5 	.word	0x080027f5
 80027d4:	080027f9 	.word	0x080027f9
 80027d8:	080027fd 	.word	0x080027fd
    {
        case BMS_STATE_UNINITIALIZED:  return "UNINITIALIZED";
 80027dc:	4b0c      	ldr	r3, [pc, #48]	@ (8002810 <BMS_GetStateString+0x70>)
 80027de:	e010      	b.n	8002802 <BMS_GetStateString+0x62>
        case BMS_STATE_INITIALIZING:   return "INITIALIZING";
 80027e0:	4b0c      	ldr	r3, [pc, #48]	@ (8002814 <BMS_GetStateString+0x74>)
 80027e2:	e00e      	b.n	8002802 <BMS_GetStateString+0x62>
        case BMS_STATE_IDLE:           return "IDLE";
 80027e4:	4b0c      	ldr	r3, [pc, #48]	@ (8002818 <BMS_GetStateString+0x78>)
 80027e6:	e00c      	b.n	8002802 <BMS_GetStateString+0x62>
        case BMS_STATE_MONITORING:     return "MONITORING";
 80027e8:	4b0c      	ldr	r3, [pc, #48]	@ (800281c <BMS_GetStateString+0x7c>)
 80027ea:	e00a      	b.n	8002802 <BMS_GetStateString+0x62>
        case BMS_STATE_BALANCING:      return "BALANCING";
 80027ec:	4b0c      	ldr	r3, [pc, #48]	@ (8002820 <BMS_GetStateString+0x80>)
 80027ee:	e008      	b.n	8002802 <BMS_GetStateString+0x62>
        case BMS_STATE_FAULT:          return "FAULT";
 80027f0:	4b0c      	ldr	r3, [pc, #48]	@ (8002824 <BMS_GetStateString+0x84>)
 80027f2:	e006      	b.n	8002802 <BMS_GetStateString+0x62>
        case BMS_STATE_SHUTDOWN:       return "SHUTDOWN";
 80027f4:	4b0c      	ldr	r3, [pc, #48]	@ (8002828 <BMS_GetStateString+0x88>)
 80027f6:	e004      	b.n	8002802 <BMS_GetStateString+0x62>
        case BMS_STATE_SLEEP:          return "SLEEP";
 80027f8:	4b0c      	ldr	r3, [pc, #48]	@ (800282c <BMS_GetStateString+0x8c>)
 80027fa:	e002      	b.n	8002802 <BMS_GetStateString+0x62>
        case BMS_STATE_RING_RECOVERY:  return "RING_RECOVERY";
 80027fc:	4b0c      	ldr	r3, [pc, #48]	@ (8002830 <BMS_GetStateString+0x90>)
 80027fe:	e000      	b.n	8002802 <BMS_GetStateString+0x62>
        default:                       return "UNKNOWN";
 8002800:	4b0c      	ldr	r3, [pc, #48]	@ (8002834 <BMS_GetStateString+0x94>)
    }
}
 8002802:	4618      	mov	r0, r3
 8002804:	370c      	adds	r7, #12
 8002806:	46bd      	mov	sp, r7
 8002808:	f85d 7b04 	ldr.w	r7, [sp], #4
 800280c:	4770      	bx	lr
 800280e:	bf00      	nop
 8002810:	08008228 	.word	0x08008228
 8002814:	08008238 	.word	0x08008238
 8002818:	08008248 	.word	0x08008248
 800281c:	08008250 	.word	0x08008250
 8002820:	0800825c 	.word	0x0800825c
 8002824:	08008268 	.word	0x08008268
 8002828:	08008270 	.word	0x08008270
 800282c:	0800827c 	.word	0x0800827c
 8002830:	08008284 	.word	0x08008284
 8002834:	08008294 	.word	0x08008294

08002838 <BMS_GetFaultString>:

/**
 * @brief  Retorna string legível para os flags de fault (primeiro activo)
 */
const char *BMS_GetFaultString(uint32_t fault_flags)
{
 8002838:	b480      	push	{r7}
 800283a:	b083      	sub	sp, #12
 800283c:	af00      	add	r7, sp, #0
 800283e:	6078      	str	r0, [r7, #4]
    if (fault_flags == BMS_FAULT_NONE)    { return "NONE"; }
 8002840:	687b      	ldr	r3, [r7, #4]
 8002842:	2b00      	cmp	r3, #0
 8002844:	d101      	bne.n	800284a <BMS_GetFaultString+0x12>
 8002846:	4b24      	ldr	r3, [pc, #144]	@ (80028d8 <BMS_GetFaultString+0xa0>)
 8002848:	e03f      	b.n	80028ca <BMS_GetFaultString+0x92>
    if (fault_flags & BMS_FAULT_OV)       { return "OVER_VOLTAGE"; }
 800284a:	687b      	ldr	r3, [r7, #4]
 800284c:	f003 0301 	and.w	r3, r3, #1
 8002850:	2b00      	cmp	r3, #0
 8002852:	d001      	beq.n	8002858 <BMS_GetFaultString+0x20>
 8002854:	4b21      	ldr	r3, [pc, #132]	@ (80028dc <BMS_GetFaultString+0xa4>)
 8002856:	e038      	b.n	80028ca <BMS_GetFaultString+0x92>
    if (fault_flags & BMS_FAULT_UV)       { return "UNDER_VOLTAGE"; }
 8002858:	687b      	ldr	r3, [r7, #4]
 800285a:	f003 0302 	and.w	r3, r3, #2
 800285e:	2b00      	cmp	r3, #0
 8002860:	d001      	beq.n	8002866 <BMS_GetFaultString+0x2e>
 8002862:	4b1f      	ldr	r3, [pc, #124]	@ (80028e0 <BMS_GetFaultString+0xa8>)
 8002864:	e031      	b.n	80028ca <BMS_GetFaultString+0x92>
    if (fault_flags & BMS_FAULT_OT)       { return "OVER_TEMPERATURE"; }
 8002866:	687b      	ldr	r3, [r7, #4]
 8002868:	f003 0304 	and.w	r3, r3, #4
 800286c:	2b00      	cmp	r3, #0
 800286e:	d001      	beq.n	8002874 <BMS_GetFaultString+0x3c>
 8002870:	4b1c      	ldr	r3, [pc, #112]	@ (80028e4 <BMS_GetFaultString+0xac>)
 8002872:	e02a      	b.n	80028ca <BMS_GetFaultString+0x92>
    if (fault_flags & BMS_FAULT_RING_BREAK) { return "RING_BREAK"; }
 8002874:	687b      	ldr	r3, [r7, #4]
 8002876:	f003 0310 	and.w	r3, r3, #16
 800287a:	2b00      	cmp	r3, #0
 800287c:	d001      	beq.n	8002882 <BMS_GetFaultString+0x4a>
 800287e:	4b1a      	ldr	r3, [pc, #104]	@ (80028e8 <BMS_GetFaultString+0xb0>)
 8002880:	e023      	b.n	80028ca <BMS_GetFaultString+0x92>
    if (fault_flags & BMS_FAULT_OPEN_WIRE) { return "OPEN_WIRE"; }
 8002882:	687b      	ldr	r3, [r7, #4]
 8002884:	f003 0320 	and.w	r3, r3, #32
 8002888:	2b00      	cmp	r3, #0
 800288a:	d001      	beq.n	8002890 <BMS_GetFaultString+0x58>
 800288c:	4b17      	ldr	r3, [pc, #92]	@ (80028ec <BMS_GetFaultString+0xb4>)
 800288e:	e01c      	b.n	80028ca <BMS_GetFaultString+0x92>
    if (fault_flags & BMS_FAULT_COMM)     { return "COMM_ERROR"; }
 8002890:	687b      	ldr	r3, [r7, #4]
 8002892:	f003 0308 	and.w	r3, r3, #8
 8002896:	2b00      	cmp	r3, #0
 8002898:	d001      	beq.n	800289e <BMS_GetFaultString+0x66>
 800289a:	4b15      	ldr	r3, [pc, #84]	@ (80028f0 <BMS_GetFaultString+0xb8>)
 800289c:	e015      	b.n	80028ca <BMS_GetFaultString+0x92>
    if (fault_flags & BMS_FAULT_HB_FAIL)  { return "HEARTBEAT_FAIL"; }
 800289e:	687b      	ldr	r3, [r7, #4]
 80028a0:	f003 0340 	and.w	r3, r3, #64	@ 0x40
 80028a4:	2b00      	cmp	r3, #0
 80028a6:	d001      	beq.n	80028ac <BMS_GetFaultString+0x74>
 80028a8:	4b12      	ldr	r3, [pc, #72]	@ (80028f4 <BMS_GetFaultString+0xbc>)
 80028aa:	e00e      	b.n	80028ca <BMS_GetFaultString+0x92>
    if (fault_flags & BMS_FAULT_CRC)      { return "CRC_ERROR"; }
 80028ac:	687b      	ldr	r3, [r7, #4]
 80028ae:	f003 0380 	and.w	r3, r3, #128	@ 0x80
 80028b2:	2b00      	cmp	r3, #0
 80028b4:	d001      	beq.n	80028ba <BMS_GetFaultString+0x82>
 80028b6:	4b10      	ldr	r3, [pc, #64]	@ (80028f8 <BMS_GetFaultString+0xc0>)
 80028b8:	e007      	b.n	80028ca <BMS_GetFaultString+0x92>
    if (fault_flags & BMS_FAULT_CONTACTOR){ return "CONTACTOR_FAULT"; }
 80028ba:	687b      	ldr	r3, [r7, #4]
 80028bc:	f403 7380 	and.w	r3, r3, #256	@ 0x100
 80028c0:	2b00      	cmp	r3, #0
 80028c2:	d001      	beq.n	80028c8 <BMS_GetFaultString+0x90>
 80028c4:	4b0d      	ldr	r3, [pc, #52]	@ (80028fc <BMS_GetFaultString+0xc4>)
 80028c6:	e000      	b.n	80028ca <BMS_GetFaultString+0x92>
    return "UNKNOWN_FAULT";
 80028c8:	4b0d      	ldr	r3, [pc, #52]	@ (8002900 <BMS_GetFaultString+0xc8>)
}
 80028ca:	4618      	mov	r0, r3
 80028cc:	370c      	adds	r7, #12
 80028ce:	46bd      	mov	sp, r7
 80028d0:	f85d 7b04 	ldr.w	r7, [sp], #4
 80028d4:	4770      	bx	lr
 80028d6:	bf00      	nop
 80028d8:	0800829c 	.word	0x0800829c
 80028dc:	080082a4 	.word	0x080082a4
 80028e0:	080082b4 	.word	0x080082b4
 80028e4:	080082c4 	.word	0x080082c4
 80028e8:	080082d8 	.word	0x080082d8
 80028ec:	080082e4 	.word	0x080082e4
 80028f0:	080082f0 	.word	0x080082f0
 80028f4:	080082fc 	.word	0x080082fc
 80028f8:	0800830c 	.word	0x0800830c
 80028fc:	08008318 	.word	0x08008318
 8002900:	08008328 	.word	0x08008328

08002904 <BMS_SetCellBalancing>:
 * @param  cell_mask    Bitmask de 16 bits (bits 0-14 = células 1-15)
 * @return BMS_OK ou código de erro
 */
BMS_Status_t BMS_SetCellBalancing(BMS_Handle_t *hbms, uint8_t slave_addr,
                                   uint16_t cell_mask)
{
 8002904:	b580      	push	{r7, lr}
 8002906:	b086      	sub	sp, #24
 8002908:	af02      	add	r7, sp, #8
 800290a:	6078      	str	r0, [r7, #4]
 800290c:	460b      	mov	r3, r1
 800290e:	70fb      	strb	r3, [r7, #3]
 8002910:	4613      	mov	r3, r2
 8002912:	803b      	strh	r3, [r7, #0]
    uint8_t data[2U];
    /* byte[0] → CB_CELL1_CTRL: células 1-8 (bits 0-7)
     * byte[1] → CB_CELL9_CTRL: células 9-15 (bits 0-6; bit7 = célula 16 = não activa) */
    data[0] = (uint8_t)(cell_mask & 0xFFU);
 8002914:	883b      	ldrh	r3, [r7, #0]
 8002916:	b2db      	uxtb	r3, r3
 8002918:	733b      	strb	r3, [r7, #12]
    data[1] = (uint8_t)((cell_mask >> 8U) & 0x7FU);  /* Bit 7 = 0: VC16 inactivo */
 800291a:	883b      	ldrh	r3, [r7, #0]
 800291c:	0a1b      	lsrs	r3, r3, #8
 800291e:	b29b      	uxth	r3, r3
 8002920:	b2db      	uxtb	r3, r3
 8002922:	f003 037f 	and.w	r3, r3, #127	@ 0x7f
 8002926:	b2db      	uxtb	r3, r3
 8002928:	737b      	strb	r3, [r7, #13]
    return BMS_WriteSingleDevice(hbms, slave_addr, REG_CB_CELL1_CTRL, data, 2U);
 800292a:	f107 030c 	add.w	r3, r7, #12
 800292e:	78f9      	ldrb	r1, [r7, #3]
 8002930:	2202      	movs	r2, #2
 8002932:	9200      	str	r2, [sp, #0]
 8002934:	2230      	movs	r2, #48	@ 0x30
 8002936:	6878      	ldr	r0, [r7, #4]
 8002938:	f7fe f8c8 	bl	8000acc <BMS_WriteSingleDevice>
 800293c:	4603      	mov	r3, r0
}
 800293e:	4618      	mov	r0, r3
 8002940:	3710      	adds	r7, #16
 8002942:	46bd      	mov	sp, r7
 8002944:	bd80      	pop	{r7, pc}

08002946 <BMS_StopAllBalancing>:
 *
 * @param  hbms     Handle do BMS
 * @return BMS_OK ou código de erro (falha parcial não bloqueia)
 */
BMS_Status_t BMS_StopAllBalancing(BMS_Handle_t *hbms)
{
 8002946:	b580      	push	{r7, lr}
 8002948:	b086      	sub	sp, #24
 800294a:	af02      	add	r7, sp, #8
 800294c:	6078      	str	r0, [r7, #4]
    uint8_t zero[2U] = {0x00U, 0x00U};
 800294e:	2300      	movs	r3, #0
 8002950:	813b      	strh	r3, [r7, #8]
    BMS_Status_t final_status = BMS_OK;
 8002952:	2300      	movs	r3, #0
 8002954:	73fb      	strb	r3, [r7, #15]

    for (uint8_t s = 0U; s < BMS_NUM_SLAVES; s++)
 8002956:	2300      	movs	r3, #0
 8002958:	73bb      	strb	r3, [r7, #14]
 800295a:	e022      	b.n	80029a2 <BMS_StopAllBalancing+0x5c>
    {
        BMS_Status_t r = BMS_WriteSingleDevice(hbms, hbms->slave[s].address,
 800295c:	7bbb      	ldrb	r3, [r7, #14]
 800295e:	687a      	ldr	r2, [r7, #4]
 8002960:	2154      	movs	r1, #84	@ 0x54
 8002962:	fb01 f303 	mul.w	r3, r1, r3
 8002966:	4413      	add	r3, r2
 8002968:	330c      	adds	r3, #12
 800296a:	7819      	ldrb	r1, [r3, #0]
 800296c:	f107 0308 	add.w	r3, r7, #8
 8002970:	2202      	movs	r2, #2
 8002972:	9200      	str	r2, [sp, #0]
 8002974:	2230      	movs	r2, #48	@ 0x30
 8002976:	6878      	ldr	r0, [r7, #4]
 8002978:	f7fe f8a8 	bl	8000acc <BMS_WriteSingleDevice>
 800297c:	4603      	mov	r3, r0
 800297e:	737b      	strb	r3, [r7, #13]
                                               REG_CB_CELL1_CTRL, zero, 2U);
        if (r != BMS_OK) { final_status = r; }
 8002980:	7b7b      	ldrb	r3, [r7, #13]
 8002982:	2b00      	cmp	r3, #0
 8002984:	d001      	beq.n	800298a <BMS_StopAllBalancing+0x44>
 8002986:	7b7b      	ldrb	r3, [r7, #13]
 8002988:	73fb      	strb	r3, [r7, #15]
        hbms->slave[s].balance_mask = 0U;
 800298a:	7bbb      	ldrb	r3, [r7, #14]
 800298c:	687a      	ldr	r2, [r7, #4]
 800298e:	2154      	movs	r1, #84	@ 0x54
 8002990:	fb01 f303 	mul.w	r3, r1, r3
 8002994:	4413      	add	r3, r2
 8002996:	335c      	adds	r3, #92	@ 0x5c
 8002998:	2200      	movs	r2, #0
 800299a:	801a      	strh	r2, [r3, #0]
    for (uint8_t s = 0U; s < BMS_NUM_SLAVES; s++)
 800299c:	7bbb      	ldrb	r3, [r7, #14]
 800299e:	3301      	adds	r3, #1
 80029a0:	73bb      	strb	r3, [r7, #14]
 80029a2:	7bbb      	ldrb	r3, [r7, #14]
 80029a4:	2b01      	cmp	r3, #1
 80029a6:	d9d9      	bls.n	800295c <BMS_StopAllBalancing+0x16>
    }
    hbms->is_balancing = false;
 80029a8:	687b      	ldr	r3, [r7, #4]
 80029aa:	2200      	movs	r2, #0
 80029ac:	f883 20dd 	strb.w	r2, [r3, #221]	@ 0xdd
    return final_status;
 80029b0:	7bfb      	ldrb	r3, [r7, #15]
}
 80029b2:	4618      	mov	r0, r3
 80029b4:	3710      	adds	r7, #16
 80029b6:	46bd      	mov	sp, r7
 80029b8:	bd80      	pop	{r7, pc}

080029ba <BMS_RunPassiveBalancing>:
 *
 * @param  hbms     Handle do BMS
 * @return BMS_OK ou código de erro
 */
BMS_Status_t BMS_RunPassiveBalancing(BMS_Handle_t *hbms)
{
 80029ba:	b580      	push	{r7, lr}
 80029bc:	b084      	sub	sp, #16
 80029be:	af00      	add	r7, sp, #0
 80029c0:	6078      	str	r0, [r7, #4]
    /* Pré-condição de segurança */
    if ((hbms->state != BMS_STATE_MONITORING) &&
 80029c2:	687b      	ldr	r3, [r7, #4]
 80029c4:	781b      	ldrb	r3, [r3, #0]
 80029c6:	2b03      	cmp	r3, #3
 80029c8:	d00f      	beq.n	80029ea <BMS_RunPassiveBalancing+0x30>
        (hbms->state != BMS_STATE_BALANCING))
 80029ca:	687b      	ldr	r3, [r7, #4]
 80029cc:	781b      	ldrb	r3, [r3, #0]
    if ((hbms->state != BMS_STATE_MONITORING) &&
 80029ce:	2b04      	cmp	r3, #4
 80029d0:	d00b      	beq.n	80029ea <BMS_RunPassiveBalancing+0x30>
    {
        if (hbms->is_balancing) { return BMS_StopAllBalancing(hbms); }
 80029d2:	687b      	ldr	r3, [r7, #4]
 80029d4:	f893 30dd 	ldrb.w	r3, [r3, #221]	@ 0xdd
 80029d8:	2b00      	cmp	r3, #0
 80029da:	d004      	beq.n	80029e6 <BMS_RunPassiveBalancing+0x2c>
 80029dc:	6878      	ldr	r0, [r7, #4]
 80029de:	f7ff ffb2 	bl	8002946 <BMS_StopAllBalancing>
 80029e2:	4603      	mov	r3, r0
 80029e4:	e09f      	b.n	8002b26 <BMS_RunPassiveBalancing+0x16c>
        return BMS_OK;
 80029e6:	2300      	movs	r3, #0
 80029e8:	e09d      	b.n	8002b26 <BMS_RunPassiveBalancing+0x16c>
    }
    if (hbms->fault_flags != 0U)
 80029ea:	687b      	ldr	r3, [r7, #4]
 80029ec:	685b      	ldr	r3, [r3, #4]
 80029ee:	2b00      	cmp	r3, #0
 80029f0:	d004      	beq.n	80029fc <BMS_RunPassiveBalancing+0x42>
    {
        return BMS_StopAllBalancing(hbms);
 80029f2:	6878      	ldr	r0, [r7, #4]
 80029f4:	f7ff ffa7 	bl	8002946 <BMS_StopAllBalancing>
 80029f8:	4603      	mov	r3, r0
 80029fa:	e094      	b.n	8002b26 <BMS_RunPassiveBalancing+0x16c>
    }
    /* Não balancear se temperatura crítica */
    if (hbms->max_temp_c >= (int16_t)CELL_TEMP_WARN_C)
 80029fc:	687b      	ldr	r3, [r7, #4]
 80029fe:	f9b3 30be 	ldrsh.w	r3, [r3, #190]	@ 0xbe
 8002a02:	2b36      	cmp	r3, #54	@ 0x36
 8002a04:	dd04      	ble.n	8002a10 <BMS_RunPassiveBalancing+0x56>
    {
        return BMS_StopAllBalancing(hbms);
 8002a06:	6878      	ldr	r0, [r7, #4]
 8002a08:	f7ff ff9d 	bl	8002946 <BMS_StopAllBalancing>
 8002a0c:	4603      	mov	r3, r0
 8002a0e:	e08a      	b.n	8002b26 <BMS_RunPassiveBalancing+0x16c>
    }

    /* Verificar se desequilíbrio justifica balanceamento */
    if (hbms->delta_cell_mv < CELL_BALANCE_STOP_MV)
 8002a10:	687b      	ldr	r3, [r7, #4]
 8002a12:	f8b3 30bc 	ldrh.w	r3, [r3, #188]	@ 0xbc
 8002a16:	2b04      	cmp	r3, #4
 8002a18:	d80c      	bhi.n	8002a34 <BMS_RunPassiveBalancing+0x7a>
    {
        if (hbms->is_balancing)
 8002a1a:	687b      	ldr	r3, [r7, #4]
 8002a1c:	f893 30dd 	ldrb.w	r3, [r3, #221]	@ 0xdd
 8002a20:	2b00      	cmp	r3, #0
 8002a22:	d005      	beq.n	8002a30 <BMS_RunPassiveBalancing+0x76>
        {
            BMS_StopAllBalancing(hbms);
 8002a24:	6878      	ldr	r0, [r7, #4]
 8002a26:	f7ff ff8e 	bl	8002946 <BMS_StopAllBalancing>
            hbms->state = BMS_STATE_MONITORING;
 8002a2a:	687b      	ldr	r3, [r7, #4]
 8002a2c:	2203      	movs	r2, #3
 8002a2e:	701a      	strb	r2, [r3, #0]
        }
        return BMS_OK;
 8002a30:	2300      	movs	r3, #0
 8002a32:	e078      	b.n	8002b26 <BMS_RunPassiveBalancing+0x16c>
    }
    if (hbms->delta_cell_mv < CELL_BALANCE_DELTA_MV)
 8002a34:	687b      	ldr	r3, [r7, #4]
 8002a36:	f8b3 30bc 	ldrh.w	r3, [r3, #188]	@ 0xbc
 8002a3a:	2b13      	cmp	r3, #19
 8002a3c:	d801      	bhi.n	8002a42 <BMS_RunPassiveBalancing+0x88>
    {
        return BMS_OK;   /* Abaixo do limiar de início — manter estado actual */
 8002a3e:	2300      	movs	r3, #0
 8002a40:	e071      	b.n	8002b26 <BMS_RunPassiveBalancing+0x16c>
    }

    /* Calcular e aplicar máscaras */
    bool any_active = false;
 8002a42:	2300      	movs	r3, #0
 8002a44:	73fb      	strb	r3, [r7, #15]
    for (uint8_t s = 0U; s < BMS_NUM_SLAVES; s++)
 8002a46:	2300      	movs	r3, #0
 8002a48:	73bb      	strb	r3, [r7, #14]
 8002a4a:	e053      	b.n	8002af4 <BMS_RunPassiveBalancing+0x13a>
    {
        uint16_t new_mask = 0U;
 8002a4c:	2300      	movs	r3, #0
 8002a4e:	81bb      	strh	r3, [r7, #12]
        for (uint8_t c = 0U; c < BMS_CELLS_PER_SLAVE; c++)
 8002a50:	2300      	movs	r3, #0
 8002a52:	72fb      	strb	r3, [r7, #11]
 8002a54:	e022      	b.n	8002a9c <BMS_RunPassiveBalancing+0xe2>
        {
            uint16_t mv = hbms->slave[s].cell_voltage_mv[c];
 8002a56:	7bb9      	ldrb	r1, [r7, #14]
 8002a58:	7afb      	ldrb	r3, [r7, #11]
 8002a5a:	687a      	ldr	r2, [r7, #4]
 8002a5c:	202a      	movs	r0, #42	@ 0x2a
 8002a5e:	fb00 f101 	mul.w	r1, r0, r1
 8002a62:	440b      	add	r3, r1
 8002a64:	3304      	adds	r3, #4
 8002a66:	005b      	lsls	r3, r3, #1
 8002a68:	4413      	add	r3, r2
 8002a6a:	88db      	ldrh	r3, [r3, #6]
 8002a6c:	813b      	strh	r3, [r7, #8]
            if ((mv > (hbms->min_cell_mv + CELL_BALANCE_HYSTERESIS_MV)) &&
 8002a6e:	893a      	ldrh	r2, [r7, #8]
 8002a70:	687b      	ldr	r3, [r7, #4]
 8002a72:	f8b3 30b8 	ldrh.w	r3, [r3, #184]	@ 0xb8
 8002a76:	330a      	adds	r3, #10
 8002a78:	429a      	cmp	r2, r3
 8002a7a:	d90c      	bls.n	8002a96 <BMS_RunPassiveBalancing+0xdc>
 8002a7c:	893b      	ldrh	r3, [r7, #8]
 8002a7e:	f640 421c 	movw	r2, #3100	@ 0xc1c
 8002a82:	4293      	cmp	r3, r2
 8002a84:	d907      	bls.n	8002a96 <BMS_RunPassiveBalancing+0xdc>
                (mv > CELL_BALANCE_MIN_MV))
            {
                new_mask |= (uint16_t)(1U << c);
 8002a86:	7afb      	ldrb	r3, [r7, #11]
 8002a88:	2201      	movs	r2, #1
 8002a8a:	fa02 f303 	lsl.w	r3, r2, r3
 8002a8e:	b29a      	uxth	r2, r3
 8002a90:	89bb      	ldrh	r3, [r7, #12]
 8002a92:	4313      	orrs	r3, r2
 8002a94:	81bb      	strh	r3, [r7, #12]
        for (uint8_t c = 0U; c < BMS_CELLS_PER_SLAVE; c++)
 8002a96:	7afb      	ldrb	r3, [r7, #11]
 8002a98:	3301      	adds	r3, #1
 8002a9a:	72fb      	strb	r3, [r7, #11]
 8002a9c:	7afb      	ldrb	r3, [r7, #11]
 8002a9e:	2b0e      	cmp	r3, #14
 8002aa0:	d9d9      	bls.n	8002a56 <BMS_RunPassiveBalancing+0x9c>
            }
        }
        /* Só escrever se máscara mudou (reduz tráfego UART) */
        if (new_mask != hbms->slave[s].balance_mask)
 8002aa2:	7bbb      	ldrb	r3, [r7, #14]
 8002aa4:	687a      	ldr	r2, [r7, #4]
 8002aa6:	2154      	movs	r1, #84	@ 0x54
 8002aa8:	fb01 f303 	mul.w	r3, r1, r3
 8002aac:	4413      	add	r3, r2
 8002aae:	335c      	adds	r3, #92	@ 0x5c
 8002ab0:	881b      	ldrh	r3, [r3, #0]
 8002ab2:	89ba      	ldrh	r2, [r7, #12]
 8002ab4:	429a      	cmp	r2, r3
 8002ab6:	d015      	beq.n	8002ae4 <BMS_RunPassiveBalancing+0x12a>
        {
            hbms->slave[s].balance_mask = new_mask;
 8002ab8:	7bbb      	ldrb	r3, [r7, #14]
 8002aba:	687a      	ldr	r2, [r7, #4]
 8002abc:	2154      	movs	r1, #84	@ 0x54
 8002abe:	fb01 f303 	mul.w	r3, r1, r3
 8002ac2:	4413      	add	r3, r2
 8002ac4:	335c      	adds	r3, #92	@ 0x5c
 8002ac6:	89ba      	ldrh	r2, [r7, #12]
 8002ac8:	801a      	strh	r2, [r3, #0]
            (void)BMS_SetCellBalancing(hbms, hbms->slave[s].address, new_mask);
 8002aca:	7bbb      	ldrb	r3, [r7, #14]
 8002acc:	687a      	ldr	r2, [r7, #4]
 8002ace:	2154      	movs	r1, #84	@ 0x54
 8002ad0:	fb01 f303 	mul.w	r3, r1, r3
 8002ad4:	4413      	add	r3, r2
 8002ad6:	330c      	adds	r3, #12
 8002ad8:	781b      	ldrb	r3, [r3, #0]
 8002ada:	89ba      	ldrh	r2, [r7, #12]
 8002adc:	4619      	mov	r1, r3
 8002ade:	6878      	ldr	r0, [r7, #4]
 8002ae0:	f7ff ff10 	bl	8002904 <BMS_SetCellBalancing>
        }
        if (new_mask != 0U) { any_active = true; }
 8002ae4:	89bb      	ldrh	r3, [r7, #12]
 8002ae6:	2b00      	cmp	r3, #0
 8002ae8:	d001      	beq.n	8002aee <BMS_RunPassiveBalancing+0x134>
 8002aea:	2301      	movs	r3, #1
 8002aec:	73fb      	strb	r3, [r7, #15]
    for (uint8_t s = 0U; s < BMS_NUM_SLAVES; s++)
 8002aee:	7bbb      	ldrb	r3, [r7, #14]
 8002af0:	3301      	adds	r3, #1
 8002af2:	73bb      	strb	r3, [r7, #14]
 8002af4:	7bbb      	ldrb	r3, [r7, #14]
 8002af6:	2b01      	cmp	r3, #1
 8002af8:	d9a8      	bls.n	8002a4c <BMS_RunPassiveBalancing+0x92>
    }

    hbms->is_balancing = any_active;
 8002afa:	687b      	ldr	r3, [r7, #4]
 8002afc:	7bfa      	ldrb	r2, [r7, #15]
 8002afe:	f883 20dd 	strb.w	r2, [r3, #221]	@ 0xdd
    if (any_active)
 8002b02:	7bfb      	ldrb	r3, [r7, #15]
 8002b04:	2b00      	cmp	r3, #0
 8002b06:	d00a      	beq.n	8002b1e <BMS_RunPassiveBalancing+0x164>
    {
        hbms->balance_cycle_count++;
 8002b08:	687b      	ldr	r3, [r7, #4]
 8002b0a:	f8d3 30e0 	ldr.w	r3, [r3, #224]	@ 0xe0
 8002b0e:	1c5a      	adds	r2, r3, #1
 8002b10:	687b      	ldr	r3, [r7, #4]
 8002b12:	f8c3 20e0 	str.w	r2, [r3, #224]	@ 0xe0
        hbms->state = BMS_STATE_BALANCING;
 8002b16:	687b      	ldr	r3, [r7, #4]
 8002b18:	2204      	movs	r2, #4
 8002b1a:	701a      	strb	r2, [r3, #0]
 8002b1c:	e002      	b.n	8002b24 <BMS_RunPassiveBalancing+0x16a>
    }
    else
    {
        hbms->state = BMS_STATE_MONITORING;
 8002b1e:	687b      	ldr	r3, [r7, #4]
 8002b20:	2203      	movs	r2, #3
 8002b22:	701a      	strb	r2, [r3, #0]
    }
    return BMS_OK;
 8002b24:	2300      	movs	r3, #0
}
 8002b26:	4618      	mov	r0, r3
 8002b28:	3710      	adds	r7, #16
 8002b2a:	46bd      	mov	sp, r7
 8002b2c:	bd80      	pop	{r7, pc}
	...

08002b30 <BMS_UpdateHardwareInterlocks>:
 *  Regulamentação Formula Student / ISO 26262:
 *  O fecho do contactor principal não deve depender exclusivamente de
 *  software — estes pinos implementam o "Hardware Interlock" exigido.
 */
void BMS_UpdateHardwareInterlocks(BMS_Handle_t *hbms)
{
 8002b30:	b580      	push	{r7, lr}
 8002b32:	b084      	sub	sp, #16
 8002b34:	af00      	add	r7, sp, #0
 8002b36:	6078      	str	r0, [r7, #4]
    /* BUG-5 CORRIGIDO: adicionar verificação de estado operacional.
     * Anteriormente: em UNINITIALIZED ou SLEEP, fault_flags==0 e
     * nfault_pending==0 → BMS_OK ficava HIGH com ADCs inactivos.
     * Correcção: só MONITORING e BALANCING garantem aquisição activa. */
    bool bms_ok = (hbms->fault_flags == 0U) &&
 8002b38:	687b      	ldr	r3, [r7, #4]
 8002b3a:	685b      	ldr	r3, [r3, #4]
                  (__atomic_load_n(&hbms->nfault_pending, __ATOMIC_SEQ_CST) == 0U) &&
 8002b3c:	2b00      	cmp	r3, #0
 8002b3e:	d113      	bne.n	8002b68 <BMS_UpdateHardwareInterlocks+0x38>
 8002b40:	687b      	ldr	r3, [r7, #4]
 8002b42:	f503 7394 	add.w	r3, r3, #296	@ 0x128
 8002b46:	f3bf 8f5b 	dmb	ish
 8002b4a:	681b      	ldr	r3, [r3, #0]
 8002b4c:	f3bf 8f5b 	dmb	ish
    bool bms_ok = (hbms->fault_flags == 0U) &&
 8002b50:	2b00      	cmp	r3, #0
 8002b52:	d109      	bne.n	8002b68 <BMS_UpdateHardwareInterlocks+0x38>
                  ((hbms->state == BMS_STATE_MONITORING) ||
 8002b54:	687b      	ldr	r3, [r7, #4]
 8002b56:	781b      	ldrb	r3, [r3, #0]
                  (__atomic_load_n(&hbms->nfault_pending, __ATOMIC_SEQ_CST) == 0U) &&
 8002b58:	2b03      	cmp	r3, #3
 8002b5a:	d003      	beq.n	8002b64 <BMS_UpdateHardwareInterlocks+0x34>
                   (hbms->state == BMS_STATE_BALANCING));
 8002b5c:	687b      	ldr	r3, [r7, #4]
 8002b5e:	781b      	ldrb	r3, [r3, #0]
                  ((hbms->state == BMS_STATE_MONITORING) ||
 8002b60:	2b04      	cmp	r3, #4
 8002b62:	d101      	bne.n	8002b68 <BMS_UpdateHardwareInterlocks+0x38>
                  (__atomic_load_n(&hbms->nfault_pending, __ATOMIC_SEQ_CST) == 0U) &&
 8002b64:	2301      	movs	r3, #1
 8002b66:	e000      	b.n	8002b6a <BMS_UpdateHardwareInterlocks+0x3a>
 8002b68:	2300      	movs	r3, #0
    bool bms_ok = (hbms->fault_flags == 0U) &&
 8002b6a:	73fb      	strb	r3, [r7, #15]
 8002b6c:	7bfb      	ldrb	r3, [r7, #15]
 8002b6e:	f003 0301 	and.w	r3, r3, #1
 8002b72:	73fb      	strb	r3, [r7, #15]

    HAL_GPIO_WritePin(BMS_OK_PORT, BMS_OK_PIN,
 8002b74:	7bfb      	ldrb	r3, [r7, #15]
 8002b76:	461a      	mov	r2, r3
 8002b78:	f44f 5100 	mov.w	r1, #8192	@ 0x2000
 8002b7c:	4807      	ldr	r0, [pc, #28]	@ (8002b9c <BMS_UpdateHardwareInterlocks+0x6c>)
 8002b7e:	f002 f993 	bl	8004ea8 <HAL_GPIO_WritePin>
                      bms_ok ? GPIO_PIN_SET : GPIO_PIN_RESET);

    /* PRECHARGE_OK: tensão HV é medição física, independente do estado */
    HAL_GPIO_WritePin(PRECHARGE_OK_PORT, PRECHARGE_OK_PIN,
                      hbms->precharge_ready ? GPIO_PIN_SET : GPIO_PIN_RESET);
 8002b82:	687b      	ldr	r3, [r7, #4]
 8002b84:	f893 30dc 	ldrb.w	r3, [r3, #220]	@ 0xdc
    HAL_GPIO_WritePin(PRECHARGE_OK_PORT, PRECHARGE_OK_PIN,
 8002b88:	461a      	mov	r2, r3
 8002b8a:	f44f 4180 	mov.w	r1, #16384	@ 0x4000
 8002b8e:	4803      	ldr	r0, [pc, #12]	@ (8002b9c <BMS_UpdateHardwareInterlocks+0x6c>)
 8002b90:	f002 f98a 	bl	8004ea8 <HAL_GPIO_WritePin>
}
 8002b94:	bf00      	nop
 8002b96:	3710      	adds	r7, #16
 8002b98:	46bd      	mov	sp, r7
 8002b9a:	bd80      	pop	{r7, pc}
 8002b9c:	40020400 	.word	0x40020400

08002ba0 <BMS_ApplyVoltageFilter>:
 * Após o filtro, as tensões em cell_voltage_mv são SUBSTITUÍDAS pelos
 * valores filtrados. As funções a jusante (CheckProtections, Balancing)
 * operam sobre dados já filtrados sem alteração. */

void BMS_ApplyVoltageFilter(BMS_Handle_t *hbms)
{
 8002ba0:	b4b0      	push	{r4, r5, r7}
 8002ba2:	b085      	sub	sp, #20
 8002ba4:	af00      	add	r7, sp, #0
 8002ba6:	6078      	str	r0, [r7, #4]
    for (uint8_t s = 0U; s < BMS_NUM_SLAVES; s++)
 8002ba8:	2300      	movs	r3, #0
 8002baa:	73fb      	strb	r3, [r7, #15]
 8002bac:	e064      	b.n	8002c78 <BMS_ApplyVoltageFilter+0xd8>
    {
        for (uint8_t c = 0U; c < BMS_CELLS_PER_SLAVE; c++)
 8002bae:	2300      	movs	r3, #0
 8002bb0:	73bb      	strb	r3, [r7, #14]
 8002bb2:	e05b      	b.n	8002c6c <BMS_ApplyVoltageFilter+0xcc>
        {
            uint16_t raw = hbms->slave[s].cell_voltage_mv[c];
 8002bb4:	7bf9      	ldrb	r1, [r7, #15]
 8002bb6:	7bbb      	ldrb	r3, [r7, #14]
 8002bb8:	687a      	ldr	r2, [r7, #4]
 8002bba:	202a      	movs	r0, #42	@ 0x2a
 8002bbc:	fb00 f101 	mul.w	r1, r0, r1
 8002bc0:	440b      	add	r3, r1
 8002bc2:	3304      	adds	r3, #4
 8002bc4:	005b      	lsls	r3, r3, #1
 8002bc6:	4413      	add	r3, r2
 8002bc8:	88db      	ldrh	r3, [r3, #6]
 8002bca:	81bb      	strh	r3, [r7, #12]

            if (!hbms->filter_primed)
 8002bcc:	687b      	ldr	r3, [r7, #4]
 8002bce:	f893 3122 	ldrb.w	r3, [r3, #290]	@ 0x122
 8002bd2:	f083 0301 	eor.w	r3, r3, #1
 8002bd6:	b2db      	uxtb	r3, r3
 8002bd8:	2b00      	cmp	r3, #0
 8002bda:	d00c      	beq.n	8002bf6 <BMS_ApplyVoltageFilter+0x56>
            {
                /* Seed: primeira leitura → filtro inicializado com raw */
                hbms->filtered_mv[s][c] = raw;
 8002bdc:	7bfa      	ldrb	r2, [r7, #15]
 8002bde:	7bb8      	ldrb	r0, [r7, #14]
 8002be0:	6879      	ldr	r1, [r7, #4]
 8002be2:	4613      	mov	r3, r2
 8002be4:	011b      	lsls	r3, r3, #4
 8002be6:	1a9b      	subs	r3, r3, r2
 8002be8:	4403      	add	r3, r0
 8002bea:	3370      	adds	r3, #112	@ 0x70
 8002bec:	005b      	lsls	r3, r3, #1
 8002bee:	440b      	add	r3, r1
 8002bf0:	89ba      	ldrh	r2, [r7, #12]
 8002bf2:	80da      	strh	r2, [r3, #6]
 8002bf4:	e020      	b.n	8002c38 <BMS_ApplyVoltageFilter+0x98>
            }
            else
            {
                /* IIR: new = (raw + (ALPHA-1) × old) / ALPHA */
                uint32_t acc = (uint32_t)raw +
 8002bf6:	89b9      	ldrh	r1, [r7, #12]
                               (uint32_t)(BMS_VOLTAGE_FILTER_ALPHA - 1U) *
                               (uint32_t)hbms->filtered_mv[s][c];
 8002bf8:	7bfa      	ldrb	r2, [r7, #15]
 8002bfa:	7bbc      	ldrb	r4, [r7, #14]
 8002bfc:	6878      	ldr	r0, [r7, #4]
 8002bfe:	4613      	mov	r3, r2
 8002c00:	011b      	lsls	r3, r3, #4
 8002c02:	1a9b      	subs	r3, r3, r2
 8002c04:	4423      	add	r3, r4
 8002c06:	3370      	adds	r3, #112	@ 0x70
 8002c08:	005b      	lsls	r3, r3, #1
 8002c0a:	4403      	add	r3, r0
 8002c0c:	88db      	ldrh	r3, [r3, #6]
 8002c0e:	461a      	mov	r2, r3
                               (uint32_t)(BMS_VOLTAGE_FILTER_ALPHA - 1U) *
 8002c10:	4613      	mov	r3, r2
 8002c12:	005b      	lsls	r3, r3, #1
 8002c14:	4413      	add	r3, r2
                uint32_t acc = (uint32_t)raw +
 8002c16:	440b      	add	r3, r1
 8002c18:	60bb      	str	r3, [r7, #8]
                hbms->filtered_mv[s][c] =
                    (uint16_t)(acc / (uint32_t)BMS_VOLTAGE_FILTER_ALPHA);
 8002c1a:	68bb      	ldr	r3, [r7, #8]
 8002c1c:	089b      	lsrs	r3, r3, #2
                hbms->filtered_mv[s][c] =
 8002c1e:	7bfa      	ldrb	r2, [r7, #15]
 8002c20:	7bb8      	ldrb	r0, [r7, #14]
                    (uint16_t)(acc / (uint32_t)BMS_VOLTAGE_FILTER_ALPHA);
 8002c22:	b29c      	uxth	r4, r3
                hbms->filtered_mv[s][c] =
 8002c24:	6879      	ldr	r1, [r7, #4]
 8002c26:	4613      	mov	r3, r2
 8002c28:	011b      	lsls	r3, r3, #4
 8002c2a:	1a9b      	subs	r3, r3, r2
 8002c2c:	4403      	add	r3, r0
 8002c2e:	3370      	adds	r3, #112	@ 0x70
 8002c30:	005b      	lsls	r3, r3, #1
 8002c32:	440b      	add	r3, r1
 8002c34:	4622      	mov	r2, r4
 8002c36:	80da      	strh	r2, [r3, #6]
            }
            /* Substituir raw pelo valor filtrado */
            hbms->slave[s].cell_voltage_mv[c] = hbms->filtered_mv[s][c];
 8002c38:	7bfa      	ldrb	r2, [r7, #15]
 8002c3a:	7bbd      	ldrb	r5, [r7, #14]
 8002c3c:	7bf8      	ldrb	r0, [r7, #15]
 8002c3e:	7bb9      	ldrb	r1, [r7, #14]
 8002c40:	687c      	ldr	r4, [r7, #4]
 8002c42:	4613      	mov	r3, r2
 8002c44:	011b      	lsls	r3, r3, #4
 8002c46:	1a9b      	subs	r3, r3, r2
 8002c48:	442b      	add	r3, r5
 8002c4a:	3370      	adds	r3, #112	@ 0x70
 8002c4c:	005b      	lsls	r3, r3, #1
 8002c4e:	4423      	add	r3, r4
 8002c50:	88dc      	ldrh	r4, [r3, #6]
 8002c52:	687a      	ldr	r2, [r7, #4]
 8002c54:	232a      	movs	r3, #42	@ 0x2a
 8002c56:	fb00 f303 	mul.w	r3, r0, r3
 8002c5a:	440b      	add	r3, r1
 8002c5c:	3304      	adds	r3, #4
 8002c5e:	005b      	lsls	r3, r3, #1
 8002c60:	4413      	add	r3, r2
 8002c62:	4622      	mov	r2, r4
 8002c64:	80da      	strh	r2, [r3, #6]
        for (uint8_t c = 0U; c < BMS_CELLS_PER_SLAVE; c++)
 8002c66:	7bbb      	ldrb	r3, [r7, #14]
 8002c68:	3301      	adds	r3, #1
 8002c6a:	73bb      	strb	r3, [r7, #14]
 8002c6c:	7bbb      	ldrb	r3, [r7, #14]
 8002c6e:	2b0e      	cmp	r3, #14
 8002c70:	d9a0      	bls.n	8002bb4 <BMS_ApplyVoltageFilter+0x14>
    for (uint8_t s = 0U; s < BMS_NUM_SLAVES; s++)
 8002c72:	7bfb      	ldrb	r3, [r7, #15]
 8002c74:	3301      	adds	r3, #1
 8002c76:	73fb      	strb	r3, [r7, #15]
 8002c78:	7bfb      	ldrb	r3, [r7, #15]
 8002c7a:	2b01      	cmp	r3, #1
 8002c7c:	d997      	bls.n	8002bae <BMS_ApplyVoltageFilter+0xe>
        }
    }
    hbms->filter_primed = true;
 8002c7e:	687b      	ldr	r3, [r7, #4]
 8002c80:	2201      	movs	r2, #1
 8002c82:	f883 2122 	strb.w	r2, [r3, #290]	@ 0x122
}
 8002c86:	bf00      	nop
 8002c88:	3714      	adds	r7, #20
 8002c8a:	46bd      	mov	sp, r7
 8002c8c:	bcb0      	pop	{r4, r5, r7}
 8002c8e:	4770      	bx	lr

08002c90 <BMS_EstimateSoC>:
 *
 * @param  avg_cell_mv  Tensão média das células em mV
 * @return SoC em percentagem (0-100)
 */
uint8_t BMS_EstimateSoC(uint16_t avg_cell_mv)
{
 8002c90:	b480      	push	{r7}
 8002c92:	b089      	sub	sp, #36	@ 0x24
 8002c94:	af00      	add	r7, sp, #0
 8002c96:	4603      	mov	r3, r0
 8002c98:	80fb      	strh	r3, [r7, #6]
    /* Clamp aos extremos da tabela */
    if (avg_cell_mv <= g_soc_table[0].mv)
 8002c9a:	f640 32b8 	movw	r2, #3000	@ 0xbb8
 8002c9e:	88fb      	ldrh	r3, [r7, #6]
 8002ca0:	4293      	cmp	r3, r2
 8002ca2:	d801      	bhi.n	8002ca8 <BMS_EstimateSoC+0x18>
    {
        return g_soc_table[0].soc;
 8002ca4:	2300      	movs	r3, #0
 8002ca6:	e04c      	b.n	8002d42 <BMS_EstimateSoC+0xb2>
    }
    if (avg_cell_mv >= g_soc_table[BMS_SOC_TABLE_SIZE - 1U].mv)
 8002ca8:	f44f 6261 	mov.w	r2, #3600	@ 0xe10
 8002cac:	88fb      	ldrh	r3, [r7, #6]
 8002cae:	4293      	cmp	r3, r2
 8002cb0:	d301      	bcc.n	8002cb6 <BMS_EstimateSoC+0x26>
    {
        return g_soc_table[BMS_SOC_TABLE_SIZE - 1U].soc;
 8002cb2:	2364      	movs	r3, #100	@ 0x64
 8002cb4:	e045      	b.n	8002d42 <BMS_EstimateSoC+0xb2>
    }

    /* Pesquisa linear + interpolação entre dois pontos adjacentes */
    for (uint8_t i = 1U; i < BMS_SOC_TABLE_SIZE; i++)
 8002cb6:	2301      	movs	r3, #1
 8002cb8:	77fb      	strb	r3, [r7, #31]
 8002cba:	e03e      	b.n	8002d3a <BMS_EstimateSoC+0xaa>
    {
        if (avg_cell_mv <= g_soc_table[i].mv)
 8002cbc:	7ffb      	ldrb	r3, [r7, #31]
 8002cbe:	4a24      	ldr	r2, [pc, #144]	@ (8002d50 <BMS_EstimateSoC+0xc0>)
 8002cc0:	f832 3023 	ldrh.w	r3, [r2, r3, lsl #2]
 8002cc4:	88fa      	ldrh	r2, [r7, #6]
 8002cc6:	429a      	cmp	r2, r3
 8002cc8:	d834      	bhi.n	8002d34 <BMS_EstimateSoC+0xa4>
        {
            uint16_t mv_lo  = g_soc_table[i - 1U].mv;
 8002cca:	7ffb      	ldrb	r3, [r7, #31]
 8002ccc:	3b01      	subs	r3, #1
 8002cce:	4a20      	ldr	r2, [pc, #128]	@ (8002d50 <BMS_EstimateSoC+0xc0>)
 8002cd0:	f832 3023 	ldrh.w	r3, [r2, r3, lsl #2]
 8002cd4:	83bb      	strh	r3, [r7, #28]
            uint16_t mv_hi  = g_soc_table[i].mv;
 8002cd6:	7ffb      	ldrb	r3, [r7, #31]
 8002cd8:	4a1d      	ldr	r2, [pc, #116]	@ (8002d50 <BMS_EstimateSoC+0xc0>)
 8002cda:	f832 3023 	ldrh.w	r3, [r2, r3, lsl #2]
 8002cde:	837b      	strh	r3, [r7, #26]
            uint8_t  soc_lo = g_soc_table[i - 1U].soc;
 8002ce0:	7ffb      	ldrb	r3, [r7, #31]
 8002ce2:	3b01      	subs	r3, #1
 8002ce4:	4a1a      	ldr	r2, [pc, #104]	@ (8002d50 <BMS_EstimateSoC+0xc0>)
 8002ce6:	009b      	lsls	r3, r3, #2
 8002ce8:	4413      	add	r3, r2
 8002cea:	789b      	ldrb	r3, [r3, #2]
 8002cec:	767b      	strb	r3, [r7, #25]
            uint8_t  soc_hi = g_soc_table[i].soc;
 8002cee:	7ffb      	ldrb	r3, [r7, #31]
 8002cf0:	4a17      	ldr	r2, [pc, #92]	@ (8002d50 <BMS_EstimateSoC+0xc0>)
 8002cf2:	009b      	lsls	r3, r3, #2
 8002cf4:	4413      	add	r3, r2
 8002cf6:	789b      	ldrb	r3, [r3, #2]
 8002cf8:	763b      	strb	r3, [r7, #24]

            /* Interpolação linear: soc = soc_lo + (soc_hi-soc_lo) × (mv-mv_lo) / (mv_hi-mv_lo) */
            uint32_t delta_mv  = (uint32_t)(avg_cell_mv - mv_lo);
 8002cfa:	88fa      	ldrh	r2, [r7, #6]
 8002cfc:	8bbb      	ldrh	r3, [r7, #28]
 8002cfe:	1ad3      	subs	r3, r2, r3
 8002d00:	617b      	str	r3, [r7, #20]
            uint32_t range_mv  = (uint32_t)(mv_hi - mv_lo);
 8002d02:	8b7a      	ldrh	r2, [r7, #26]
 8002d04:	8bbb      	ldrh	r3, [r7, #28]
 8002d06:	1ad3      	subs	r3, r2, r3
 8002d08:	613b      	str	r3, [r7, #16]
            uint32_t delta_soc = (uint32_t)(soc_hi - soc_lo);
 8002d0a:	7e3a      	ldrb	r2, [r7, #24]
 8002d0c:	7e7b      	ldrb	r3, [r7, #25]
 8002d0e:	1ad3      	subs	r3, r2, r3
 8002d10:	60fb      	str	r3, [r7, #12]

            if (range_mv == 0U) { return soc_lo; }
 8002d12:	693b      	ldr	r3, [r7, #16]
 8002d14:	2b00      	cmp	r3, #0
 8002d16:	d101      	bne.n	8002d1c <BMS_EstimateSoC+0x8c>
 8002d18:	7e7b      	ldrb	r3, [r7, #25]
 8002d1a:	e012      	b.n	8002d42 <BMS_EstimateSoC+0xb2>
            return (uint8_t)(soc_lo + (uint8_t)((delta_mv * delta_soc) / range_mv));
 8002d1c:	697b      	ldr	r3, [r7, #20]
 8002d1e:	68fa      	ldr	r2, [r7, #12]
 8002d20:	fb03 f202 	mul.w	r2, r3, r2
 8002d24:	693b      	ldr	r3, [r7, #16]
 8002d26:	fbb2 f3f3 	udiv	r3, r2, r3
 8002d2a:	b2da      	uxtb	r2, r3
 8002d2c:	7e7b      	ldrb	r3, [r7, #25]
 8002d2e:	4413      	add	r3, r2
 8002d30:	b2db      	uxtb	r3, r3
 8002d32:	e006      	b.n	8002d42 <BMS_EstimateSoC+0xb2>
    for (uint8_t i = 1U; i < BMS_SOC_TABLE_SIZE; i++)
 8002d34:	7ffb      	ldrb	r3, [r7, #31]
 8002d36:	3301      	adds	r3, #1
 8002d38:	77fb      	strb	r3, [r7, #31]
 8002d3a:	7ffb      	ldrb	r3, [r7, #31]
 8002d3c:	2b0b      	cmp	r3, #11
 8002d3e:	d9bd      	bls.n	8002cbc <BMS_EstimateSoC+0x2c>
        }
    }
    return 100U;  /* Shouldn't reach here */
 8002d40:	2364      	movs	r3, #100	@ 0x64
}
 8002d42:	4618      	mov	r0, r3
 8002d44:	3724      	adds	r7, #36	@ 0x24
 8002d46:	46bd      	mov	sp, r7
 8002d48:	f85d 7b04 	ldr.w	r7, [sp], #4
 8002d4c:	4770      	bx	lr
 8002d4e:	bf00      	nop
 8002d50:	0800876c 	.word	0x0800876c

08002d54 <main>:
/**
  * @brief  The application entry point.
  * @retval int
  */
int main(void)
{
 8002d54:	b580      	push	{r7, lr}
 8002d56:	af00      	add	r7, sp, #0
  /* USER CODE END 1 */

  /* MCU Configuration--------------------------------------------------------*/

  /* Reset of all peripherals, Initializes the Flash interface and the Systick. */
  HAL_Init();
 8002d58:	f001 f880 	bl	8003e5c <HAL_Init>
  /* USER CODE BEGIN Init */

  /* USER CODE END Init */

  /* Configure the system clock */
  SystemClock_Config();
 8002d5c:	f000 f810 	bl	8002d80 <SystemClock_Config>
  /* USER CODE BEGIN SysInit */

  /* USER CODE END SysInit */

  /* Initialize all configured peripherals */
  MX_GPIO_Init();
 8002d60:	f000 f952 	bl	8003008 <MX_GPIO_Init>
  MX_DMA_Init();
 8002d64:	f000 f928 	bl	8002fb8 <MX_DMA_Init>
  MX_TIM2_Init();
 8002d68:	f000 f886 	bl	8002e78 <MX_TIM2_Init>
  MX_UART4_Init();
 8002d6c:	f000 f8d0 	bl	8002f10 <MX_UART4_Init>
  MX_USART3_UART_Init();
 8002d70:	f000 f8f8 	bl	8002f64 <MX_USART3_UART_Init>
  MX_IWDG_Init();
 8002d74:	f000 f866 	bl	8002e44 <MX_IWDG_Init>
  /* USER CODE BEGIN 2 */


  BMS_Main();
 8002d78:	f000 fbde 	bl	8003538 <BMS_Main>

  /* USER CODE END 2 */

  /* Infinite loop */
  /* USER CODE BEGIN WHILE */
  while (1)
 8002d7c:	bf00      	nop
 8002d7e:	e7fd      	b.n	8002d7c <main+0x28>

08002d80 <SystemClock_Config>:
/**
  * @brief System Clock Configuration
  * @retval None
  */
void SystemClock_Config(void)
{
 8002d80:	b580      	push	{r7, lr}
 8002d82:	b094      	sub	sp, #80	@ 0x50
 8002d84:	af00      	add	r7, sp, #0
  RCC_OscInitTypeDef RCC_OscInitStruct = {0};
 8002d86:	f107 031c 	add.w	r3, r7, #28
 8002d8a:	2234      	movs	r2, #52	@ 0x34
 8002d8c:	2100      	movs	r1, #0
 8002d8e:	4618      	mov	r0, r3
 8002d90:	f004 fcb6 	bl	8007700 <memset>
  RCC_ClkInitTypeDef RCC_ClkInitStruct = {0};
 8002d94:	f107 0308 	add.w	r3, r7, #8
 8002d98:	2200      	movs	r2, #0
 8002d9a:	601a      	str	r2, [r3, #0]
 8002d9c:	605a      	str	r2, [r3, #4]
 8002d9e:	609a      	str	r2, [r3, #8]
 8002da0:	60da      	str	r2, [r3, #12]
 8002da2:	611a      	str	r2, [r3, #16]

  /** Configure the main internal regulator output voltage
  */
  __HAL_RCC_PWR_CLK_ENABLE();
 8002da4:	2300      	movs	r3, #0
 8002da6:	607b      	str	r3, [r7, #4]
 8002da8:	4b24      	ldr	r3, [pc, #144]	@ (8002e3c <SystemClock_Config+0xbc>)
 8002daa:	6c1b      	ldr	r3, [r3, #64]	@ 0x40
 8002dac:	4a23      	ldr	r2, [pc, #140]	@ (8002e3c <SystemClock_Config+0xbc>)
 8002dae:	f043 5380 	orr.w	r3, r3, #268435456	@ 0x10000000
 8002db2:	6413      	str	r3, [r2, #64]	@ 0x40
 8002db4:	4b21      	ldr	r3, [pc, #132]	@ (8002e3c <SystemClock_Config+0xbc>)
 8002db6:	6c1b      	ldr	r3, [r3, #64]	@ 0x40
 8002db8:	f003 5380 	and.w	r3, r3, #268435456	@ 0x10000000
 8002dbc:	607b      	str	r3, [r7, #4]
 8002dbe:	687b      	ldr	r3, [r7, #4]
  __HAL_PWR_VOLTAGESCALING_CONFIG(PWR_REGULATOR_VOLTAGE_SCALE3);
 8002dc0:	2300      	movs	r3, #0
 8002dc2:	603b      	str	r3, [r7, #0]
 8002dc4:	4b1e      	ldr	r3, [pc, #120]	@ (8002e40 <SystemClock_Config+0xc0>)
 8002dc6:	681b      	ldr	r3, [r3, #0]
 8002dc8:	f423 4340 	bic.w	r3, r3, #49152	@ 0xc000
 8002dcc:	4a1c      	ldr	r2, [pc, #112]	@ (8002e40 <SystemClock_Config+0xc0>)
 8002dce:	f443 4380 	orr.w	r3, r3, #16384	@ 0x4000
 8002dd2:	6013      	str	r3, [r2, #0]
 8002dd4:	4b1a      	ldr	r3, [pc, #104]	@ (8002e40 <SystemClock_Config+0xc0>)
 8002dd6:	681b      	ldr	r3, [r3, #0]
 8002dd8:	f403 4340 	and.w	r3, r3, #49152	@ 0xc000
 8002ddc:	603b      	str	r3, [r7, #0]
 8002dde:	683b      	ldr	r3, [r7, #0]

  /** Initializes the RCC Oscillators according to the specified parameters
  * in the RCC_OscInitTypeDef structure.
  */
  RCC_OscInitStruct.OscillatorType = RCC_OSCILLATORTYPE_HSI|RCC_OSCILLATORTYPE_LSI;
 8002de0:	230a      	movs	r3, #10
 8002de2:	61fb      	str	r3, [r7, #28]
  RCC_OscInitStruct.HSIState = RCC_HSI_ON;
 8002de4:	2301      	movs	r3, #1
 8002de6:	62bb      	str	r3, [r7, #40]	@ 0x28
  RCC_OscInitStruct.HSICalibrationValue = RCC_HSICALIBRATION_DEFAULT;
 8002de8:	2310      	movs	r3, #16
 8002dea:	62fb      	str	r3, [r7, #44]	@ 0x2c
  RCC_OscInitStruct.LSIState = RCC_LSI_ON;
 8002dec:	2301      	movs	r3, #1
 8002dee:	633b      	str	r3, [r7, #48]	@ 0x30
  RCC_OscInitStruct.PLL.PLLState = RCC_PLL_NONE;
 8002df0:	2300      	movs	r3, #0
 8002df2:	637b      	str	r3, [r7, #52]	@ 0x34
  if (HAL_RCC_OscConfig(&RCC_OscInitStruct) != HAL_OK)
 8002df4:	f107 031c 	add.w	r3, r7, #28
 8002df8:	4618      	mov	r0, r3
 8002dfa:	f002 fbd3 	bl	80055a4 <HAL_RCC_OscConfig>
 8002dfe:	4603      	mov	r3, r0
 8002e00:	2b00      	cmp	r3, #0
 8002e02:	d001      	beq.n	8002e08 <SystemClock_Config+0x88>
  {
    Error_Handler();
 8002e04:	f000 f94a 	bl	800309c <Error_Handler>
  }

  /** Initializes the CPU, AHB and APB buses clocks
  */
  RCC_ClkInitStruct.ClockType = RCC_CLOCKTYPE_HCLK|RCC_CLOCKTYPE_SYSCLK
 8002e08:	230f      	movs	r3, #15
 8002e0a:	60bb      	str	r3, [r7, #8]
                              |RCC_CLOCKTYPE_PCLK1|RCC_CLOCKTYPE_PCLK2;
  RCC_ClkInitStruct.SYSCLKSource = RCC_SYSCLKSOURCE_HSI;
 8002e0c:	2300      	movs	r3, #0
 8002e0e:	60fb      	str	r3, [r7, #12]
  RCC_ClkInitStruct.AHBCLKDivider = RCC_SYSCLK_DIV1;
 8002e10:	2300      	movs	r3, #0
 8002e12:	613b      	str	r3, [r7, #16]
  RCC_ClkInitStruct.APB1CLKDivider = RCC_HCLK_DIV1;
 8002e14:	2300      	movs	r3, #0
 8002e16:	617b      	str	r3, [r7, #20]
  RCC_ClkInitStruct.APB2CLKDivider = RCC_HCLK_DIV1;
 8002e18:	2300      	movs	r3, #0
 8002e1a:	61bb      	str	r3, [r7, #24]

  if (HAL_RCC_ClockConfig(&RCC_ClkInitStruct, FLASH_LATENCY_0) != HAL_OK)
 8002e1c:	f107 0308 	add.w	r3, r7, #8
 8002e20:	2100      	movs	r1, #0
 8002e22:	4618      	mov	r0, r3
 8002e24:	f002 f8c8 	bl	8004fb8 <HAL_RCC_ClockConfig>
 8002e28:	4603      	mov	r3, r0
 8002e2a:	2b00      	cmp	r3, #0
 8002e2c:	d001      	beq.n	8002e32 <SystemClock_Config+0xb2>
  {
    Error_Handler();
 8002e2e:	f000 f935 	bl	800309c <Error_Handler>
  }
}
 8002e32:	bf00      	nop
 8002e34:	3750      	adds	r7, #80	@ 0x50
 8002e36:	46bd      	mov	sp, r7
 8002e38:	bd80      	pop	{r7, pc}
 8002e3a:	bf00      	nop
 8002e3c:	40023800 	.word	0x40023800
 8002e40:	40007000 	.word	0x40007000

08002e44 <MX_IWDG_Init>:
  * @brief IWDG Initialization Function
  * @param None
  * @retval None
  */
static void MX_IWDG_Init(void)
{
 8002e44:	b580      	push	{r7, lr}
 8002e46:	af00      	add	r7, sp, #0
  /* USER CODE END IWDG_Init 0 */

  /* USER CODE BEGIN IWDG_Init 1 */

  /* USER CODE END IWDG_Init 1 */
  hiwdg.Instance = IWDG;
 8002e48:	4b09      	ldr	r3, [pc, #36]	@ (8002e70 <MX_IWDG_Init+0x2c>)
 8002e4a:	4a0a      	ldr	r2, [pc, #40]	@ (8002e74 <MX_IWDG_Init+0x30>)
 8002e4c:	601a      	str	r2, [r3, #0]
  hiwdg.Init.Prescaler = IWDG_PRESCALER_4;
 8002e4e:	4b08      	ldr	r3, [pc, #32]	@ (8002e70 <MX_IWDG_Init+0x2c>)
 8002e50:	2200      	movs	r2, #0
 8002e52:	605a      	str	r2, [r3, #4]
  hiwdg.Init.Reload = 4095;
 8002e54:	4b06      	ldr	r3, [pc, #24]	@ (8002e70 <MX_IWDG_Init+0x2c>)
 8002e56:	f640 72ff 	movw	r2, #4095	@ 0xfff
 8002e5a:	609a      	str	r2, [r3, #8]
  if (HAL_IWDG_Init(&hiwdg) != HAL_OK)
 8002e5c:	4804      	ldr	r0, [pc, #16]	@ (8002e70 <MX_IWDG_Init+0x2c>)
 8002e5e:	f002 f856 	bl	8004f0e <HAL_IWDG_Init>
 8002e62:	4603      	mov	r3, r0
 8002e64:	2b00      	cmp	r3, #0
 8002e66:	d001      	beq.n	8002e6c <MX_IWDG_Init+0x28>
  {
    Error_Handler();
 8002e68:	f000 f918 	bl	800309c <Error_Handler>
  }
  /* USER CODE BEGIN IWDG_Init 2 */

  /* USER CODE END IWDG_Init 2 */

}
 8002e6c:	bf00      	nop
 8002e6e:	bd80      	pop	{r7, pc}
 8002e70:	2000008c 	.word	0x2000008c
 8002e74:	40003000 	.word	0x40003000

08002e78 <MX_TIM2_Init>:
  * @brief TIM2 Initialization Function
  * @param None
  * @retval None
  */
static void MX_TIM2_Init(void)
{
 8002e78:	b580      	push	{r7, lr}
 8002e7a:	b086      	sub	sp, #24
 8002e7c:	af00      	add	r7, sp, #0

  /* USER CODE BEGIN TIM2_Init 0 */

  /* USER CODE END TIM2_Init 0 */

  TIM_ClockConfigTypeDef sClockSourceConfig = {0};
 8002e7e:	f107 0308 	add.w	r3, r7, #8
 8002e82:	2200      	movs	r2, #0
 8002e84:	601a      	str	r2, [r3, #0]
 8002e86:	605a      	str	r2, [r3, #4]
 8002e88:	609a      	str	r2, [r3, #8]
 8002e8a:	60da      	str	r2, [r3, #12]
  TIM_MasterConfigTypeDef sMasterConfig = {0};
 8002e8c:	463b      	mov	r3, r7
 8002e8e:	2200      	movs	r2, #0
 8002e90:	601a      	str	r2, [r3, #0]
 8002e92:	605a      	str	r2, [r3, #4]

  /* USER CODE BEGIN TIM2_Init 1 */

  /* USER CODE END TIM2_Init 1 */
  htim2.Instance = TIM2;
 8002e94:	4b1d      	ldr	r3, [pc, #116]	@ (8002f0c <MX_TIM2_Init+0x94>)
 8002e96:	f04f 4280 	mov.w	r2, #1073741824	@ 0x40000000
 8002e9a:	601a      	str	r2, [r3, #0]
  htim2.Init.Prescaler = 0;
 8002e9c:	4b1b      	ldr	r3, [pc, #108]	@ (8002f0c <MX_TIM2_Init+0x94>)
 8002e9e:	2200      	movs	r2, #0
 8002ea0:	605a      	str	r2, [r3, #4]
  htim2.Init.CounterMode = TIM_COUNTERMODE_UP;
 8002ea2:	4b1a      	ldr	r3, [pc, #104]	@ (8002f0c <MX_TIM2_Init+0x94>)
 8002ea4:	2200      	movs	r2, #0
 8002ea6:	609a      	str	r2, [r3, #8]
  htim2.Init.Period = 4294967295;
 8002ea8:	4b18      	ldr	r3, [pc, #96]	@ (8002f0c <MX_TIM2_Init+0x94>)
 8002eaa:	f04f 32ff 	mov.w	r2, #4294967295
 8002eae:	60da      	str	r2, [r3, #12]
  htim2.Init.ClockDivision = TIM_CLOCKDIVISION_DIV1;
 8002eb0:	4b16      	ldr	r3, [pc, #88]	@ (8002f0c <MX_TIM2_Init+0x94>)
 8002eb2:	2200      	movs	r2, #0
 8002eb4:	611a      	str	r2, [r3, #16]
  htim2.Init.AutoReloadPreload = TIM_AUTORELOAD_PRELOAD_DISABLE;
 8002eb6:	4b15      	ldr	r3, [pc, #84]	@ (8002f0c <MX_TIM2_Init+0x94>)
 8002eb8:	2200      	movs	r2, #0
 8002eba:	619a      	str	r2, [r3, #24]
  if (HAL_TIM_Base_Init(&htim2) != HAL_OK)
 8002ebc:	4813      	ldr	r0, [pc, #76]	@ (8002f0c <MX_TIM2_Init+0x94>)
 8002ebe:	f002 fe0f 	bl	8005ae0 <HAL_TIM_Base_Init>
 8002ec2:	4603      	mov	r3, r0
 8002ec4:	2b00      	cmp	r3, #0
 8002ec6:	d001      	beq.n	8002ecc <MX_TIM2_Init+0x54>
  {
    Error_Handler();
 8002ec8:	f000 f8e8 	bl	800309c <Error_Handler>
  }
  sClockSourceConfig.ClockSource = TIM_CLOCKSOURCE_INTERNAL;
 8002ecc:	f44f 5380 	mov.w	r3, #4096	@ 0x1000
 8002ed0:	60bb      	str	r3, [r7, #8]
  if (HAL_TIM_ConfigClockSource(&htim2, &sClockSourceConfig) != HAL_OK)
 8002ed2:	f107 0308 	add.w	r3, r7, #8
 8002ed6:	4619      	mov	r1, r3
 8002ed8:	480c      	ldr	r0, [pc, #48]	@ (8002f0c <MX_TIM2_Init+0x94>)
 8002eda:	f003 f819 	bl	8005f10 <HAL_TIM_ConfigClockSource>
 8002ede:	4603      	mov	r3, r0
 8002ee0:	2b00      	cmp	r3, #0
 8002ee2:	d001      	beq.n	8002ee8 <MX_TIM2_Init+0x70>
  {
    Error_Handler();
 8002ee4:	f000 f8da 	bl	800309c <Error_Handler>
  }
  sMasterConfig.MasterOutputTrigger = TIM_TRGO_RESET;
 8002ee8:	2300      	movs	r3, #0
 8002eea:	603b      	str	r3, [r7, #0]
  sMasterConfig.MasterSlaveMode = TIM_MASTERSLAVEMODE_DISABLE;
 8002eec:	2300      	movs	r3, #0
 8002eee:	607b      	str	r3, [r7, #4]
  if (HAL_TIMEx_MasterConfigSynchronization(&htim2, &sMasterConfig) != HAL_OK)
 8002ef0:	463b      	mov	r3, r7
 8002ef2:	4619      	mov	r1, r3
 8002ef4:	4805      	ldr	r0, [pc, #20]	@ (8002f0c <MX_TIM2_Init+0x94>)
 8002ef6:	f003 fa3b 	bl	8006370 <HAL_TIMEx_MasterConfigSynchronization>
 8002efa:	4603      	mov	r3, r0
 8002efc:	2b00      	cmp	r3, #0
 8002efe:	d001      	beq.n	8002f04 <MX_TIM2_Init+0x8c>
  {
    Error_Handler();
 8002f00:	f000 f8cc 	bl	800309c <Error_Handler>
  }
  /* USER CODE BEGIN TIM2_Init 2 */

  /* USER CODE END TIM2_Init 2 */

}
 8002f04:	bf00      	nop
 8002f06:	3718      	adds	r7, #24
 8002f08:	46bd      	mov	sp, r7
 8002f0a:	bd80      	pop	{r7, pc}
 8002f0c:	20000098 	.word	0x20000098

08002f10 <MX_UART4_Init>:
  * @brief UART4 Initialization Function
  * @param None
  * @retval None
  */
static void MX_UART4_Init(void)
{
 8002f10:	b580      	push	{r7, lr}
 8002f12:	af00      	add	r7, sp, #0
  /* USER CODE END UART4_Init 0 */

  /* USER CODE BEGIN UART4_Init 1 */

  /* USER CODE END UART4_Init 1 */
  huart4.Instance = UART4;
 8002f14:	4b10      	ldr	r3, [pc, #64]	@ (8002f58 <MX_UART4_Init+0x48>)
 8002f16:	4a11      	ldr	r2, [pc, #68]	@ (8002f5c <MX_UART4_Init+0x4c>)
 8002f18:	601a      	str	r2, [r3, #0]
  huart4.Init.BaudRate = 1000000;
 8002f1a:	4b0f      	ldr	r3, [pc, #60]	@ (8002f58 <MX_UART4_Init+0x48>)
 8002f1c:	4a10      	ldr	r2, [pc, #64]	@ (8002f60 <MX_UART4_Init+0x50>)
 8002f1e:	605a      	str	r2, [r3, #4]
  huart4.Init.WordLength = UART_WORDLENGTH_8B;
 8002f20:	4b0d      	ldr	r3, [pc, #52]	@ (8002f58 <MX_UART4_Init+0x48>)
 8002f22:	2200      	movs	r2, #0
 8002f24:	609a      	str	r2, [r3, #8]
  huart4.Init.StopBits = UART_STOPBITS_1;
 8002f26:	4b0c      	ldr	r3, [pc, #48]	@ (8002f58 <MX_UART4_Init+0x48>)
 8002f28:	2200      	movs	r2, #0
 8002f2a:	60da      	str	r2, [r3, #12]
  huart4.Init.Parity = UART_PARITY_NONE;
 8002f2c:	4b0a      	ldr	r3, [pc, #40]	@ (8002f58 <MX_UART4_Init+0x48>)
 8002f2e:	2200      	movs	r2, #0
 8002f30:	611a      	str	r2, [r3, #16]
  huart4.Init.Mode = UART_MODE_TX_RX;
 8002f32:	4b09      	ldr	r3, [pc, #36]	@ (8002f58 <MX_UART4_Init+0x48>)
 8002f34:	220c      	movs	r2, #12
 8002f36:	615a      	str	r2, [r3, #20]
  huart4.Init.HwFlowCtl = UART_HWCONTROL_NONE;
 8002f38:	4b07      	ldr	r3, [pc, #28]	@ (8002f58 <MX_UART4_Init+0x48>)
 8002f3a:	2200      	movs	r2, #0
 8002f3c:	619a      	str	r2, [r3, #24]
  huart4.Init.OverSampling = UART_OVERSAMPLING_16;
 8002f3e:	4b06      	ldr	r3, [pc, #24]	@ (8002f58 <MX_UART4_Init+0x48>)
 8002f40:	2200      	movs	r2, #0
 8002f42:	61da      	str	r2, [r3, #28]
  if (HAL_UART_Init(&huart4) != HAL_OK)
 8002f44:	4804      	ldr	r0, [pc, #16]	@ (8002f58 <MX_UART4_Init+0x48>)
 8002f46:	f003 faa3 	bl	8006490 <HAL_UART_Init>
 8002f4a:	4603      	mov	r3, r0
 8002f4c:	2b00      	cmp	r3, #0
 8002f4e:	d001      	beq.n	8002f54 <MX_UART4_Init+0x44>
  {
    Error_Handler();
 8002f50:	f000 f8a4 	bl	800309c <Error_Handler>
  }
  /* USER CODE BEGIN UART4_Init 2 */

  /* USER CODE END UART4_Init 2 */

}
 8002f54:	bf00      	nop
 8002f56:	bd80      	pop	{r7, pc}
 8002f58:	200000e0 	.word	0x200000e0
 8002f5c:	40004c00 	.word	0x40004c00
 8002f60:	000f4240 	.word	0x000f4240

08002f64 <MX_USART3_UART_Init>:
  * @brief USART3 Initialization Function
  * @param None
  * @retval None
  */
static void MX_USART3_UART_Init(void)
{
 8002f64:	b580      	push	{r7, lr}
 8002f66:	af00      	add	r7, sp, #0
  /* USER CODE END USART3_Init 0 */

  /* USER CODE BEGIN USART3_Init 1 */

  /* USER CODE END USART3_Init 1 */
  huart3.Instance = USART3;
 8002f68:	4b11      	ldr	r3, [pc, #68]	@ (8002fb0 <MX_USART3_UART_Init+0x4c>)
 8002f6a:	4a12      	ldr	r2, [pc, #72]	@ (8002fb4 <MX_USART3_UART_Init+0x50>)
 8002f6c:	601a      	str	r2, [r3, #0]
  huart3.Init.BaudRate = 115200;
 8002f6e:	4b10      	ldr	r3, [pc, #64]	@ (8002fb0 <MX_USART3_UART_Init+0x4c>)
 8002f70:	f44f 32e1 	mov.w	r2, #115200	@ 0x1c200
 8002f74:	605a      	str	r2, [r3, #4]
  huart3.Init.WordLength = UART_WORDLENGTH_8B;
 8002f76:	4b0e      	ldr	r3, [pc, #56]	@ (8002fb0 <MX_USART3_UART_Init+0x4c>)
 8002f78:	2200      	movs	r2, #0
 8002f7a:	609a      	str	r2, [r3, #8]
  huart3.Init.StopBits = UART_STOPBITS_1;
 8002f7c:	4b0c      	ldr	r3, [pc, #48]	@ (8002fb0 <MX_USART3_UART_Init+0x4c>)
 8002f7e:	2200      	movs	r2, #0
 8002f80:	60da      	str	r2, [r3, #12]
  huart3.Init.Parity = UART_PARITY_NONE;
 8002f82:	4b0b      	ldr	r3, [pc, #44]	@ (8002fb0 <MX_USART3_UART_Init+0x4c>)
 8002f84:	2200      	movs	r2, #0
 8002f86:	611a      	str	r2, [r3, #16]
  huart3.Init.Mode = UART_MODE_TX_RX;
 8002f88:	4b09      	ldr	r3, [pc, #36]	@ (8002fb0 <MX_USART3_UART_Init+0x4c>)
 8002f8a:	220c      	movs	r2, #12
 8002f8c:	615a      	str	r2, [r3, #20]
  huart3.Init.HwFlowCtl = UART_HWCONTROL_NONE;
 8002f8e:	4b08      	ldr	r3, [pc, #32]	@ (8002fb0 <MX_USART3_UART_Init+0x4c>)
 8002f90:	2200      	movs	r2, #0
 8002f92:	619a      	str	r2, [r3, #24]
  huart3.Init.OverSampling = UART_OVERSAMPLING_16;
 8002f94:	4b06      	ldr	r3, [pc, #24]	@ (8002fb0 <MX_USART3_UART_Init+0x4c>)
 8002f96:	2200      	movs	r2, #0
 8002f98:	61da      	str	r2, [r3, #28]
  if (HAL_UART_Init(&huart3) != HAL_OK)
 8002f9a:	4805      	ldr	r0, [pc, #20]	@ (8002fb0 <MX_USART3_UART_Init+0x4c>)
 8002f9c:	f003 fa78 	bl	8006490 <HAL_UART_Init>
 8002fa0:	4603      	mov	r3, r0
 8002fa2:	2b00      	cmp	r3, #0
 8002fa4:	d001      	beq.n	8002faa <MX_USART3_UART_Init+0x46>
  {
    Error_Handler();
 8002fa6:	f000 f879 	bl	800309c <Error_Handler>
  }
  /* USER CODE BEGIN USART3_Init 2 */

  /* USER CODE END USART3_Init 2 */

}
 8002faa:	bf00      	nop
 8002fac:	bd80      	pop	{r7, pc}
 8002fae:	bf00      	nop
 8002fb0:	20000128 	.word	0x20000128
 8002fb4:	40004800 	.word	0x40004800

08002fb8 <MX_DMA_Init>:

/**
  * Enable DMA controller clock
  */
static void MX_DMA_Init(void)
{
 8002fb8:	b580      	push	{r7, lr}
 8002fba:	b082      	sub	sp, #8
 8002fbc:	af00      	add	r7, sp, #0

  /* DMA controller clock enable */
  __HAL_RCC_DMA1_CLK_ENABLE();
 8002fbe:	2300      	movs	r3, #0
 8002fc0:	607b      	str	r3, [r7, #4]
 8002fc2:	4b10      	ldr	r3, [pc, #64]	@ (8003004 <MX_DMA_Init+0x4c>)
 8002fc4:	6b1b      	ldr	r3, [r3, #48]	@ 0x30
 8002fc6:	4a0f      	ldr	r2, [pc, #60]	@ (8003004 <MX_DMA_Init+0x4c>)
 8002fc8:	f443 1300 	orr.w	r3, r3, #2097152	@ 0x200000
 8002fcc:	6313      	str	r3, [r2, #48]	@ 0x30
 8002fce:	4b0d      	ldr	r3, [pc, #52]	@ (8003004 <MX_DMA_Init+0x4c>)
 8002fd0:	6b1b      	ldr	r3, [r3, #48]	@ 0x30
 8002fd2:	f403 1300 	and.w	r3, r3, #2097152	@ 0x200000
 8002fd6:	607b      	str	r3, [r7, #4]
 8002fd8:	687b      	ldr	r3, [r7, #4]

  /* DMA interrupt init */
  /* DMA1_Stream2_IRQn interrupt configuration */
  HAL_NVIC_SetPriority(DMA1_Stream2_IRQn, 0, 0);
 8002fda:	2200      	movs	r2, #0
 8002fdc:	2100      	movs	r1, #0
 8002fde:	200d      	movs	r0, #13
 8002fe0:	f001 f85a 	bl	8004098 <HAL_NVIC_SetPriority>
  HAL_NVIC_EnableIRQ(DMA1_Stream2_IRQn);
 8002fe4:	200d      	movs	r0, #13
 8002fe6:	f001 f873 	bl	80040d0 <HAL_NVIC_EnableIRQ>
  /* DMA1_Stream4_IRQn interrupt configuration */
  HAL_NVIC_SetPriority(DMA1_Stream4_IRQn, 0, 0);
 8002fea:	2200      	movs	r2, #0
 8002fec:	2100      	movs	r1, #0
 8002fee:	200f      	movs	r0, #15
 8002ff0:	f001 f852 	bl	8004098 <HAL_NVIC_SetPriority>
  HAL_NVIC_EnableIRQ(DMA1_Stream4_IRQn);
 8002ff4:	200f      	movs	r0, #15
 8002ff6:	f001 f86b 	bl	80040d0 <HAL_NVIC_EnableIRQ>

}
 8002ffa:	bf00      	nop
 8002ffc:	3708      	adds	r7, #8
 8002ffe:	46bd      	mov	sp, r7
 8003000:	bd80      	pop	{r7, pc}
 8003002:	bf00      	nop
 8003004:	40023800 	.word	0x40023800

08003008 <MX_GPIO_Init>:
  * @brief GPIO Initialization Function
  * @param None
  * @retval None
  */
static void MX_GPIO_Init(void)
{
 8003008:	b480      	push	{r7}
 800300a:	b085      	sub	sp, #20
 800300c:	af00      	add	r7, sp, #0
  /* USER CODE BEGIN MX_GPIO_Init_1 */

  /* USER CODE END MX_GPIO_Init_1 */

  /* GPIO Ports Clock Enable */
  __HAL_RCC_GPIOA_CLK_ENABLE();
 800300e:	2300      	movs	r3, #0
 8003010:	60fb      	str	r3, [r7, #12]
 8003012:	4b17      	ldr	r3, [pc, #92]	@ (8003070 <MX_GPIO_Init+0x68>)
 8003014:	6b1b      	ldr	r3, [r3, #48]	@ 0x30
 8003016:	4a16      	ldr	r2, [pc, #88]	@ (8003070 <MX_GPIO_Init+0x68>)
 8003018:	f043 0301 	orr.w	r3, r3, #1
 800301c:	6313      	str	r3, [r2, #48]	@ 0x30
 800301e:	4b14      	ldr	r3, [pc, #80]	@ (8003070 <MX_GPIO_Init+0x68>)
 8003020:	6b1b      	ldr	r3, [r3, #48]	@ 0x30
 8003022:	f003 0301 	and.w	r3, r3, #1
 8003026:	60fb      	str	r3, [r7, #12]
 8003028:	68fb      	ldr	r3, [r7, #12]
  __HAL_RCC_GPIOC_CLK_ENABLE();
 800302a:	2300      	movs	r3, #0
 800302c:	60bb      	str	r3, [r7, #8]
 800302e:	4b10      	ldr	r3, [pc, #64]	@ (8003070 <MX_GPIO_Init+0x68>)
 8003030:	6b1b      	ldr	r3, [r3, #48]	@ 0x30
 8003032:	4a0f      	ldr	r2, [pc, #60]	@ (8003070 <MX_GPIO_Init+0x68>)
 8003034:	f043 0304 	orr.w	r3, r3, #4
 8003038:	6313      	str	r3, [r2, #48]	@ 0x30
 800303a:	4b0d      	ldr	r3, [pc, #52]	@ (8003070 <MX_GPIO_Init+0x68>)
 800303c:	6b1b      	ldr	r3, [r3, #48]	@ 0x30
 800303e:	f003 0304 	and.w	r3, r3, #4
 8003042:	60bb      	str	r3, [r7, #8]
 8003044:	68bb      	ldr	r3, [r7, #8]
  __HAL_RCC_GPIOB_CLK_ENABLE();
 8003046:	2300      	movs	r3, #0
 8003048:	607b      	str	r3, [r7, #4]
 800304a:	4b09      	ldr	r3, [pc, #36]	@ (8003070 <MX_GPIO_Init+0x68>)
 800304c:	6b1b      	ldr	r3, [r3, #48]	@ 0x30
 800304e:	4a08      	ldr	r2, [pc, #32]	@ (8003070 <MX_GPIO_Init+0x68>)
 8003050:	f043 0302 	orr.w	r3, r3, #2
 8003054:	6313      	str	r3, [r2, #48]	@ 0x30
 8003056:	4b06      	ldr	r3, [pc, #24]	@ (8003070 <MX_GPIO_Init+0x68>)
 8003058:	6b1b      	ldr	r3, [r3, #48]	@ 0x30
 800305a:	f003 0302 	and.w	r3, r3, #2
 800305e:	607b      	str	r3, [r7, #4]
 8003060:	687b      	ldr	r3, [r7, #4]

  /* USER CODE BEGIN MX_GPIO_Init_2 */

  /* USER CODE END MX_GPIO_Init_2 */
}
 8003062:	bf00      	nop
 8003064:	3714      	adds	r7, #20
 8003066:	46bd      	mov	sp, r7
 8003068:	f85d 7b04 	ldr.w	r7, [sp], #4
 800306c:	4770      	bx	lr
 800306e:	bf00      	nop
 8003070:	40023800 	.word	0x40023800

08003074 <HAL_TIM_PeriodElapsedCallback>:
  * a global variable "uwTick" used as application time base.
  * @param  htim : TIM handle
  * @retval None
  */
void HAL_TIM_PeriodElapsedCallback(TIM_HandleTypeDef *htim)
{
 8003074:	b580      	push	{r7, lr}
 8003076:	b082      	sub	sp, #8
 8003078:	af00      	add	r7, sp, #0
 800307a:	6078      	str	r0, [r7, #4]
  /* USER CODE BEGIN Callback 0 */

  /* USER CODE END Callback 0 */
  if (htim->Instance == TIM6)
 800307c:	687b      	ldr	r3, [r7, #4]
 800307e:	681b      	ldr	r3, [r3, #0]
 8003080:	4a05      	ldr	r2, [pc, #20]	@ (8003098 <HAL_TIM_PeriodElapsedCallback+0x24>)
 8003082:	4293      	cmp	r3, r2
 8003084:	d101      	bne.n	800308a <HAL_TIM_PeriodElapsedCallback+0x16>
  {
    HAL_IncTick();
 8003086:	f000 ff0b 	bl	8003ea0 <HAL_IncTick>
  }
  /* USER CODE BEGIN Callback 1 */

  BMS_TIM_PeriodElapsedCallback(htim);
 800308a:	6878      	ldr	r0, [r7, #4]
 800308c:	f000 fb9a 	bl	80037c4 <BMS_TIM_PeriodElapsedCallback>



  /* USER CODE END Callback 1 */
}
 8003090:	bf00      	nop
 8003092:	3708      	adds	r7, #8
 8003094:	46bd      	mov	sp, r7
 8003096:	bd80      	pop	{r7, pc}
 8003098:	40001000 	.word	0x40001000

0800309c <Error_Handler>:
/**
  * @brief  This function is executed in case of error occurrence.
  * @retval None
  */
void Error_Handler(void)
{
 800309c:	b480      	push	{r7}
 800309e:	af00      	add	r7, sp, #0
  \details Disables IRQ interrupts by setting special-purpose register PRIMASK.
           Can only be executed in Privileged modes.
 */
__STATIC_FORCEINLINE void __disable_irq(void)
{
  __ASM volatile ("cpsid i" : : : "memory");
 80030a0:	b672      	cpsid	i
}
 80030a2:	bf00      	nop
  /* USER CODE BEGIN Error_Handler_Debug */
  /* User can add his own implementation to report the HAL error return state */
  __disable_irq();
  while (1)
 80030a4:	bf00      	nop
 80030a6:	e7fd      	b.n	80030a4 <Error_Handler+0x8>

080030a8 <BMS_PrintStatus>:
/**
 * @brief  Imprime sumário do estado do BMS via UART de debug
 *         Na prática usar ITM printf ou UART3/LPUART para debug
 */
static void BMS_PrintStatus(BMS_Handle_t *hbms)
{
 80030a8:	b5f0      	push	{r4, r5, r6, r7, lr}
 80030aa:	b087      	sub	sp, #28
 80030ac:	af02      	add	r7, sp, #8
 80030ae:	6078      	str	r0, [r7, #4]
    /* Na plataforma real, redirigir para UART de debug ou ITM */
    /* Exemplo com printf (requer retargeting de _write) */
    printf("\r\n=== BMS STATUS ===\r\n");
 80030b0:	487a      	ldr	r0, [pc, #488]	@ (800329c <BMS_PrintStatus+0x1f4>)
 80030b2:	f004 fa45 	bl	8007540 <puts>
    printf("State     : %s\r\n", BMS_GetStateString(hbms->state));
 80030b6:	687b      	ldr	r3, [r7, #4]
 80030b8:	781b      	ldrb	r3, [r3, #0]
 80030ba:	4618      	mov	r0, r3
 80030bc:	f7ff fb70 	bl	80027a0 <BMS_GetStateString>
 80030c0:	4603      	mov	r3, r0
 80030c2:	4619      	mov	r1, r3
 80030c4:	4876      	ldr	r0, [pc, #472]	@ (80032a0 <BMS_PrintStatus+0x1f8>)
 80030c6:	f004 f9d3 	bl	8007470 <iprintf>
    printf("Fault     : %s (0x%08lX)\r\n",
 80030ca:	687b      	ldr	r3, [r7, #4]
 80030cc:	685b      	ldr	r3, [r3, #4]
 80030ce:	4618      	mov	r0, r3
 80030d0:	f7ff fbb2 	bl	8002838 <BMS_GetFaultString>
 80030d4:	4601      	mov	r1, r0
 80030d6:	687b      	ldr	r3, [r7, #4]
 80030d8:	685b      	ldr	r3, [r3, #4]
 80030da:	461a      	mov	r2, r3
 80030dc:	4871      	ldr	r0, [pc, #452]	@ (80032a4 <BMS_PrintStatus+0x1fc>)
 80030de:	f004 f9c7 	bl	8007470 <iprintf>
           BMS_GetFaultString(hbms->fault_flags), hbms->fault_flags);
    printf("Pack V    : %lu mV\r\n", hbms->pack_voltage_mv);
 80030e2:	687b      	ldr	r3, [r7, #4]
 80030e4:	f8d3 30b4 	ldr.w	r3, [r3, #180]	@ 0xb4
 80030e8:	4619      	mov	r1, r3
 80030ea:	486f      	ldr	r0, [pc, #444]	@ (80032a8 <BMS_PrintStatus+0x200>)
 80030ec:	f004 f9c0 	bl	8007470 <iprintf>
    printf("Min Cell  : %u mV\r\n", hbms->min_cell_mv);
 80030f0:	687b      	ldr	r3, [r7, #4]
 80030f2:	f8b3 30b8 	ldrh.w	r3, [r3, #184]	@ 0xb8
 80030f6:	4619      	mov	r1, r3
 80030f8:	486c      	ldr	r0, [pc, #432]	@ (80032ac <BMS_PrintStatus+0x204>)
 80030fa:	f004 f9b9 	bl	8007470 <iprintf>
    printf("Max Cell  : %u mV\r\n", hbms->max_cell_mv);
 80030fe:	687b      	ldr	r3, [r7, #4]
 8003100:	f8b3 30ba 	ldrh.w	r3, [r3, #186]	@ 0xba
 8003104:	4619      	mov	r1, r3
 8003106:	486a      	ldr	r0, [pc, #424]	@ (80032b0 <BMS_PrintStatus+0x208>)
 8003108:	f004 f9b2 	bl	8007470 <iprintf>
    printf("Delta     : %u mV\r\n", hbms->delta_cell_mv);
 800310c:	687b      	ldr	r3, [r7, #4]
 800310e:	f8b3 30bc 	ldrh.w	r3, [r3, #188]	@ 0xbc
 8003112:	4619      	mov	r1, r3
 8003114:	4867      	ldr	r0, [pc, #412]	@ (80032b4 <BMS_PrintStatus+0x20c>)
 8003116:	f004 f9ab 	bl	8007470 <iprintf>
    printf("Max Temp  : %d degC\r\n", hbms->max_temp_c);
 800311a:	687b      	ldr	r3, [r7, #4]
 800311c:	f9b3 30be 	ldrsh.w	r3, [r3, #190]	@ 0xbe
 8003120:	4619      	mov	r1, r3
 8003122:	4865      	ldr	r0, [pc, #404]	@ (80032b8 <BMS_PrintStatus+0x210>)
 8003124:	f004 f9a4 	bl	8007470 <iprintf>
    printf("SoC       : %u%%\r\n", (unsigned)hbms->soc_percent);
 8003128:	687b      	ldr	r3, [r7, #4]
 800312a:	f893 30e4 	ldrb.w	r3, [r3, #228]	@ 0xe4
 800312e:	4619      	mov	r1, r3
 8003130:	4862      	ldr	r0, [pc, #392]	@ (80032bc <BMS_PrintStatus+0x214>)
 8003132:	f004 f99d 	bl	8007470 <iprintf>
    printf("HV Bus    : %lu mV (precharge %s)\r\n",
 8003136:	687b      	ldr	r3, [r7, #4]
 8003138:	f8d3 10d8 	ldr.w	r1, [r3, #216]	@ 0xd8
           hbms->inverter_voltage_mv,
           hbms->precharge_ready ? "READY" : "not ready");
 800313c:	687b      	ldr	r3, [r7, #4]
 800313e:	f893 30dc 	ldrb.w	r3, [r3, #220]	@ 0xdc
    printf("HV Bus    : %lu mV (precharge %s)\r\n",
 8003142:	2b00      	cmp	r3, #0
 8003144:	d001      	beq.n	800314a <BMS_PrintStatus+0xa2>
 8003146:	4b5e      	ldr	r3, [pc, #376]	@ (80032c0 <BMS_PrintStatus+0x218>)
 8003148:	e000      	b.n	800314c <BMS_PrintStatus+0xa4>
 800314a:	4b5e      	ldr	r3, [pc, #376]	@ (80032c4 <BMS_PrintStatus+0x21c>)
 800314c:	461a      	mov	r2, r3
 800314e:	485e      	ldr	r0, [pc, #376]	@ (80032c8 <BMS_PrintStatus+0x220>)
 8003150:	f004 f98e 	bl	8007470 <iprintf>
    printf("Ring OK   : %s\r\n", hbms->ring_intact ? "YES" : "NO");
 8003154:	687b      	ldr	r3, [r7, #4]
 8003156:	7a1b      	ldrb	r3, [r3, #8]
 8003158:	2b00      	cmp	r3, #0
 800315a:	d001      	beq.n	8003160 <BMS_PrintStatus+0xb8>
 800315c:	4b5b      	ldr	r3, [pc, #364]	@ (80032cc <BMS_PrintStatus+0x224>)
 800315e:	e000      	b.n	8003162 <BMS_PrintStatus+0xba>
 8003160:	4b5b      	ldr	r3, [pc, #364]	@ (80032d0 <BMS_PrintStatus+0x228>)
 8003162:	4619      	mov	r1, r3
 8003164:	485b      	ldr	r0, [pc, #364]	@ (80032d4 <BMS_PrintStatus+0x22c>)
 8003166:	f004 f983 	bl	8007470 <iprintf>
    printf("Contactor : %s\r\n", hbms->contactor_closed ? "CLOSED" : "OPEN");
 800316a:	687b      	ldr	r3, [r7, #4]
 800316c:	7a9b      	ldrb	r3, [r3, #10]
 800316e:	b2db      	uxtb	r3, r3
 8003170:	2b00      	cmp	r3, #0
 8003172:	d001      	beq.n	8003178 <BMS_PrintStatus+0xd0>
 8003174:	4b58      	ldr	r3, [pc, #352]	@ (80032d8 <BMS_PrintStatus+0x230>)
 8003176:	e000      	b.n	800317a <BMS_PrintStatus+0xd2>
 8003178:	4b58      	ldr	r3, [pc, #352]	@ (80032dc <BMS_PrintStatus+0x234>)
 800317a:	4619      	mov	r1, r3
 800317c:	4858      	ldr	r0, [pc, #352]	@ (80032e0 <BMS_PrintStatus+0x238>)
 800317e:	f004 f977 	bl	8007470 <iprintf>

    for (uint8_t s = 0U; s < BMS_NUM_SLAVES; s++)
 8003182:	2300      	movs	r3, #0
 8003184:	73fb      	strb	r3, [r7, #15]
 8003186:	e06e      	b.n	8003266 <BMS_PrintStatus+0x1be>
    {
        printf("\r\n  Slave %u (Addr 0x%02X):\r\n", s + 1U,
 8003188:	7bfb      	ldrb	r3, [r7, #15]
 800318a:	1c59      	adds	r1, r3, #1
               hbms->slave[s].address);
 800318c:	7bfb      	ldrb	r3, [r7, #15]
 800318e:	687a      	ldr	r2, [r7, #4]
 8003190:	2054      	movs	r0, #84	@ 0x54
 8003192:	fb00 f303 	mul.w	r3, r0, r3
 8003196:	4413      	add	r3, r2
 8003198:	330c      	adds	r3, #12
 800319a:	781b      	ldrb	r3, [r3, #0]
        printf("\r\n  Slave %u (Addr 0x%02X):\r\n", s + 1U,
 800319c:	461a      	mov	r2, r3
 800319e:	4851      	ldr	r0, [pc, #324]	@ (80032e4 <BMS_PrintStatus+0x23c>)
 80031a0:	f004 f966 	bl	8007470 <iprintf>
        for (uint8_t c = 0U; c < BMS_CELLS_PER_SLAVE; c++)
 80031a4:	2300      	movs	r3, #0
 80031a6:	73bb      	strb	r3, [r7, #14]
 80031a8:	e035      	b.n	8003216 <BMS_PrintStatus+0x16e>
        {
            printf("    Cell%02u: %4u mV%s%s\r\n",
 80031aa:	7bbb      	ldrb	r3, [r7, #14]
 80031ac:	1c58      	adds	r0, r3, #1
                   c + 1U,
                   hbms->slave[s].cell_voltage_mv[c],
 80031ae:	7bf9      	ldrb	r1, [r7, #15]
 80031b0:	7bbb      	ldrb	r3, [r7, #14]
 80031b2:	687a      	ldr	r2, [r7, #4]
 80031b4:	242a      	movs	r4, #42	@ 0x2a
 80031b6:	fb04 f101 	mul.w	r1, r4, r1
 80031ba:	440b      	add	r3, r1
 80031bc:	3304      	adds	r3, #4
 80031be:	005b      	lsls	r3, r3, #1
 80031c0:	4413      	add	r3, r2
 80031c2:	88db      	ldrh	r3, [r3, #6]
            printf("    Cell%02u: %4u mV%s%s\r\n",
 80031c4:	461e      	mov	r6, r3
                   hbms->slave[s].ov_cell[c] ? " [OV]" : "",
 80031c6:	7bfa      	ldrb	r2, [r7, #15]
 80031c8:	7bbb      	ldrb	r3, [r7, #14]
 80031ca:	6879      	ldr	r1, [r7, #4]
 80031cc:	2454      	movs	r4, #84	@ 0x54
 80031ce:	fb04 f202 	mul.w	r2, r4, r2
 80031d2:	440a      	add	r2, r1
 80031d4:	4413      	add	r3, r2
 80031d6:	333c      	adds	r3, #60	@ 0x3c
 80031d8:	781b      	ldrb	r3, [r3, #0]
            printf("    Cell%02u: %4u mV%s%s\r\n",
 80031da:	2b00      	cmp	r3, #0
 80031dc:	d001      	beq.n	80031e2 <BMS_PrintStatus+0x13a>
 80031de:	4c42      	ldr	r4, [pc, #264]	@ (80032e8 <BMS_PrintStatus+0x240>)
 80031e0:	e000      	b.n	80031e4 <BMS_PrintStatus+0x13c>
 80031e2:	4c42      	ldr	r4, [pc, #264]	@ (80032ec <BMS_PrintStatus+0x244>)
                   hbms->slave[s].uv_cell[c] ? " [UV]" : "");
 80031e4:	7bfa      	ldrb	r2, [r7, #15]
 80031e6:	7bbb      	ldrb	r3, [r7, #14]
 80031e8:	6879      	ldr	r1, [r7, #4]
 80031ea:	2554      	movs	r5, #84	@ 0x54
 80031ec:	fb05 f202 	mul.w	r2, r5, r2
 80031f0:	440a      	add	r2, r1
 80031f2:	4413      	add	r3, r2
 80031f4:	334b      	adds	r3, #75	@ 0x4b
 80031f6:	781b      	ldrb	r3, [r3, #0]
            printf("    Cell%02u: %4u mV%s%s\r\n",
 80031f8:	2b00      	cmp	r3, #0
 80031fa:	d001      	beq.n	8003200 <BMS_PrintStatus+0x158>
 80031fc:	4b3c      	ldr	r3, [pc, #240]	@ (80032f0 <BMS_PrintStatus+0x248>)
 80031fe:	e000      	b.n	8003202 <BMS_PrintStatus+0x15a>
 8003200:	4b3a      	ldr	r3, [pc, #232]	@ (80032ec <BMS_PrintStatus+0x244>)
 8003202:	9300      	str	r3, [sp, #0]
 8003204:	4623      	mov	r3, r4
 8003206:	4632      	mov	r2, r6
 8003208:	4601      	mov	r1, r0
 800320a:	483a      	ldr	r0, [pc, #232]	@ (80032f4 <BMS_PrintStatus+0x24c>)
 800320c:	f004 f930 	bl	8007470 <iprintf>
        for (uint8_t c = 0U; c < BMS_CELLS_PER_SLAVE; c++)
 8003210:	7bbb      	ldrb	r3, [r7, #14]
 8003212:	3301      	adds	r3, #1
 8003214:	73bb      	strb	r3, [r7, #14]
 8003216:	7bbb      	ldrb	r3, [r7, #14]
 8003218:	2b0e      	cmp	r3, #14
 800321a:	d9c6      	bls.n	80031aa <BMS_PrintStatus+0x102>
        }
        printf("    Temp  : %d/%d/%d degC\r\n",
               hbms->slave[s].temperatures_c[0],
 800321c:	7bfb      	ldrb	r3, [r7, #15]
 800321e:	687a      	ldr	r2, [r7, #4]
 8003220:	2154      	movs	r1, #84	@ 0x54
 8003222:	fb01 f303 	mul.w	r3, r1, r3
 8003226:	4413      	add	r3, r2
 8003228:	332c      	adds	r3, #44	@ 0x2c
 800322a:	f9b3 3000 	ldrsh.w	r3, [r3]
        printf("    Temp  : %d/%d/%d degC\r\n",
 800322e:	4618      	mov	r0, r3
               hbms->slave[s].temperatures_c[1],
 8003230:	7bfb      	ldrb	r3, [r7, #15]
 8003232:	687a      	ldr	r2, [r7, #4]
 8003234:	2154      	movs	r1, #84	@ 0x54
 8003236:	fb01 f303 	mul.w	r3, r1, r3
 800323a:	4413      	add	r3, r2
 800323c:	332e      	adds	r3, #46	@ 0x2e
 800323e:	f9b3 3000 	ldrsh.w	r3, [r3]
        printf("    Temp  : %d/%d/%d degC\r\n",
 8003242:	461c      	mov	r4, r3
               hbms->slave[s].temperatures_c[2]);
 8003244:	7bfb      	ldrb	r3, [r7, #15]
 8003246:	687a      	ldr	r2, [r7, #4]
 8003248:	2154      	movs	r1, #84	@ 0x54
 800324a:	fb01 f303 	mul.w	r3, r1, r3
 800324e:	4413      	add	r3, r2
 8003250:	3330      	adds	r3, #48	@ 0x30
 8003252:	f9b3 3000 	ldrsh.w	r3, [r3]
        printf("    Temp  : %d/%d/%d degC\r\n",
 8003256:	4622      	mov	r2, r4
 8003258:	4601      	mov	r1, r0
 800325a:	4827      	ldr	r0, [pc, #156]	@ (80032f8 <BMS_PrintStatus+0x250>)
 800325c:	f004 f908 	bl	8007470 <iprintf>
    for (uint8_t s = 0U; s < BMS_NUM_SLAVES; s++)
 8003260:	7bfb      	ldrb	r3, [r7, #15]
 8003262:	3301      	adds	r3, #1
 8003264:	73fb      	strb	r3, [r7, #15]
 8003266:	7bfb      	ldrb	r3, [r7, #15]
 8003268:	2b01      	cmp	r3, #1
 800326a:	d98d      	bls.n	8003188 <BMS_PrintStatus+0xe0>
    }
    printf("Comm Errs : %lu | CRC Errs: %lu\r\n",
 800326c:	687b      	ldr	r3, [r7, #4]
 800326e:	f8d3 10c8 	ldr.w	r1, [r3, #200]	@ 0xc8
 8003272:	687b      	ldr	r3, [r7, #4]
 8003274:	f8d3 30cc 	ldr.w	r3, [r3, #204]	@ 0xcc
 8003278:	461a      	mov	r2, r3
 800327a:	4820      	ldr	r0, [pc, #128]	@ (80032fc <BMS_PrintStatus+0x254>)
 800327c:	f004 f8f8 	bl	8007470 <iprintf>
           hbms->comm_error_count, hbms->crc_error_count);
    printf("Ring Recs : %lu\r\n", hbms->ring_recovery_count);
 8003280:	687b      	ldr	r3, [r7, #4]
 8003282:	f8d3 30c4 	ldr.w	r3, [r3, #196]	@ 0xc4
 8003286:	4619      	mov	r1, r3
 8003288:	481d      	ldr	r0, [pc, #116]	@ (8003300 <BMS_PrintStatus+0x258>)
 800328a:	f004 f8f1 	bl	8007470 <iprintf>
    printf("==================\r\n");
 800328e:	481d      	ldr	r0, [pc, #116]	@ (8003304 <BMS_PrintStatus+0x25c>)
 8003290:	f004 f956 	bl	8007540 <puts>
}
 8003294:	bf00      	nop
 8003296:	3714      	adds	r7, #20
 8003298:	46bd      	mov	sp, r7
 800329a:	bdf0      	pop	{r4, r5, r6, r7, pc}
 800329c:	08008338 	.word	0x08008338
 80032a0:	08008350 	.word	0x08008350
 80032a4:	08008364 	.word	0x08008364
 80032a8:	08008380 	.word	0x08008380
 80032ac:	08008398 	.word	0x08008398
 80032b0:	080083ac 	.word	0x080083ac
 80032b4:	080083c0 	.word	0x080083c0
 80032b8:	080083d4 	.word	0x080083d4
 80032bc:	080083ec 	.word	0x080083ec
 80032c0:	08008400 	.word	0x08008400
 80032c4:	08008408 	.word	0x08008408
 80032c8:	08008414 	.word	0x08008414
 80032cc:	08008438 	.word	0x08008438
 80032d0:	0800843c 	.word	0x0800843c
 80032d4:	08008440 	.word	0x08008440
 80032d8:	08008454 	.word	0x08008454
 80032dc:	0800845c 	.word	0x0800845c
 80032e0:	08008464 	.word	0x08008464
 80032e4:	08008478 	.word	0x08008478
 80032e8:	08008498 	.word	0x08008498
 80032ec:	080084a0 	.word	0x080084a0
 80032f0:	080084a4 	.word	0x080084a4
 80032f4:	080084ac 	.word	0x080084ac
 80032f8:	080084c8 	.word	0x080084c8
 80032fc:	080084e4 	.word	0x080084e4
 8003300:	08008508 	.word	0x08008508
 8003304:	0800851c 	.word	0x0800851c

08003308 <BMS_ContactorControl>:
 *  não tenta sequer chamar Close() enquanto existir um evento NFAULT
 *  por processar, evitando chamadas de função desnecessárias e tornando
 *  a intenção de segurança explícita ao nível do controlador.
 */
static void BMS_ContactorControl(BMS_Handle_t *hbms)
{
 8003308:	b580      	push	{r7, lr}
 800330a:	b082      	sub	sp, #8
 800330c:	af00      	add	r7, sp, #0
 800330e:	6078      	str	r0, [r7, #4]
    /* Camada exterior: não actuar sobre o contactor enquanto existir
     * um evento de hardware não processado. Qualquer estado de tensão
     * ou temperatura lido antes do BMS_ProcessFaults() escoar o evento
     * pode estar desactualizado face à condição real do pack. */
    if (__atomic_load_n(&hbms->nfault_pending, __ATOMIC_SEQ_CST) != 0U)
 8003310:	687b      	ldr	r3, [r7, #4]
 8003312:	f503 7394 	add.w	r3, r3, #296	@ 0x128
 8003316:	f3bf 8f5b 	dmb	ish
 800331a:	681b      	ldr	r3, [r3, #0]
 800331c:	f3bf 8f5b 	dmb	ish
 8003320:	2b00      	cmp	r3, #0
 8003322:	d11c      	bne.n	800335e <BMS_ContactorControl+0x56>
    {
        return;
    }

    if (hbms->state == BMS_STATE_MONITORING &&
 8003324:	687b      	ldr	r3, [r7, #4]
 8003326:	781b      	ldrb	r3, [r3, #0]
 8003328:	2b03      	cmp	r3, #3
 800332a:	d10f      	bne.n	800334c <BMS_ContactorControl+0x44>
        hbms->fault_flags == BMS_FAULT_NONE)
 800332c:	687b      	ldr	r3, [r7, #4]
 800332e:	685b      	ldr	r3, [r3, #4]
    if (hbms->state == BMS_STATE_MONITORING &&
 8003330:	2b00      	cmp	r3, #0
 8003332:	d10b      	bne.n	800334c <BMS_ContactorControl+0x44>
    {
        if (!hbms->contactor_closed)
 8003334:	687b      	ldr	r3, [r7, #4]
 8003336:	7a9b      	ldrb	r3, [r3, #10]
 8003338:	b2db      	uxtb	r3, r3
 800333a:	f083 0301 	eor.w	r3, r3, #1
 800333e:	b2db      	uxtb	r3, r3
 8003340:	2b00      	cmp	r3, #0
 8003342:	d00d      	beq.n	8003360 <BMS_ContactorControl+0x58>
        {
            BMS_ContactorClose(hbms);   /* Barreira interna reforça aqui */
 8003344:	6878      	ldr	r0, [r7, #4]
 8003346:	f7ff f957 	bl	80025f8 <BMS_ContactorClose>
        if (!hbms->contactor_closed)
 800334a:	e009      	b.n	8003360 <BMS_ContactorControl+0x58>
        }
    }
    else
    {
        if (hbms->contactor_closed)
 800334c:	687b      	ldr	r3, [r7, #4]
 800334e:	7a9b      	ldrb	r3, [r3, #10]
 8003350:	b2db      	uxtb	r3, r3
 8003352:	2b00      	cmp	r3, #0
 8003354:	d004      	beq.n	8003360 <BMS_ContactorControl+0x58>
        {
            BMS_ContactorOpen(hbms);
 8003356:	6878      	ldr	r0, [r7, #4]
 8003358:	f7ff f932 	bl	80025c0 <BMS_ContactorOpen>
 800335c:	e000      	b.n	8003360 <BMS_ContactorControl+0x58>
        return;
 800335e:	bf00      	nop
        }
    }
}
 8003360:	3708      	adds	r7, #8
 8003362:	46bd      	mov	sp, r7
 8003364:	bd80      	pop	{r7, pc}

08003366 <BMS_ClearHardwareFaultLatches>:
 *
 * @param  hbms     Handle do BMS
 * @return BMS_OK se limpeza enviada com sucesso
 */
static BMS_Status_t BMS_ClearHardwareFaultLatches(BMS_Handle_t *hbms)
{
 8003366:	b580      	push	{r7, lr}
 8003368:	b086      	sub	sp, #24
 800336a:	af02      	add	r7, sp, #8
 800336c:	6078      	str	r0, [r7, #4]
    uint8_t      clear_val = FAULT_CLEAR_VAL;  /* 0xFF */
 800336e:	23ff      	movs	r3, #255	@ 0xff
 8003370:	73bb      	strb	r3, [r7, #14]
    BMS_Status_t status;

    /* Limpar latches dos slaves via Broadcast
     * (propaga-se através da barreira galvânica para BQ79616) */
    status = BMS_WriteBroadcast(hbms, REG_FAULT_RST1, &clear_val, 1U);
 8003372:	f107 020e 	add.w	r2, r7, #14
 8003376:	2301      	movs	r3, #1
 8003378:	f240 3131 	movw	r1, #817	@ 0x331
 800337c:	6878      	ldr	r0, [r7, #4]
 800337e:	f7fd fd3c 	bl	8000dfa <BMS_WriteBroadcast>
 8003382:	4603      	mov	r3, r0
 8003384:	73fb      	strb	r3, [r7, #15]
    if (status != BMS_OK) { return status; }
 8003386:	7bfb      	ldrb	r3, [r7, #15]
 8003388:	2b00      	cmp	r3, #0
 800338a:	d001      	beq.n	8003390 <BMS_ClearHardwareFaultLatches+0x2a>
 800338c:	7bfb      	ldrb	r3, [r7, #15]
 800338e:	e023      	b.n	80033d8 <BMS_ClearHardwareFaultLatches+0x72>

    status = BMS_WriteBroadcast(hbms, REG_FAULT_RST2, &clear_val, 1U);
 8003390:	f107 020e 	add.w	r2, r7, #14
 8003394:	2301      	movs	r3, #1
 8003396:	f240 3132 	movw	r1, #818	@ 0x332
 800339a:	6878      	ldr	r0, [r7, #4]
 800339c:	f7fd fd2d 	bl	8000dfa <BMS_WriteBroadcast>
 80033a0:	4603      	mov	r3, r0
 80033a2:	73fb      	strb	r3, [r7, #15]
    if (status != BMS_OK) { return status; }
 80033a4:	7bfb      	ldrb	r3, [r7, #15]
 80033a6:	2b00      	cmp	r3, #0
 80033a8:	d001      	beq.n	80033ae <BMS_ClearHardwareFaultLatches+0x48>
 80033aa:	7bfb      	ldrb	r3, [r7, #15]
 80033ac:	e014      	b.n	80033d8 <BMS_ClearHardwareFaultLatches+0x72>
    /* BUG-4 CORRIGIDO: Limpeza mandatória dos latches da Bridge BQ79600-Q1.
     * Comandos Broadcast NÃO chegam à bridge — param nos slaves.
     * Se a falha for nativa da interface UART da bridge (FAULT_COMM1/2),
     * os latches ficam retidos e NFAULT permanece LOW indefinidamente.
     * A bridge requer escritas Single Device dedicadas (endereço 0x00). */
    (void)BMS_WriteSingleDevice(hbms, BMS_ADDR_BRIDGE,
 80033ae:	f107 030e 	add.w	r3, r7, #14
 80033b2:	2201      	movs	r2, #1
 80033b4:	9200      	str	r2, [sp, #0]
 80033b6:	f240 3231 	movw	r2, #817	@ 0x331
 80033ba:	2100      	movs	r1, #0
 80033bc:	6878      	ldr	r0, [r7, #4]
 80033be:	f7fd fb85 	bl	8000acc <BMS_WriteSingleDevice>
                                REG_FAULT_RST1, &clear_val, 1U);
    (void)BMS_WriteSingleDevice(hbms, BMS_ADDR_BRIDGE,
 80033c2:	f107 030e 	add.w	r3, r7, #14
 80033c6:	2201      	movs	r2, #1
 80033c8:	9200      	str	r2, [sp, #0]
 80033ca:	f240 3232 	movw	r2, #818	@ 0x332
 80033ce:	2100      	movs	r1, #0
 80033d0:	6878      	ldr	r0, [r7, #4]
 80033d2:	f7fd fb7b 	bl	8000acc <BMS_WriteSingleDevice>
                                REG_FAULT_RST2, &clear_val, 1U);

    return BMS_OK;
 80033d6:	2300      	movs	r3, #0
}
 80033d8:	4618      	mov	r0, r3
 80033da:	3710      	adds	r7, #16
 80033dc:	46bd      	mov	sp, r7
 80033de:	bd80      	pop	{r7, pc}

080033e0 <BMS_FaultRecoveryAttempt>:
 * @param  hbms             Handle do BMS
 * @param  retry_counter    Ponteiro para contador de tentativas
 */
static void BMS_FaultRecoveryAttempt(BMS_Handle_t *hbms,
                                      uint32_t *retry_counter)
{
 80033e0:	b580      	push	{r7, lr}
 80033e2:	b084      	sub	sp, #16
 80033e4:	af00      	add	r7, sp, #0
 80033e6:	6078      	str	r0, [r7, #4]
 80033e8:	6039      	str	r1, [r7, #0]
    (*retry_counter)++;
 80033ea:	683b      	ldr	r3, [r7, #0]
 80033ec:	681b      	ldr	r3, [r3, #0]
 80033ee:	1c5a      	adds	r2, r3, #1
 80033f0:	683b      	ldr	r3, [r7, #0]
 80033f2:	601a      	str	r2, [r3, #0]

    if (*retry_counter > 3U)
 80033f4:	683b      	ldr	r3, [r7, #0]
 80033f6:	681b      	ldr	r3, [r3, #0]
 80033f8:	2b03      	cmp	r3, #3
 80033fa:	d903      	bls.n	8003404 <BMS_FaultRecoveryAttempt+0x24>
        /* BUG-2 CORRIGIDO: adormece fisicamente o barramento em vez de
         * apenas alterar a variável (que o polling revertia para FAULT).
         * BMS_EnterSleep: para balanceamento, abre contactor, envia pulso
         * UART 9 ms → state=SLEEP. O guard de SLEEP em BMS_Task_100ms
         * quebra o ciclo infinito FAULT→SHUTDOWN→FAULT. */
        BMS_EnterSleep(hbms);
 80033fc:	6878      	ldr	r0, [r7, #4]
 80033fe:	f7fe fa71 	bl	80018e4 <BMS_EnterSleep>
        return;
 8003402:	e095      	b.n	8003530 <BMS_FaultRecoveryAttempt+0x150>
    }

    /* Leitura actualizada das condições físicas */
    BMS_ReadAllCellVoltages(hbms);
 8003404:	6878      	ldr	r0, [r7, #4]
 8003406:	f7fe fc46 	bl	8001c96 <BMS_ReadAllCellVoltages>
    BMS_ReadAllTemperatures(hbms);
 800340a:	6878      	ldr	r0, [r7, #4]
 800340c:	f7fe fd4e 	bl	8001eac <BMS_ReadAllTemperatures>

    bool recoverable = true;
 8003410:	2301      	movs	r3, #1
 8003412:	73fb      	strb	r3, [r7, #15]

    /* Tensão OV ainda acima da janela de histérése */
    if ((hbms->fault_flags & BMS_FAULT_OV) &&
 8003414:	687b      	ldr	r3, [r7, #4]
 8003416:	685b      	ldr	r3, [r3, #4]
 8003418:	f003 0301 	and.w	r3, r3, #1
 800341c:	2b00      	cmp	r3, #0
 800341e:	d008      	beq.n	8003432 <BMS_FaultRecoveryAttempt+0x52>
        (hbms->max_cell_mv > (CELL_OV_MV - 50U)))
 8003420:	687b      	ldr	r3, [r7, #4]
 8003422:	f8b3 30ba 	ldrh.w	r3, [r3, #186]	@ 0xba
    if ((hbms->fault_flags & BMS_FAULT_OV) &&
 8003426:	f640 52de 	movw	r2, #3550	@ 0xdde
 800342a:	4293      	cmp	r3, r2
 800342c:	d901      	bls.n	8003432 <BMS_FaultRecoveryAttempt+0x52>
    {
        recoverable = false;
 800342e:	2300      	movs	r3, #0
 8003430:	73fb      	strb	r3, [r7, #15]
    }
    /* Tensão UV ainda abaixo da janela de histérése */
    if ((hbms->fault_flags & BMS_FAULT_UV) &&
 8003432:	687b      	ldr	r3, [r7, #4]
 8003434:	685b      	ldr	r3, [r3, #4]
 8003436:	f003 0302 	and.w	r3, r3, #2
 800343a:	2b00      	cmp	r3, #0
 800343c:	d008      	beq.n	8003450 <BMS_FaultRecoveryAttempt+0x70>
        (hbms->min_cell_mv < (CELL_UV_MV + 50U)))
 800343e:	687b      	ldr	r3, [r7, #4]
 8003440:	f8b3 30b8 	ldrh.w	r3, [r3, #184]	@ 0xb8
    if ((hbms->fault_flags & BMS_FAULT_UV) &&
 8003444:	f640 32e9 	movw	r2, #3049	@ 0xbe9
 8003448:	4293      	cmp	r3, r2
 800344a:	d801      	bhi.n	8003450 <BMS_FaultRecoveryAttempt+0x70>
    {
        recoverable = false;
 800344c:	2300      	movs	r3, #0
 800344e:	73fb      	strb	r3, [r7, #15]
    }
    /* Temperatura ainda acima do limiar seguro */
    if ((hbms->fault_flags & BMS_FAULT_OT) &&
 8003450:	687b      	ldr	r3, [r7, #4]
 8003452:	685b      	ldr	r3, [r3, #4]
 8003454:	f003 0304 	and.w	r3, r3, #4
 8003458:	2b00      	cmp	r3, #0
 800345a:	d006      	beq.n	800346a <BMS_FaultRecoveryAttempt+0x8a>
        (hbms->max_temp_c > (int16_t)(CELL_TEMP_MAX_C - 5)))
 800345c:	687b      	ldr	r3, [r7, #4]
 800345e:	f9b3 30be 	ldrsh.w	r3, [r3, #190]	@ 0xbe
    if ((hbms->fault_flags & BMS_FAULT_OT) &&
 8003462:	2b37      	cmp	r3, #55	@ 0x37
 8003464:	dd01      	ble.n	800346a <BMS_FaultRecoveryAttempt+0x8a>
    {
        recoverable = false;
 8003466:	2300      	movs	r3, #0
 8003468:	73fb      	strb	r3, [r7, #15]
    }
    /* [B] Open Wire: falha física — não recuperável por software */
    if (hbms->fault_flags & BMS_FAULT_OPEN_WIRE)
 800346a:	687b      	ldr	r3, [r7, #4]
 800346c:	685b      	ldr	r3, [r3, #4]
 800346e:	f003 0320 	and.w	r3, r3, #32
 8003472:	2b00      	cmp	r3, #0
 8003474:	d001      	beq.n	800347a <BMS_FaultRecoveryAttempt+0x9a>
    {
        recoverable = false;
 8003476:	2300      	movs	r3, #0
 8003478:	73fb      	strb	r3, [r7, #15]
    }
    /* Falha de comunicação total: não recuperável sem re-init */
    if ((hbms->fault_flags & BMS_FAULT_COMM) &&
 800347a:	687b      	ldr	r3, [r7, #4]
 800347c:	685b      	ldr	r3, [r3, #4]
 800347e:	f003 0308 	and.w	r3, r3, #8
 8003482:	2b00      	cmp	r3, #0
 8003484:	d007      	beq.n	8003496 <BMS_FaultRecoveryAttempt+0xb6>
        !(hbms->fault_flags & BMS_FAULT_RING_BREAK))
 8003486:	687b      	ldr	r3, [r7, #4]
 8003488:	685b      	ldr	r3, [r3, #4]
 800348a:	f003 0310 	and.w	r3, r3, #16
    if ((hbms->fault_flags & BMS_FAULT_COMM) &&
 800348e:	2b00      	cmp	r3, #0
 8003490:	d101      	bne.n	8003496 <BMS_FaultRecoveryAttempt+0xb6>
    {
        recoverable = false;
 8003492:	2300      	movs	r3, #0
 8003494:	73fb      	strb	r3, [r7, #15]
    }

    if (recoverable)
 8003496:	7bfb      	ldrb	r3, [r7, #15]
 8003498:	2b00      	cmp	r3, #0
 800349a:	d049      	beq.n	8003530 <BMS_FaultRecoveryAttempt+0x150>
    {
        /* [A] Limpar latches de hardware ANTES de transitar para MONITORING.
         * Se esta escrita falhar, não prosseguimos — NFAULT ficaria preso. */
        if (BMS_ClearHardwareFaultLatches(hbms) != BMS_OK)
 800349c:	6878      	ldr	r0, [r7, #4]
 800349e:	f7ff ff62 	bl	8003366 <BMS_ClearHardwareFaultLatches>
 80034a2:	4603      	mov	r3, r0
 80034a4:	2b00      	cmp	r3, #0
 80034a6:	d006      	beq.n	80034b6 <BMS_FaultRecoveryAttempt+0xd6>
        {
            /* Falha de comunicação durante limpeza — não é seguro continuar */
            hbms->fault_flags |= BMS_FAULT_COMM;
 80034a8:	687b      	ldr	r3, [r7, #4]
 80034aa:	685b      	ldr	r3, [r3, #4]
 80034ac:	f043 0208 	orr.w	r2, r3, #8
 80034b0:	687b      	ldr	r3, [r7, #4]
 80034b2:	605a      	str	r2, [r3, #4]
            return;
 80034b4:	e03c      	b.n	8003530 <BMS_FaultRecoveryAttempt+0x150>
        }

        /* [C] Limpar flags individuais de cada slave */
        for (uint8_t s = 0U; s < BMS_NUM_SLAVES; s++)
 80034b6:	2300      	movs	r3, #0
 80034b8:	73bb      	strb	r3, [r7, #14]
 80034ba:	e02a      	b.n	8003512 <BMS_FaultRecoveryAttempt+0x132>
        {
            hbms->slave[s].fault_flags = 0U;
 80034bc:	7bbb      	ldrb	r3, [r7, #14]
 80034be:	687a      	ldr	r2, [r7, #4]
 80034c0:	2154      	movs	r1, #84	@ 0x54
 80034c2:	fb01 f303 	mul.w	r3, r1, r3
 80034c6:	4413      	add	r3, r2
 80034c8:	3334      	adds	r3, #52	@ 0x34
 80034ca:	2200      	movs	r2, #0
 80034cc:	601a      	str	r2, [r3, #0]
            for (uint8_t c = 0U; c < BMS_CELLS_PER_SLAVE; c++)
 80034ce:	2300      	movs	r3, #0
 80034d0:	737b      	strb	r3, [r7, #13]
 80034d2:	e018      	b.n	8003506 <BMS_FaultRecoveryAttempt+0x126>
            {
                hbms->slave[s].ov_cell[c] = false;
 80034d4:	7bba      	ldrb	r2, [r7, #14]
 80034d6:	7b7b      	ldrb	r3, [r7, #13]
 80034d8:	6879      	ldr	r1, [r7, #4]
 80034da:	2054      	movs	r0, #84	@ 0x54
 80034dc:	fb00 f202 	mul.w	r2, r0, r2
 80034e0:	440a      	add	r2, r1
 80034e2:	4413      	add	r3, r2
 80034e4:	333c      	adds	r3, #60	@ 0x3c
 80034e6:	2200      	movs	r2, #0
 80034e8:	701a      	strb	r2, [r3, #0]
                hbms->slave[s].uv_cell[c] = false;
 80034ea:	7bba      	ldrb	r2, [r7, #14]
 80034ec:	7b7b      	ldrb	r3, [r7, #13]
 80034ee:	6879      	ldr	r1, [r7, #4]
 80034f0:	2054      	movs	r0, #84	@ 0x54
 80034f2:	fb00 f202 	mul.w	r2, r0, r2
 80034f6:	440a      	add	r2, r1
 80034f8:	4413      	add	r3, r2
 80034fa:	334b      	adds	r3, #75	@ 0x4b
 80034fc:	2200      	movs	r2, #0
 80034fe:	701a      	strb	r2, [r3, #0]
            for (uint8_t c = 0U; c < BMS_CELLS_PER_SLAVE; c++)
 8003500:	7b7b      	ldrb	r3, [r7, #13]
 8003502:	3301      	adds	r3, #1
 8003504:	737b      	strb	r3, [r7, #13]
 8003506:	7b7b      	ldrb	r3, [r7, #13]
 8003508:	2b0e      	cmp	r3, #14
 800350a:	d9e3      	bls.n	80034d4 <BMS_FaultRecoveryAttempt+0xf4>
        for (uint8_t s = 0U; s < BMS_NUM_SLAVES; s++)
 800350c:	7bbb      	ldrb	r3, [r7, #14]
 800350e:	3301      	adds	r3, #1
 8003510:	73bb      	strb	r3, [r7, #14]
 8003512:	7bbb      	ldrb	r3, [r7, #14]
 8003514:	2b01      	cmp	r3, #1
 8003516:	d9d1      	bls.n	80034bc <BMS_FaultRecoveryAttempt+0xdc>
            }
        }

        /* Limpar flags globais recuperáveis */
        hbms->fault_flags &= ~(BMS_FAULT_OV  |
 8003518:	687b      	ldr	r3, [r7, #4]
 800351a:	685b      	ldr	r3, [r3, #4]
 800351c:	f023 02c7 	bic.w	r2, r3, #199	@ 0xc7
 8003520:	687b      	ldr	r3, [r7, #4]
 8003522:	605a      	str	r2, [r3, #4]
                                BMS_FAULT_UV  |
                                BMS_FAULT_OT  |
                                BMS_FAULT_HB_FAIL |
                                BMS_FAULT_CRC);

        hbms->state    = BMS_STATE_MONITORING;
 8003524:	687b      	ldr	r3, [r7, #4]
 8003526:	2203      	movs	r2, #3
 8003528:	701a      	strb	r2, [r3, #0]
        *retry_counter = 0U;
 800352a:	683b      	ldr	r3, [r7, #0]
 800352c:	2200      	movs	r2, #0
 800352e:	601a      	str	r2, [r3, #0]
    }
}
 8003530:	3710      	adds	r7, #16
 8003532:	46bd      	mov	sp, r7
 8003534:	bd80      	pop	{r7, pc}
	...

08003538 <BMS_Main>:
 *      MX_TIM2_Init();
 *      BMS_Main();   // <-- Chamar aqui
 *  }
 */
void BMS_Main(void)
{
 8003538:	b580      	push	{r7, lr}
 800353a:	b084      	sub	sp, #16
 800353c:	af00      	add	r7, sp, #0
     *
     * Problema da versão anterior: um único contador servia ambos.
     * Após BMS_FaultRecoveryAttempt incrementar o contador para 3 (limite atingido)
     * e fazer state=SHUTDOWN, o módulo 50 voltava a disparar aos ciclos 50, 100...
     * e chamava BMS_FaultRecoveryAttempt de novo, sobrepondo o estado SHUTDOWN. */
    uint32_t     fault_cycle_count  = 0U;   /* ciclos em FAULT desde a última transição */
 800353e:	2300      	movs	r3, #0
 8003540:	60fb      	str	r3, [r7, #12]
    uint32_t     fault_retry_count  = 0U;   /* tentativas de recovery efectuadas */
 8003542:	2300      	movs	r3, #0
 8003544:	603b      	str	r3, [r7, #0]
    uint32_t     debug_print_div    = 0U;
 8003546:	2300      	movs	r3, #0
 8003548:	60bb      	str	r3, [r7, #8]

    /* ------------------------------------------------------------------
     * FASE 1: Inicialização do BMS
     * ------------------------------------------------------------------ */
    printf("\r\n[BMS] Firmware v%s\r\n", BMS_FW_VERSION_STRING);
 800354a:	4987      	ldr	r1, [pc, #540]	@ (8003768 <BMS_Main+0x230>)
 800354c:	4887      	ldr	r0, [pc, #540]	@ (800376c <BMS_Main+0x234>)
 800354e:	f003 ff8f 	bl	8007470 <iprintf>
    printf("[BMS] Config: %u slaves x %u cells = %u total\r\n",
 8003552:	231e      	movs	r3, #30
 8003554:	220f      	movs	r2, #15
 8003556:	2102      	movs	r1, #2
 8003558:	4885      	ldr	r0, [pc, #532]	@ (8003770 <BMS_Main+0x238>)
 800355a:	f003 ff89 	bl	8007470 <iprintf>
           BMS_NUM_SLAVES, BMS_CELLS_PER_SLAVE, BMS_TOTAL_CELLS);

    status = BMS_Init(&g_bms, &huart4, &htim2);
 800355e:	4a85      	ldr	r2, [pc, #532]	@ (8003774 <BMS_Main+0x23c>)
 8003560:	4985      	ldr	r1, [pc, #532]	@ (8003778 <BMS_Main+0x240>)
 8003562:	4886      	ldr	r0, [pc, #536]	@ (800377c <BMS_Main+0x244>)
 8003564:	f7fe f922 	bl	80017ac <BMS_Init>
 8003568:	4603      	mov	r3, r0
 800356a:	71fb      	strb	r3, [r7, #7]
    if (status != BMS_OK)
 800356c:	79fb      	ldrb	r3, [r7, #7]
 800356e:	2b00      	cmp	r3, #0
 8003570:	d00d      	beq.n	800358e <BMS_Main+0x56>
    {
        printf("[BMS] FATAL: Initialization failed! Code: %d\r\n", (int)status);
 8003572:	79fb      	ldrb	r3, [r7, #7]
 8003574:	4619      	mov	r1, r3
 8003576:	4882      	ldr	r0, [pc, #520]	@ (8003780 <BMS_Main+0x248>)
 8003578:	f003 ff7a 	bl	8007470 <iprintf>
        while (1U)
        {
            HAL_GPIO_TogglePin(GPIOA, GPIO_PIN_5);
 800357c:	2120      	movs	r1, #32
 800357e:	4881      	ldr	r0, [pc, #516]	@ (8003784 <BMS_Main+0x24c>)
 8003580:	f001 fcab 	bl	8004eda <HAL_GPIO_TogglePin>
            BMS_DelayMs(200U);
 8003584:	20c8      	movs	r0, #200	@ 0xc8
 8003586:	f7fd f943 	bl	8000810 <BMS_DelayMs>
            HAL_GPIO_TogglePin(GPIOA, GPIO_PIN_5);
 800358a:	bf00      	nop
 800358c:	e7f6      	b.n	800357c <BMS_Main+0x44>
        }
    }

    printf("[BMS] Initialization OK. State: %s\r\n",
 800358e:	4b7b      	ldr	r3, [pc, #492]	@ (800377c <BMS_Main+0x244>)
 8003590:	781b      	ldrb	r3, [r3, #0]
 8003592:	4618      	mov	r0, r3
 8003594:	f7ff f904 	bl	80027a0 <BMS_GetStateString>
 8003598:	4603      	mov	r3, r0
 800359a:	4619      	mov	r1, r3
 800359c:	487a      	ldr	r0, [pc, #488]	@ (8003788 <BMS_Main+0x250>)
 800359e:	f003 ff67 	bl	8007470 <iprintf>
           BMS_GetStateString(g_bms.state));
    printf("[BMS] Ring intact: %s\r\n", g_bms.ring_intact ? "YES" : "NO");
 80035a2:	4b76      	ldr	r3, [pc, #472]	@ (800377c <BMS_Main+0x244>)
 80035a4:	7a1b      	ldrb	r3, [r3, #8]
 80035a6:	2b00      	cmp	r3, #0
 80035a8:	d001      	beq.n	80035ae <BMS_Main+0x76>
 80035aa:	4b78      	ldr	r3, [pc, #480]	@ (800378c <BMS_Main+0x254>)
 80035ac:	e000      	b.n	80035b0 <BMS_Main+0x78>
 80035ae:	4b78      	ldr	r3, [pc, #480]	@ (8003790 <BMS_Main+0x258>)
 80035b0:	4619      	mov	r1, r3
 80035b2:	4878      	ldr	r0, [pc, #480]	@ (8003794 <BMS_Main+0x25c>)
 80035b4:	f003 ff5c 	bl	8007470 <iprintf>

    /* ------------------------------------------------------------------
     * FASE 1b: Inicializar comunicação com a VCU (USART3)
     * ------------------------------------------------------------------ */
    BMS_MasterComm_Init(&g_master_comm, &huart3);
 80035b8:	4977      	ldr	r1, [pc, #476]	@ (8003798 <BMS_Main+0x260>)
 80035ba:	4878      	ldr	r0, [pc, #480]	@ (800379c <BMS_Main+0x264>)
 80035bc:	f7fd f892 	bl	80006e4 <BMS_MasterComm_Init>
    printf("[BMS] Master comm init OK (USART3, watchdog=%u ms)\r\n",
 80035c0:	f44f 71fa 	mov.w	r1, #500	@ 0x1f4
 80035c4:	4876      	ldr	r0, [pc, #472]	@ (80037a0 <BMS_Main+0x268>)
 80035c6:	f003 ff53 	bl	8007470 <iprintf>
    /* ------------------------------------------------------------------
     * FASE 1c: IWDG Watchdog (ASIL-D)
     * A partir deste ponto, BMS_IWDG_Refresh() DEVE ser chamado em cada
     * iteração do super-loop. Se omitido → reset MCU em ~500 ms.
     * ------------------------------------------------------------------ */
    BMS_IWDG_Init();
 80035ca:	f7fe f99f 	bl	800190c <BMS_IWDG_Init>
    printf("[BMS] IWDG init OK (timeout ~500 ms)\r\n");
 80035ce:	4875      	ldr	r0, [pc, #468]	@ (80037a4 <BMS_Main+0x26c>)
 80035d0:	f003 ffb6 	bl	8007540 <puts>
    /* ------------------------------------------------------------------
     * FASE 1d: Power-On Self Test (POST)
     * Verifica CRC, comunicação, ADC e NFAULT antes de permitir operação.
     * Se POST falhar, o sistema NÃO fecha o contactor.
     * ------------------------------------------------------------------ */
    status = BMS_PowerOnSelfTest(&g_bms);
 80035d4:	4869      	ldr	r0, [pc, #420]	@ (800377c <BMS_Main+0x244>)
 80035d6:	f7fe fa29 	bl	8001a2c <BMS_PowerOnSelfTest>
 80035da:	4603      	mov	r3, r0
 80035dc:	71fb      	strb	r3, [r7, #7]
    if (status != BMS_OK)
 80035de:	79fb      	ldrb	r3, [r7, #7]
 80035e0:	2b00      	cmp	r3, #0
 80035e2:	d00d      	beq.n	8003600 <BMS_Main+0xc8>
    {
        printf("[BMS] POST FAILED! Fault: %s\r\n",
 80035e4:	4b65      	ldr	r3, [pc, #404]	@ (800377c <BMS_Main+0x244>)
 80035e6:	685b      	ldr	r3, [r3, #4]
 80035e8:	4618      	mov	r0, r3
 80035ea:	f7ff f925 	bl	8002838 <BMS_GetFaultString>
 80035ee:	4603      	mov	r3, r0
 80035f0:	4619      	mov	r1, r3
 80035f2:	486d      	ldr	r0, [pc, #436]	@ (80037a8 <BMS_Main+0x270>)
 80035f4:	f003 ff3c 	bl	8007470 <iprintf>
               BMS_GetFaultString(g_bms.fault_flags));
        g_bms.state = BMS_STATE_FAULT;
 80035f8:	4b60      	ldr	r3, [pc, #384]	@ (800377c <BMS_Main+0x244>)
 80035fa:	2205      	movs	r2, #5
 80035fc:	701a      	strb	r2, [r3, #0]
 80035fe:	e002      	b.n	8003606 <BMS_Main+0xce>
    }
    else
    {
        printf("[BMS] POST passed (CRC, Comm, ADC, NFAULT all OK)\r\n");
 8003600:	486a      	ldr	r0, [pc, #424]	@ (80037ac <BMS_Main+0x274>)
 8003602:	f003 ff9d 	bl	8007540 <puts>
    }

    /* ------------------------------------------------------------------
     * FASE 2: Fechar contactor se POST e condições iniciais OK
     * ------------------------------------------------------------------ */
    BMS_DelayMs(100U);
 8003606:	2064      	movs	r0, #100	@ 0x64
 8003608:	f7fd f902 	bl	8000810 <BMS_DelayMs>
    BMS_ReadAllCellVoltages(&g_bms);
 800360c:	485b      	ldr	r0, [pc, #364]	@ (800377c <BMS_Main+0x244>)
 800360e:	f7fe fb42 	bl	8001c96 <BMS_ReadAllCellVoltages>
    BMS_ReadAllTemperatures(&g_bms);
 8003612:	485a      	ldr	r0, [pc, #360]	@ (800377c <BMS_Main+0x244>)
 8003614:	f7fe fc4a 	bl	8001eac <BMS_ReadAllTemperatures>

    if ((g_bms.fault_flags == BMS_FAULT_NONE) && (g_bms.post_passed))
 8003618:	4b58      	ldr	r3, [pc, #352]	@ (800377c <BMS_Main+0x244>)
 800361a:	685b      	ldr	r3, [r3, #4]
 800361c:	2b00      	cmp	r3, #0
 800361e:	d10b      	bne.n	8003638 <BMS_Main+0x100>
 8003620:	4b56      	ldr	r3, [pc, #344]	@ (800377c <BMS_Main+0x244>)
 8003622:	f893 3124 	ldrb.w	r3, [r3, #292]	@ 0x124
 8003626:	2b00      	cmp	r3, #0
 8003628:	d006      	beq.n	8003638 <BMS_Main+0x100>
    {
        printf("[BMS] Conditions OK. Closing contactor...\r\n");
 800362a:	4861      	ldr	r0, [pc, #388]	@ (80037b0 <BMS_Main+0x278>)
 800362c:	f003 ff88 	bl	8007540 <puts>
        BMS_ContactorClose(&g_bms);
 8003630:	4852      	ldr	r0, [pc, #328]	@ (800377c <BMS_Main+0x244>)
 8003632:	f7fe ffe1 	bl	80025f8 <BMS_ContactorClose>
 8003636:	e009      	b.n	800364c <BMS_Main+0x114>
    }
    else
    {
        printf("[BMS] Cannot close contactor: %s\r\n",
 8003638:	4b50      	ldr	r3, [pc, #320]	@ (800377c <BMS_Main+0x244>)
 800363a:	685b      	ldr	r3, [r3, #4]
 800363c:	4618      	mov	r0, r3
 800363e:	f7ff f8fb 	bl	8002838 <BMS_GetFaultString>
 8003642:	4603      	mov	r3, r0
 8003644:	4619      	mov	r1, r3
 8003646:	485b      	ldr	r0, [pc, #364]	@ (80037b4 <BMS_Main+0x27c>)
 8003648:	f003 ff12 	bl	8007470 <iprintf>
    }

    /* ------------------------------------------------------------------
     * FASE 3: Super-loop de operação
     * ------------------------------------------------------------------ */
    printf("[BMS] Entering monitoring loop.\r\n");
 800364c:	485a      	ldr	r0, [pc, #360]	@ (80037b8 <BMS_Main+0x280>)
 800364e:	f003 ff77 	bl	8007540 <puts>
         * VERIFICAÇÃO NFAULT — FORA DO TICK DE 100 ms
         * Um evento de hardware deve ser processado imediatamente,
         * não condicionado ao período de amostragem.
         * Latência máxima de detecção aqui: 1 ms (delay do idle poll).
         * ----------------------------------------------------------  */
        if (__atomic_load_n(&g_bms.nfault_pending, __ATOMIC_SEQ_CST) != 0U)
 8003652:	4b5a      	ldr	r3, [pc, #360]	@ (80037bc <BMS_Main+0x284>)
 8003654:	f3bf 8f5b 	dmb	ish
 8003658:	681b      	ldr	r3, [r3, #0]
 800365a:	f3bf 8f5b 	dmb	ish
 800365e:	2b00      	cmp	r3, #0
 8003660:	d002      	beq.n	8003668 <BMS_Main+0x130>
        {
            BMS_ProcessFaults(&g_bms);
 8003662:	4846      	ldr	r0, [pc, #280]	@ (800377c <BMS_Main+0x244>)
 8003664:	f7fe fdde 	bl	8002224 <BMS_ProcessFaults>
            /* Contactor já foi aberto na ISR. Garante sincronia do estado. */
        }

        /* Aguarda tick de 100 ms (set pelo TIM2 Period Elapsed callback) */
        if (!g_tick_100ms)
 8003668:	4b55      	ldr	r3, [pc, #340]	@ (80037c0 <BMS_Main+0x288>)
 800366a:	781b      	ldrb	r3, [r3, #0]
 800366c:	b2db      	uxtb	r3, r3
 800366e:	f083 0301 	eor.w	r3, r3, #1
 8003672:	b2db      	uxtb	r3, r3
 8003674:	2b00      	cmp	r3, #0
 8003676:	d003      	beq.n	8003680 <BMS_Main+0x148>
        {
            BMS_DelayMs(1U);
 8003678:	2001      	movs	r0, #1
 800367a:	f7fd f8c9 	bl	8000810 <BMS_DelayMs>
            continue;
 800367e:	e071      	b.n	8003764 <BMS_Main+0x22c>
        }
        g_tick_100ms = false;
 8003680:	4b4f      	ldr	r3, [pc, #316]	@ (80037c0 <BMS_Main+0x288>)
 8003682:	2200      	movs	r2, #0
 8003684:	701a      	strb	r2, [r3, #0]

        /* ----------------------------------------------------------
         * TAREFA PRINCIPAL DO BMS @ 100 ms
         * ---------------------------------------------------------- */
        status = BMS_Task_100ms(&g_bms);
 8003686:	483d      	ldr	r0, [pc, #244]	@ (800377c <BMS_Main+0x244>)
 8003688:	f7ff f806 	bl	8002698 <BMS_Task_100ms>
 800368c:	4603      	mov	r3, r0
 800368e:	71fb      	strb	r3, [r7, #7]
         * TAREFA DE COMUNICAÇÃO COM A VCU @ 100 ms
         * Envia pacote de telemetria e verifica watchdog do heartbeat.
         * Deve ser chamada APÓS BMS_Task_100ms para que os dados
         * enviados reflictam o estado mais recente do ciclo actual.
         * ---------------------------------------------------------- */
        BMS_MasterComm_Task_100ms(&g_master_comm, &g_bms);
 8003690:	493a      	ldr	r1, [pc, #232]	@ (800377c <BMS_Main+0x244>)
 8003692:	4842      	ldr	r0, [pc, #264]	@ (800379c <BMS_Main+0x264>)
 8003694:	f7fd f84e 	bl	8000734 <BMS_MasterComm_Task_100ms>
         * GESTÃO DO CONTACTOR
         * A barreira nfault_pending em BMS_ContactorControl e em
         * BMS_ContactorClose garante que não há fecho indevido mesmo
         * que um evento ocorra entre BMS_Task_100ms e este ponto.
         * ---------------------------------------------------------- */
        BMS_ContactorControl(&g_bms);
 8003698:	4838      	ldr	r0, [pc, #224]	@ (800377c <BMS_Main+0x244>)
 800369a:	f7ff fe35 	bl	8003308 <BMS_ContactorControl>

        /* ----------------------------------------------------------
         * GESTÃO DE RECOVERY EM ESTADO FAULT
         * ---------------------------------------------------------- */
        if (g_bms.state == BMS_STATE_FAULT)
 800369e:	4b37      	ldr	r3, [pc, #220]	@ (800377c <BMS_Main+0x244>)
 80036a0:	781b      	ldrb	r3, [r3, #0]
 80036a2:	2b05      	cmp	r3, #5
 80036a4:	d110      	bne.n	80036c8 <BMS_Main+0x190>
        {
            fault_cycle_count++;
 80036a6:	68fb      	ldr	r3, [r7, #12]
 80036a8:	3301      	adds	r3, #1
 80036aa:	60fb      	str	r3, [r7, #12]

            if ((fault_cycle_count >= 50U) && (fault_retry_count <= 3U))
 80036ac:	68fb      	ldr	r3, [r7, #12]
 80036ae:	2b31      	cmp	r3, #49	@ 0x31
 80036b0:	d90e      	bls.n	80036d0 <BMS_Main+0x198>
 80036b2:	683b      	ldr	r3, [r7, #0]
 80036b4:	2b03      	cmp	r3, #3
 80036b6:	d80b      	bhi.n	80036d0 <BMS_Main+0x198>
            {
                fault_cycle_count = 0U;
 80036b8:	2300      	movs	r3, #0
 80036ba:	60fb      	str	r3, [r7, #12]
                BMS_FaultRecoveryAttempt(&g_bms, &fault_retry_count);
 80036bc:	463b      	mov	r3, r7
 80036be:	4619      	mov	r1, r3
 80036c0:	482e      	ldr	r0, [pc, #184]	@ (800377c <BMS_Main+0x244>)
 80036c2:	f7ff fe8d 	bl	80033e0 <BMS_FaultRecoveryAttempt>
 80036c6:	e003      	b.n	80036d0 <BMS_Main+0x198>
            }
        }
        else
        {
            /* Fora de FAULT: reiniciar ambos os contadores */
            fault_cycle_count = 0U;
 80036c8:	2300      	movs	r3, #0
 80036ca:	60fb      	str	r3, [r7, #12]
            fault_retry_count = 0U;
 80036cc:	2300      	movs	r3, #0
 80036ce:	603b      	str	r3, [r7, #0]
        }

        /* ----------------------------------------------------------
         * DEBUG PRINT @ 1 Hz (a cada 10 ciclos de 100 ms)
         * ---------------------------------------------------------- */
        debug_print_div++;
 80036d0:	68bb      	ldr	r3, [r7, #8]
 80036d2:	3301      	adds	r3, #1
 80036d4:	60bb      	str	r3, [r7, #8]
        if (debug_print_div >= 10U)
 80036d6:	68bb      	ldr	r3, [r7, #8]
 80036d8:	2b09      	cmp	r3, #9
 80036da:	d904      	bls.n	80036e6 <BMS_Main+0x1ae>
        {
            debug_print_div = 0U;
 80036dc:	2300      	movs	r3, #0
 80036de:	60bb      	str	r3, [r7, #8]
            BMS_PrintStatus(&g_bms);
 80036e0:	4826      	ldr	r0, [pc, #152]	@ (800377c <BMS_Main+0x244>)
 80036e2:	f7ff fce1 	bl	80030a8 <BMS_PrintStatus>
        }

        /* ----------------------------------------------------------
         * SINALIZAÇÃO LED STATUS
         * ---------------------------------------------------------- */
        switch (g_bms.state)
 80036e6:	4b25      	ldr	r3, [pc, #148]	@ (800377c <BMS_Main+0x244>)
 80036e8:	781b      	ldrb	r3, [r3, #0]
 80036ea:	2b08      	cmp	r3, #8
 80036ec:	d016      	beq.n	800371c <BMS_Main+0x1e4>
 80036ee:	2b08      	cmp	r3, #8
 80036f0:	dc19      	bgt.n	8003726 <BMS_Main+0x1ee>
 80036f2:	2b04      	cmp	r3, #4
 80036f4:	dc02      	bgt.n	80036fc <BMS_Main+0x1c4>
 80036f6:	2b03      	cmp	r3, #3
 80036f8:	da03      	bge.n	8003702 <BMS_Main+0x1ca>
                 * simples — o período de 100 ms já providencia visibilidade. */
                HAL_GPIO_TogglePin(GPIOA, GPIO_PIN_5);
                break;

            default:
                break;
 80036fa:	e014      	b.n	8003726 <BMS_Main+0x1ee>
        switch (g_bms.state)
 80036fc:	2b05      	cmp	r3, #5
 80036fe:	d008      	beq.n	8003712 <BMS_Main+0x1da>
                break;
 8003700:	e011      	b.n	8003726 <BMS_Main+0x1ee>
                if (debug_print_div == 0U)
 8003702:	68bb      	ldr	r3, [r7, #8]
 8003704:	2b00      	cmp	r3, #0
 8003706:	d110      	bne.n	800372a <BMS_Main+0x1f2>
                    HAL_GPIO_TogglePin(GPIOA, GPIO_PIN_5);
 8003708:	2120      	movs	r1, #32
 800370a:	481e      	ldr	r0, [pc, #120]	@ (8003784 <BMS_Main+0x24c>)
 800370c:	f001 fbe5 	bl	8004eda <HAL_GPIO_TogglePin>
                break;
 8003710:	e00b      	b.n	800372a <BMS_Main+0x1f2>
                HAL_GPIO_TogglePin(GPIOA, GPIO_PIN_5);
 8003712:	2120      	movs	r1, #32
 8003714:	481b      	ldr	r0, [pc, #108]	@ (8003784 <BMS_Main+0x24c>)
 8003716:	f001 fbe0 	bl	8004eda <HAL_GPIO_TogglePin>
                break;
 800371a:	e007      	b.n	800372c <BMS_Main+0x1f4>
                HAL_GPIO_TogglePin(GPIOA, GPIO_PIN_5);
 800371c:	2120      	movs	r1, #32
 800371e:	4819      	ldr	r0, [pc, #100]	@ (8003784 <BMS_Main+0x24c>)
 8003720:	f001 fbdb 	bl	8004eda <HAL_GPIO_TogglePin>
                break;
 8003724:	e002      	b.n	800372c <BMS_Main+0x1f4>
                break;
 8003726:	bf00      	nop
 8003728:	e000      	b.n	800372c <BMS_Main+0x1f4>
                break;
 800372a:	bf00      	nop
         * DETECÇÃO DE SOLDADURA DO CONTACTOR (não-bloqueante)
         * Executa em TODOS os estados, MAS apenas quando o contactor
         * deveria estar aberto. Com contactor fechado (condução normal),
         * o pin auxiliar está naturalmente HIGH → seria falso positivo.
         * ---------------------------------------------------------- */
        if (!g_bms.contactor_closed)
 800372c:	4b13      	ldr	r3, [pc, #76]	@ (800377c <BMS_Main+0x244>)
 800372e:	7a9b      	ldrb	r3, [r3, #10]
 8003730:	b2db      	uxtb	r3, r3
 8003732:	f083 0301 	eor.w	r3, r3, #1
 8003736:	b2db      	uxtb	r3, r3
 8003738:	2b00      	cmp	r3, #0
 800373a:	d011      	beq.n	8003760 <BMS_Main+0x228>
        {
            if (BMS_CheckContactorWeld())
 800373c:	f7fe f950 	bl	80019e0 <BMS_CheckContactorWeld>
 8003740:	4603      	mov	r3, r0
 8003742:	2b00      	cmp	r3, #0
 8003744:	d00c      	beq.n	8003760 <BMS_Main+0x228>
            {
                g_bms.contactor_weld_detected = true;
 8003746:	4b0d      	ldr	r3, [pc, #52]	@ (800377c <BMS_Main+0x244>)
 8003748:	2201      	movs	r2, #1
 800374a:	f883 2123 	strb.w	r2, [r3, #291]	@ 0x123
                g_bms.fault_flags |= BMS_FAULT_CONTACTOR;
 800374e:	4b0b      	ldr	r3, [pc, #44]	@ (800377c <BMS_Main+0x244>)
 8003750:	685b      	ldr	r3, [r3, #4]
 8003752:	f443 7380 	orr.w	r3, r3, #256	@ 0x100
 8003756:	4a09      	ldr	r2, [pc, #36]	@ (800377c <BMS_Main+0x244>)
 8003758:	6053      	str	r3, [r2, #4]
                g_bms.state = BMS_STATE_FAULT;
 800375a:	4b08      	ldr	r3, [pc, #32]	@ (800377c <BMS_Main+0x244>)
 800375c:	2205      	movs	r2, #5
 800375e:	701a      	strb	r2, [r3, #0]
        /* ----------------------------------------------------------
         * IWDG REFRESH — OBRIGATÓRIO EM CADA ITERAÇÃO
         * Se esta linha for removida ou se o CPU pendurar antes de a
         * atingir, o MCU reseta automaticamente em ~500 ms.
         * ---------------------------------------------------------- */
        BMS_IWDG_Refresh();
 8003760:	f7fe f8ec 	bl	800193c <BMS_IWDG_Refresh>
        if (__atomic_load_n(&g_bms.nfault_pending, __ATOMIC_SEQ_CST) != 0U)
 8003764:	e775      	b.n	8003652 <BMS_Main+0x11a>
 8003766:	bf00      	nop
 8003768:	08008530 	.word	0x08008530
 800376c:	08008538 	.word	0x08008538
 8003770:	08008550 	.word	0x08008550
 8003774:	20000098 	.word	0x20000098
 8003778:	200000e0 	.word	0x200000e0
 800377c:	20000230 	.word	0x20000230
 8003780:	08008580 	.word	0x08008580
 8003784:	40020000 	.word	0x40020000
 8003788:	080085b0 	.word	0x080085b0
 800378c:	08008438 	.word	0x08008438
 8003790:	0800843c 	.word	0x0800843c
 8003794:	080085d8 	.word	0x080085d8
 8003798:	20000128 	.word	0x20000128
 800379c:	20000420 	.word	0x20000420
 80037a0:	080085f0 	.word	0x080085f0
 80037a4:	08008628 	.word	0x08008628
 80037a8:	08008650 	.word	0x08008650
 80037ac:	08008670 	.word	0x08008670
 80037b0:	080086a4 	.word	0x080086a4
 80037b4:	080086d0 	.word	0x080086d0
 80037b8:	080086f4 	.word	0x080086f4
 80037bc:	20000358 	.word	0x20000358
 80037c0:	20000438 	.word	0x20000438

080037c4 <BMS_TIM_PeriodElapsedCallback>:
 *  NOTA: HAL usa TIM1 ou TIM8 para HAL_GetTick() por defeito. Configurar
 *        o TIM base do HAL para um timer diferente do TIM2 no CubeMX
 *        (Project -> Advanced Settings -> HAL Timebase Source).
 */
void BMS_TIM_PeriodElapsedCallback(TIM_HandleTypeDef *htim)
{
 80037c4:	b480      	push	{r7}
 80037c6:	b083      	sub	sp, #12
 80037c8:	af00      	add	r7, sp, #0
 80037ca:	6078      	str	r0, [r7, #4]
    /* Guarda para garantir que só TIM2 dispara o tick do BMS.
     * Outros timers (ex: TIM1 usado pelo HAL internamente) não interferem. */
    if (htim->Instance == TIM2)
 80037cc:	687b      	ldr	r3, [r7, #4]
 80037ce:	681b      	ldr	r3, [r3, #0]
 80037d0:	f1b3 4f80 	cmp.w	r3, #1073741824	@ 0x40000000
 80037d4:	d102      	bne.n	80037dc <BMS_TIM_PeriodElapsedCallback+0x18>
    {
        g_tick_100ms = true;
 80037d6:	4b04      	ldr	r3, [pc, #16]	@ (80037e8 <BMS_TIM_PeriodElapsedCallback+0x24>)
 80037d8:	2201      	movs	r2, #1
 80037da:	701a      	strb	r2, [r3, #0]
    }
}
 80037dc:	bf00      	nop
 80037de:	370c      	adds	r7, #12
 80037e0:	46bd      	mov	sp, r7
 80037e2:	f85d 7b04 	ldr.w	r7, [sp], #4
 80037e6:	4770      	bx	lr
 80037e8:	20000438 	.word	0x20000438

080037ec <HAL_MspInit>:
/* USER CODE END 0 */
/**
  * Initializes the Global MSP.
  */
void HAL_MspInit(void)
{
 80037ec:	b480      	push	{r7}
 80037ee:	b083      	sub	sp, #12
 80037f0:	af00      	add	r7, sp, #0

  /* USER CODE BEGIN MspInit 0 */

  /* USER CODE END MspInit 0 */

  __HAL_RCC_SYSCFG_CLK_ENABLE();
 80037f2:	2300      	movs	r3, #0
 80037f4:	607b      	str	r3, [r7, #4]
 80037f6:	4b10      	ldr	r3, [pc, #64]	@ (8003838 <HAL_MspInit+0x4c>)
 80037f8:	6c5b      	ldr	r3, [r3, #68]	@ 0x44
 80037fa:	4a0f      	ldr	r2, [pc, #60]	@ (8003838 <HAL_MspInit+0x4c>)
 80037fc:	f443 4380 	orr.w	r3, r3, #16384	@ 0x4000
 8003800:	6453      	str	r3, [r2, #68]	@ 0x44
 8003802:	4b0d      	ldr	r3, [pc, #52]	@ (8003838 <HAL_MspInit+0x4c>)
 8003804:	6c5b      	ldr	r3, [r3, #68]	@ 0x44
 8003806:	f403 4380 	and.w	r3, r3, #16384	@ 0x4000
 800380a:	607b      	str	r3, [r7, #4]
 800380c:	687b      	ldr	r3, [r7, #4]
  __HAL_RCC_PWR_CLK_ENABLE();
 800380e:	2300      	movs	r3, #0
 8003810:	603b      	str	r3, [r7, #0]
 8003812:	4b09      	ldr	r3, [pc, #36]	@ (8003838 <HAL_MspInit+0x4c>)
 8003814:	6c1b      	ldr	r3, [r3, #64]	@ 0x40
 8003816:	4a08      	ldr	r2, [pc, #32]	@ (8003838 <HAL_MspInit+0x4c>)
 8003818:	f043 5380 	orr.w	r3, r3, #268435456	@ 0x10000000
 800381c:	6413      	str	r3, [r2, #64]	@ 0x40
 800381e:	4b06      	ldr	r3, [pc, #24]	@ (8003838 <HAL_MspInit+0x4c>)
 8003820:	6c1b      	ldr	r3, [r3, #64]	@ 0x40
 8003822:	f003 5380 	and.w	r3, r3, #268435456	@ 0x10000000
 8003826:	603b      	str	r3, [r7, #0]
 8003828:	683b      	ldr	r3, [r7, #0]
  /* System interrupt init*/

  /* USER CODE BEGIN MspInit 1 */

  /* USER CODE END MspInit 1 */
}
 800382a:	bf00      	nop
 800382c:	370c      	adds	r7, #12
 800382e:	46bd      	mov	sp, r7
 8003830:	f85d 7b04 	ldr.w	r7, [sp], #4
 8003834:	4770      	bx	lr
 8003836:	bf00      	nop
 8003838:	40023800 	.word	0x40023800

0800383c <HAL_TIM_Base_MspInit>:
  * This function configures the hardware resources used in this example
  * @param htim_base: TIM_Base handle pointer
  * @retval None
  */
void HAL_TIM_Base_MspInit(TIM_HandleTypeDef* htim_base)
{
 800383c:	b480      	push	{r7}
 800383e:	b085      	sub	sp, #20
 8003840:	af00      	add	r7, sp, #0
 8003842:	6078      	str	r0, [r7, #4]
  if(htim_base->Instance==TIM2)
 8003844:	687b      	ldr	r3, [r7, #4]
 8003846:	681b      	ldr	r3, [r3, #0]
 8003848:	f1b3 4f80 	cmp.w	r3, #1073741824	@ 0x40000000
 800384c:	d10d      	bne.n	800386a <HAL_TIM_Base_MspInit+0x2e>
  {
    /* USER CODE BEGIN TIM2_MspInit 0 */

    /* USER CODE END TIM2_MspInit 0 */
    /* Peripheral clock enable */
    __HAL_RCC_TIM2_CLK_ENABLE();
 800384e:	2300      	movs	r3, #0
 8003850:	60fb      	str	r3, [r7, #12]
 8003852:	4b09      	ldr	r3, [pc, #36]	@ (8003878 <HAL_TIM_Base_MspInit+0x3c>)
 8003854:	6c1b      	ldr	r3, [r3, #64]	@ 0x40
 8003856:	4a08      	ldr	r2, [pc, #32]	@ (8003878 <HAL_TIM_Base_MspInit+0x3c>)
 8003858:	f043 0301 	orr.w	r3, r3, #1
 800385c:	6413      	str	r3, [r2, #64]	@ 0x40
 800385e:	4b06      	ldr	r3, [pc, #24]	@ (8003878 <HAL_TIM_Base_MspInit+0x3c>)
 8003860:	6c1b      	ldr	r3, [r3, #64]	@ 0x40
 8003862:	f003 0301 	and.w	r3, r3, #1
 8003866:	60fb      	str	r3, [r7, #12]
 8003868:	68fb      	ldr	r3, [r7, #12]

    /* USER CODE END TIM2_MspInit 1 */

  }

}
 800386a:	bf00      	nop
 800386c:	3714      	adds	r7, #20
 800386e:	46bd      	mov	sp, r7
 8003870:	f85d 7b04 	ldr.w	r7, [sp], #4
 8003874:	4770      	bx	lr
 8003876:	bf00      	nop
 8003878:	40023800 	.word	0x40023800

0800387c <HAL_UART_MspInit>:
  * This function configures the hardware resources used in this example
  * @param huart: UART handle pointer
  * @retval None
  */
void HAL_UART_MspInit(UART_HandleTypeDef* huart)
{
 800387c:	b580      	push	{r7, lr}
 800387e:	b08c      	sub	sp, #48	@ 0x30
 8003880:	af00      	add	r7, sp, #0
 8003882:	6078      	str	r0, [r7, #4]
  GPIO_InitTypeDef GPIO_InitStruct = {0};
 8003884:	f107 031c 	add.w	r3, r7, #28
 8003888:	2200      	movs	r2, #0
 800388a:	601a      	str	r2, [r3, #0]
 800388c:	605a      	str	r2, [r3, #4]
 800388e:	609a      	str	r2, [r3, #8]
 8003890:	60da      	str	r2, [r3, #12]
 8003892:	611a      	str	r2, [r3, #16]
  if(huart->Instance==UART4)
 8003894:	687b      	ldr	r3, [r7, #4]
 8003896:	681b      	ldr	r3, [r3, #0]
 8003898:	4a70      	ldr	r2, [pc, #448]	@ (8003a5c <HAL_UART_MspInit+0x1e0>)
 800389a:	4293      	cmp	r3, r2
 800389c:	f040 8089 	bne.w	80039b2 <HAL_UART_MspInit+0x136>
  {
    /* USER CODE BEGIN UART4_MspInit 0 */

    /* USER CODE END UART4_MspInit 0 */
    /* Peripheral clock enable */
    __HAL_RCC_UART4_CLK_ENABLE();
 80038a0:	2300      	movs	r3, #0
 80038a2:	61bb      	str	r3, [r7, #24]
 80038a4:	4b6e      	ldr	r3, [pc, #440]	@ (8003a60 <HAL_UART_MspInit+0x1e4>)
 80038a6:	6c1b      	ldr	r3, [r3, #64]	@ 0x40
 80038a8:	4a6d      	ldr	r2, [pc, #436]	@ (8003a60 <HAL_UART_MspInit+0x1e4>)
 80038aa:	f443 2300 	orr.w	r3, r3, #524288	@ 0x80000
 80038ae:	6413      	str	r3, [r2, #64]	@ 0x40
 80038b0:	4b6b      	ldr	r3, [pc, #428]	@ (8003a60 <HAL_UART_MspInit+0x1e4>)
 80038b2:	6c1b      	ldr	r3, [r3, #64]	@ 0x40
 80038b4:	f403 2300 	and.w	r3, r3, #524288	@ 0x80000
 80038b8:	61bb      	str	r3, [r7, #24]
 80038ba:	69bb      	ldr	r3, [r7, #24]

    __HAL_RCC_GPIOA_CLK_ENABLE();
 80038bc:	2300      	movs	r3, #0
 80038be:	617b      	str	r3, [r7, #20]
 80038c0:	4b67      	ldr	r3, [pc, #412]	@ (8003a60 <HAL_UART_MspInit+0x1e4>)
 80038c2:	6b1b      	ldr	r3, [r3, #48]	@ 0x30
 80038c4:	4a66      	ldr	r2, [pc, #408]	@ (8003a60 <HAL_UART_MspInit+0x1e4>)
 80038c6:	f043 0301 	orr.w	r3, r3, #1
 80038ca:	6313      	str	r3, [r2, #48]	@ 0x30
 80038cc:	4b64      	ldr	r3, [pc, #400]	@ (8003a60 <HAL_UART_MspInit+0x1e4>)
 80038ce:	6b1b      	ldr	r3, [r3, #48]	@ 0x30
 80038d0:	f003 0301 	and.w	r3, r3, #1
 80038d4:	617b      	str	r3, [r7, #20]
 80038d6:	697b      	ldr	r3, [r7, #20]
    /**UART4 GPIO Configuration
    PA0-WKUP     ------> UART4_TX
    PA1     ------> UART4_RX
    */
    GPIO_InitStruct.Pin = GPIO_PIN_0|GPIO_PIN_1;
 80038d8:	2303      	movs	r3, #3
 80038da:	61fb      	str	r3, [r7, #28]
    GPIO_InitStruct.Mode = GPIO_MODE_AF_PP;
 80038dc:	2302      	movs	r3, #2
 80038de:	623b      	str	r3, [r7, #32]
    GPIO_InitStruct.Pull = GPIO_NOPULL;
 80038e0:	2300      	movs	r3, #0
 80038e2:	627b      	str	r3, [r7, #36]	@ 0x24
    GPIO_InitStruct.Speed = GPIO_SPEED_FREQ_VERY_HIGH;
 80038e4:	2303      	movs	r3, #3
 80038e6:	62bb      	str	r3, [r7, #40]	@ 0x28
    GPIO_InitStruct.Alternate = GPIO_AF8_UART4;
 80038e8:	2308      	movs	r3, #8
 80038ea:	62fb      	str	r3, [r7, #44]	@ 0x2c
    HAL_GPIO_Init(GPIOA, &GPIO_InitStruct);
 80038ec:	f107 031c 	add.w	r3, r7, #28
 80038f0:	4619      	mov	r1, r3
 80038f2:	485c      	ldr	r0, [pc, #368]	@ (8003a64 <HAL_UART_MspInit+0x1e8>)
 80038f4:	f001 f838 	bl	8004968 <HAL_GPIO_Init>

    /* UART4 DMA Init */
    /* UART4_RX Init */
    hdma_uart4_rx.Instance = DMA1_Stream2;
 80038f8:	4b5b      	ldr	r3, [pc, #364]	@ (8003a68 <HAL_UART_MspInit+0x1ec>)
 80038fa:	4a5c      	ldr	r2, [pc, #368]	@ (8003a6c <HAL_UART_MspInit+0x1f0>)
 80038fc:	601a      	str	r2, [r3, #0]
    hdma_uart4_rx.Init.Channel = DMA_CHANNEL_4;
 80038fe:	4b5a      	ldr	r3, [pc, #360]	@ (8003a68 <HAL_UART_MspInit+0x1ec>)
 8003900:	f04f 6200 	mov.w	r2, #134217728	@ 0x8000000
 8003904:	605a      	str	r2, [r3, #4]
    hdma_uart4_rx.Init.Direction = DMA_PERIPH_TO_MEMORY;
 8003906:	4b58      	ldr	r3, [pc, #352]	@ (8003a68 <HAL_UART_MspInit+0x1ec>)
 8003908:	2200      	movs	r2, #0
 800390a:	609a      	str	r2, [r3, #8]
    hdma_uart4_rx.Init.PeriphInc = DMA_PINC_DISABLE;
 800390c:	4b56      	ldr	r3, [pc, #344]	@ (8003a68 <HAL_UART_MspInit+0x1ec>)
 800390e:	2200      	movs	r2, #0
 8003910:	60da      	str	r2, [r3, #12]
    hdma_uart4_rx.Init.MemInc = DMA_MINC_ENABLE;
 8003912:	4b55      	ldr	r3, [pc, #340]	@ (8003a68 <HAL_UART_MspInit+0x1ec>)
 8003914:	f44f 6280 	mov.w	r2, #1024	@ 0x400
 8003918:	611a      	str	r2, [r3, #16]
    hdma_uart4_rx.Init.PeriphDataAlignment = DMA_PDATAALIGN_BYTE;
 800391a:	4b53      	ldr	r3, [pc, #332]	@ (8003a68 <HAL_UART_MspInit+0x1ec>)
 800391c:	2200      	movs	r2, #0
 800391e:	615a      	str	r2, [r3, #20]
    hdma_uart4_rx.Init.MemDataAlignment = DMA_MDATAALIGN_BYTE;
 8003920:	4b51      	ldr	r3, [pc, #324]	@ (8003a68 <HAL_UART_MspInit+0x1ec>)
 8003922:	2200      	movs	r2, #0
 8003924:	619a      	str	r2, [r3, #24]
    hdma_uart4_rx.Init.Mode = DMA_NORMAL;
 8003926:	4b50      	ldr	r3, [pc, #320]	@ (8003a68 <HAL_UART_MspInit+0x1ec>)
 8003928:	2200      	movs	r2, #0
 800392a:	61da      	str	r2, [r3, #28]
    hdma_uart4_rx.Init.Priority = DMA_PRIORITY_LOW;
 800392c:	4b4e      	ldr	r3, [pc, #312]	@ (8003a68 <HAL_UART_MspInit+0x1ec>)
 800392e:	2200      	movs	r2, #0
 8003930:	621a      	str	r2, [r3, #32]
    hdma_uart4_rx.Init.FIFOMode = DMA_FIFOMODE_DISABLE;
 8003932:	4b4d      	ldr	r3, [pc, #308]	@ (8003a68 <HAL_UART_MspInit+0x1ec>)
 8003934:	2200      	movs	r2, #0
 8003936:	625a      	str	r2, [r3, #36]	@ 0x24
    if (HAL_DMA_Init(&hdma_uart4_rx) != HAL_OK)
 8003938:	484b      	ldr	r0, [pc, #300]	@ (8003a68 <HAL_UART_MspInit+0x1ec>)
 800393a:	f000 fbd7 	bl	80040ec <HAL_DMA_Init>
 800393e:	4603      	mov	r3, r0
 8003940:	2b00      	cmp	r3, #0
 8003942:	d001      	beq.n	8003948 <HAL_UART_MspInit+0xcc>
    {
      Error_Handler();
 8003944:	f7ff fbaa 	bl	800309c <Error_Handler>
    }

    __HAL_LINKDMA(huart,hdmarx,hdma_uart4_rx);
 8003948:	687b      	ldr	r3, [r7, #4]
 800394a:	4a47      	ldr	r2, [pc, #284]	@ (8003a68 <HAL_UART_MspInit+0x1ec>)
 800394c:	63da      	str	r2, [r3, #60]	@ 0x3c
 800394e:	4a46      	ldr	r2, [pc, #280]	@ (8003a68 <HAL_UART_MspInit+0x1ec>)
 8003950:	687b      	ldr	r3, [r7, #4]
 8003952:	6393      	str	r3, [r2, #56]	@ 0x38

    /* UART4_TX Init */
    hdma_uart4_tx.Instance = DMA1_Stream4;
 8003954:	4b46      	ldr	r3, [pc, #280]	@ (8003a70 <HAL_UART_MspInit+0x1f4>)
 8003956:	4a47      	ldr	r2, [pc, #284]	@ (8003a74 <HAL_UART_MspInit+0x1f8>)
 8003958:	601a      	str	r2, [r3, #0]
    hdma_uart4_tx.Init.Channel = DMA_CHANNEL_4;
 800395a:	4b45      	ldr	r3, [pc, #276]	@ (8003a70 <HAL_UART_MspInit+0x1f4>)
 800395c:	f04f 6200 	mov.w	r2, #134217728	@ 0x8000000
 8003960:	605a      	str	r2, [r3, #4]
    hdma_uart4_tx.Init.Direction = DMA_MEMORY_TO_PERIPH;
 8003962:	4b43      	ldr	r3, [pc, #268]	@ (8003a70 <HAL_UART_MspInit+0x1f4>)
 8003964:	2240      	movs	r2, #64	@ 0x40
 8003966:	609a      	str	r2, [r3, #8]
    hdma_uart4_tx.Init.PeriphInc = DMA_PINC_DISABLE;
 8003968:	4b41      	ldr	r3, [pc, #260]	@ (8003a70 <HAL_UART_MspInit+0x1f4>)
 800396a:	2200      	movs	r2, #0
 800396c:	60da      	str	r2, [r3, #12]
    hdma_uart4_tx.Init.MemInc = DMA_MINC_ENABLE;
 800396e:	4b40      	ldr	r3, [pc, #256]	@ (8003a70 <HAL_UART_MspInit+0x1f4>)
 8003970:	f44f 6280 	mov.w	r2, #1024	@ 0x400
 8003974:	611a      	str	r2, [r3, #16]
    hdma_uart4_tx.Init.PeriphDataAlignment = DMA_PDATAALIGN_BYTE;
 8003976:	4b3e      	ldr	r3, [pc, #248]	@ (8003a70 <HAL_UART_MspInit+0x1f4>)
 8003978:	2200      	movs	r2, #0
 800397a:	615a      	str	r2, [r3, #20]
    hdma_uart4_tx.Init.MemDataAlignment = DMA_MDATAALIGN_BYTE;
 800397c:	4b3c      	ldr	r3, [pc, #240]	@ (8003a70 <HAL_UART_MspInit+0x1f4>)
 800397e:	2200      	movs	r2, #0
 8003980:	619a      	str	r2, [r3, #24]
    hdma_uart4_tx.Init.Mode = DMA_NORMAL;
 8003982:	4b3b      	ldr	r3, [pc, #236]	@ (8003a70 <HAL_UART_MspInit+0x1f4>)
 8003984:	2200      	movs	r2, #0
 8003986:	61da      	str	r2, [r3, #28]
    hdma_uart4_tx.Init.Priority = DMA_PRIORITY_LOW;
 8003988:	4b39      	ldr	r3, [pc, #228]	@ (8003a70 <HAL_UART_MspInit+0x1f4>)
 800398a:	2200      	movs	r2, #0
 800398c:	621a      	str	r2, [r3, #32]
    hdma_uart4_tx.Init.FIFOMode = DMA_FIFOMODE_DISABLE;
 800398e:	4b38      	ldr	r3, [pc, #224]	@ (8003a70 <HAL_UART_MspInit+0x1f4>)
 8003990:	2200      	movs	r2, #0
 8003992:	625a      	str	r2, [r3, #36]	@ 0x24
    if (HAL_DMA_Init(&hdma_uart4_tx) != HAL_OK)
 8003994:	4836      	ldr	r0, [pc, #216]	@ (8003a70 <HAL_UART_MspInit+0x1f4>)
 8003996:	f000 fba9 	bl	80040ec <HAL_DMA_Init>
 800399a:	4603      	mov	r3, r0
 800399c:	2b00      	cmp	r3, #0
 800399e:	d001      	beq.n	80039a4 <HAL_UART_MspInit+0x128>
    {
      Error_Handler();
 80039a0:	f7ff fb7c 	bl	800309c <Error_Handler>
    }

    __HAL_LINKDMA(huart,hdmatx,hdma_uart4_tx);
 80039a4:	687b      	ldr	r3, [r7, #4]
 80039a6:	4a32      	ldr	r2, [pc, #200]	@ (8003a70 <HAL_UART_MspInit+0x1f4>)
 80039a8:	639a      	str	r2, [r3, #56]	@ 0x38
 80039aa:	4a31      	ldr	r2, [pc, #196]	@ (8003a70 <HAL_UART_MspInit+0x1f4>)
 80039ac:	687b      	ldr	r3, [r7, #4]
 80039ae:	6393      	str	r3, [r2, #56]	@ 0x38
    /* USER CODE BEGIN USART3_MspInit 1 */

    /* USER CODE END USART3_MspInit 1 */
  }

}
 80039b0:	e04f      	b.n	8003a52 <HAL_UART_MspInit+0x1d6>
  else if(huart->Instance==USART3)
 80039b2:	687b      	ldr	r3, [r7, #4]
 80039b4:	681b      	ldr	r3, [r3, #0]
 80039b6:	4a30      	ldr	r2, [pc, #192]	@ (8003a78 <HAL_UART_MspInit+0x1fc>)
 80039b8:	4293      	cmp	r3, r2
 80039ba:	d14a      	bne.n	8003a52 <HAL_UART_MspInit+0x1d6>
    __HAL_RCC_USART3_CLK_ENABLE();
 80039bc:	2300      	movs	r3, #0
 80039be:	613b      	str	r3, [r7, #16]
 80039c0:	4b27      	ldr	r3, [pc, #156]	@ (8003a60 <HAL_UART_MspInit+0x1e4>)
 80039c2:	6c1b      	ldr	r3, [r3, #64]	@ 0x40
 80039c4:	4a26      	ldr	r2, [pc, #152]	@ (8003a60 <HAL_UART_MspInit+0x1e4>)
 80039c6:	f443 2380 	orr.w	r3, r3, #262144	@ 0x40000
 80039ca:	6413      	str	r3, [r2, #64]	@ 0x40
 80039cc:	4b24      	ldr	r3, [pc, #144]	@ (8003a60 <HAL_UART_MspInit+0x1e4>)
 80039ce:	6c1b      	ldr	r3, [r3, #64]	@ 0x40
 80039d0:	f403 2380 	and.w	r3, r3, #262144	@ 0x40000
 80039d4:	613b      	str	r3, [r7, #16]
 80039d6:	693b      	ldr	r3, [r7, #16]
    __HAL_RCC_GPIOC_CLK_ENABLE();
 80039d8:	2300      	movs	r3, #0
 80039da:	60fb      	str	r3, [r7, #12]
 80039dc:	4b20      	ldr	r3, [pc, #128]	@ (8003a60 <HAL_UART_MspInit+0x1e4>)
 80039de:	6b1b      	ldr	r3, [r3, #48]	@ 0x30
 80039e0:	4a1f      	ldr	r2, [pc, #124]	@ (8003a60 <HAL_UART_MspInit+0x1e4>)
 80039e2:	f043 0304 	orr.w	r3, r3, #4
 80039e6:	6313      	str	r3, [r2, #48]	@ 0x30
 80039e8:	4b1d      	ldr	r3, [pc, #116]	@ (8003a60 <HAL_UART_MspInit+0x1e4>)
 80039ea:	6b1b      	ldr	r3, [r3, #48]	@ 0x30
 80039ec:	f003 0304 	and.w	r3, r3, #4
 80039f0:	60fb      	str	r3, [r7, #12]
 80039f2:	68fb      	ldr	r3, [r7, #12]
    __HAL_RCC_GPIOB_CLK_ENABLE();
 80039f4:	2300      	movs	r3, #0
 80039f6:	60bb      	str	r3, [r7, #8]
 80039f8:	4b19      	ldr	r3, [pc, #100]	@ (8003a60 <HAL_UART_MspInit+0x1e4>)
 80039fa:	6b1b      	ldr	r3, [r3, #48]	@ 0x30
 80039fc:	4a18      	ldr	r2, [pc, #96]	@ (8003a60 <HAL_UART_MspInit+0x1e4>)
 80039fe:	f043 0302 	orr.w	r3, r3, #2
 8003a02:	6313      	str	r3, [r2, #48]	@ 0x30
 8003a04:	4b16      	ldr	r3, [pc, #88]	@ (8003a60 <HAL_UART_MspInit+0x1e4>)
 8003a06:	6b1b      	ldr	r3, [r3, #48]	@ 0x30
 8003a08:	f003 0302 	and.w	r3, r3, #2
 8003a0c:	60bb      	str	r3, [r7, #8]
 8003a0e:	68bb      	ldr	r3, [r7, #8]
    GPIO_InitStruct.Pin = GPIO_PIN_5;
 8003a10:	2320      	movs	r3, #32
 8003a12:	61fb      	str	r3, [r7, #28]
    GPIO_InitStruct.Mode = GPIO_MODE_AF_PP;
 8003a14:	2302      	movs	r3, #2
 8003a16:	623b      	str	r3, [r7, #32]
    GPIO_InitStruct.Pull = GPIO_NOPULL;
 8003a18:	2300      	movs	r3, #0
 8003a1a:	627b      	str	r3, [r7, #36]	@ 0x24
    GPIO_InitStruct.Speed = GPIO_SPEED_FREQ_VERY_HIGH;
 8003a1c:	2303      	movs	r3, #3
 8003a1e:	62bb      	str	r3, [r7, #40]	@ 0x28
    GPIO_InitStruct.Alternate = GPIO_AF7_USART3;
 8003a20:	2307      	movs	r3, #7
 8003a22:	62fb      	str	r3, [r7, #44]	@ 0x2c
    HAL_GPIO_Init(GPIOC, &GPIO_InitStruct);
 8003a24:	f107 031c 	add.w	r3, r7, #28
 8003a28:	4619      	mov	r1, r3
 8003a2a:	4814      	ldr	r0, [pc, #80]	@ (8003a7c <HAL_UART_MspInit+0x200>)
 8003a2c:	f000 ff9c 	bl	8004968 <HAL_GPIO_Init>
    GPIO_InitStruct.Pin = GPIO_PIN_10;
 8003a30:	f44f 6380 	mov.w	r3, #1024	@ 0x400
 8003a34:	61fb      	str	r3, [r7, #28]
    GPIO_InitStruct.Mode = GPIO_MODE_AF_PP;
 8003a36:	2302      	movs	r3, #2
 8003a38:	623b      	str	r3, [r7, #32]
    GPIO_InitStruct.Pull = GPIO_NOPULL;
 8003a3a:	2300      	movs	r3, #0
 8003a3c:	627b      	str	r3, [r7, #36]	@ 0x24
    GPIO_InitStruct.Speed = GPIO_SPEED_FREQ_VERY_HIGH;
 8003a3e:	2303      	movs	r3, #3
 8003a40:	62bb      	str	r3, [r7, #40]	@ 0x28
    GPIO_InitStruct.Alternate = GPIO_AF7_USART3;
 8003a42:	2307      	movs	r3, #7
 8003a44:	62fb      	str	r3, [r7, #44]	@ 0x2c
    HAL_GPIO_Init(GPIOB, &GPIO_InitStruct);
 8003a46:	f107 031c 	add.w	r3, r7, #28
 8003a4a:	4619      	mov	r1, r3
 8003a4c:	480c      	ldr	r0, [pc, #48]	@ (8003a80 <HAL_UART_MspInit+0x204>)
 8003a4e:	f000 ff8b 	bl	8004968 <HAL_GPIO_Init>
}
 8003a52:	bf00      	nop
 8003a54:	3730      	adds	r7, #48	@ 0x30
 8003a56:	46bd      	mov	sp, r7
 8003a58:	bd80      	pop	{r7, pc}
 8003a5a:	bf00      	nop
 8003a5c:	40004c00 	.word	0x40004c00
 8003a60:	40023800 	.word	0x40023800
 8003a64:	40020000 	.word	0x40020000
 8003a68:	20000170 	.word	0x20000170
 8003a6c:	40026040 	.word	0x40026040
 8003a70:	200001d0 	.word	0x200001d0
 8003a74:	40026070 	.word	0x40026070
 8003a78:	40004800 	.word	0x40004800
 8003a7c:	40020800 	.word	0x40020800
 8003a80:	40020400 	.word	0x40020400

08003a84 <HAL_UART_MspDeInit>:
  * This function freeze the hardware resources used in this example
  * @param huart: UART handle pointer
  * @retval None
  */
void HAL_UART_MspDeInit(UART_HandleTypeDef* huart)
{
 8003a84:	b580      	push	{r7, lr}
 8003a86:	b082      	sub	sp, #8
 8003a88:	af00      	add	r7, sp, #0
 8003a8a:	6078      	str	r0, [r7, #4]
  if(huart->Instance==UART4)
 8003a8c:	687b      	ldr	r3, [r7, #4]
 8003a8e:	681b      	ldr	r3, [r3, #0]
 8003a90:	4a17      	ldr	r2, [pc, #92]	@ (8003af0 <HAL_UART_MspDeInit+0x6c>)
 8003a92:	4293      	cmp	r3, r2
 8003a94:	d114      	bne.n	8003ac0 <HAL_UART_MspDeInit+0x3c>
  {
    /* USER CODE BEGIN UART4_MspDeInit 0 */

    /* USER CODE END UART4_MspDeInit 0 */
    /* Peripheral clock disable */
    __HAL_RCC_UART4_CLK_DISABLE();
 8003a96:	4b17      	ldr	r3, [pc, #92]	@ (8003af4 <HAL_UART_MspDeInit+0x70>)
 8003a98:	6c1b      	ldr	r3, [r3, #64]	@ 0x40
 8003a9a:	4a16      	ldr	r2, [pc, #88]	@ (8003af4 <HAL_UART_MspDeInit+0x70>)
 8003a9c:	f423 2300 	bic.w	r3, r3, #524288	@ 0x80000
 8003aa0:	6413      	str	r3, [r2, #64]	@ 0x40

    /**UART4 GPIO Configuration
    PA0-WKUP     ------> UART4_TX
    PA1     ------> UART4_RX
    */
    HAL_GPIO_DeInit(GPIOA, GPIO_PIN_0|GPIO_PIN_1);
 8003aa2:	2103      	movs	r1, #3
 8003aa4:	4814      	ldr	r0, [pc, #80]	@ (8003af8 <HAL_UART_MspDeInit+0x74>)
 8003aa6:	f001 f8f3 	bl	8004c90 <HAL_GPIO_DeInit>

    /* UART4 DMA DeInit */
    HAL_DMA_DeInit(huart->hdmarx);
 8003aaa:	687b      	ldr	r3, [r7, #4]
 8003aac:	6bdb      	ldr	r3, [r3, #60]	@ 0x3c
 8003aae:	4618      	mov	r0, r3
 8003ab0:	f000 fbca 	bl	8004248 <HAL_DMA_DeInit>
    HAL_DMA_DeInit(huart->hdmatx);
 8003ab4:	687b      	ldr	r3, [r7, #4]
 8003ab6:	6b9b      	ldr	r3, [r3, #56]	@ 0x38
 8003ab8:	4618      	mov	r0, r3
 8003aba:	f000 fbc5 	bl	8004248 <HAL_DMA_DeInit>
    /* USER CODE BEGIN USART3_MspDeInit 1 */

    /* USER CODE END USART3_MspDeInit 1 */
  }

}
 8003abe:	e013      	b.n	8003ae8 <HAL_UART_MspDeInit+0x64>
  else if(huart->Instance==USART3)
 8003ac0:	687b      	ldr	r3, [r7, #4]
 8003ac2:	681b      	ldr	r3, [r3, #0]
 8003ac4:	4a0d      	ldr	r2, [pc, #52]	@ (8003afc <HAL_UART_MspDeInit+0x78>)
 8003ac6:	4293      	cmp	r3, r2
 8003ac8:	d10e      	bne.n	8003ae8 <HAL_UART_MspDeInit+0x64>
    __HAL_RCC_USART3_CLK_DISABLE();
 8003aca:	4b0a      	ldr	r3, [pc, #40]	@ (8003af4 <HAL_UART_MspDeInit+0x70>)
 8003acc:	6c1b      	ldr	r3, [r3, #64]	@ 0x40
 8003ace:	4a09      	ldr	r2, [pc, #36]	@ (8003af4 <HAL_UART_MspDeInit+0x70>)
 8003ad0:	f423 2380 	bic.w	r3, r3, #262144	@ 0x40000
 8003ad4:	6413      	str	r3, [r2, #64]	@ 0x40
    HAL_GPIO_DeInit(GPIOC, GPIO_PIN_5);
 8003ad6:	2120      	movs	r1, #32
 8003ad8:	4809      	ldr	r0, [pc, #36]	@ (8003b00 <HAL_UART_MspDeInit+0x7c>)
 8003ada:	f001 f8d9 	bl	8004c90 <HAL_GPIO_DeInit>
    HAL_GPIO_DeInit(GPIOB, GPIO_PIN_10);
 8003ade:	f44f 6180 	mov.w	r1, #1024	@ 0x400
 8003ae2:	4808      	ldr	r0, [pc, #32]	@ (8003b04 <HAL_UART_MspDeInit+0x80>)
 8003ae4:	f001 f8d4 	bl	8004c90 <HAL_GPIO_DeInit>
}
 8003ae8:	bf00      	nop
 8003aea:	3708      	adds	r7, #8
 8003aec:	46bd      	mov	sp, r7
 8003aee:	bd80      	pop	{r7, pc}
 8003af0:	40004c00 	.word	0x40004c00
 8003af4:	40023800 	.word	0x40023800
 8003af8:	40020000 	.word	0x40020000
 8003afc:	40004800 	.word	0x40004800
 8003b00:	40020800 	.word	0x40020800
 8003b04:	40020400 	.word	0x40020400

08003b08 <HAL_InitTick>:
  *         reset by HAL_Init() or at any time when clock is configured, by HAL_RCC_ClockConfig().
  * @param  TickPriority: Tick interrupt priority.
  * @retval HAL status
  */
HAL_StatusTypeDef HAL_InitTick(uint32_t TickPriority)
{
 8003b08:	b580      	push	{r7, lr}
 8003b0a:	b08e      	sub	sp, #56	@ 0x38
 8003b0c:	af00      	add	r7, sp, #0
 8003b0e:	6078      	str	r0, [r7, #4]
  RCC_ClkInitTypeDef    clkconfig;
  uint32_t              uwTimclock, uwAPB1Prescaler = 0U;
 8003b10:	2300      	movs	r3, #0
 8003b12:	62fb      	str	r3, [r7, #44]	@ 0x2c

  uint32_t              uwPrescalerValue = 0U;
 8003b14:	2300      	movs	r3, #0
 8003b16:	62bb      	str	r3, [r7, #40]	@ 0x28
  uint32_t              pFLatency;

  HAL_StatusTypeDef     status;

  /* Enable TIM6 clock */
  __HAL_RCC_TIM6_CLK_ENABLE();
 8003b18:	2300      	movs	r3, #0
 8003b1a:	60fb      	str	r3, [r7, #12]
 8003b1c:	4b33      	ldr	r3, [pc, #204]	@ (8003bec <HAL_InitTick+0xe4>)
 8003b1e:	6c1b      	ldr	r3, [r3, #64]	@ 0x40
 8003b20:	4a32      	ldr	r2, [pc, #200]	@ (8003bec <HAL_InitTick+0xe4>)
 8003b22:	f043 0310 	orr.w	r3, r3, #16
 8003b26:	6413      	str	r3, [r2, #64]	@ 0x40
 8003b28:	4b30      	ldr	r3, [pc, #192]	@ (8003bec <HAL_InitTick+0xe4>)
 8003b2a:	6c1b      	ldr	r3, [r3, #64]	@ 0x40
 8003b2c:	f003 0310 	and.w	r3, r3, #16
 8003b30:	60fb      	str	r3, [r7, #12]
 8003b32:	68fb      	ldr	r3, [r7, #12]

  /* Get clock configuration */
  HAL_RCC_GetClockConfig(&clkconfig, &pFLatency);
 8003b34:	f107 0210 	add.w	r2, r7, #16
 8003b38:	f107 0314 	add.w	r3, r7, #20
 8003b3c:	4611      	mov	r1, r2
 8003b3e:	4618      	mov	r0, r3
 8003b40:	f001 fb54 	bl	80051ec <HAL_RCC_GetClockConfig>

  /* Get APB1 prescaler */
  uwAPB1Prescaler = clkconfig.APB1CLKDivider;
 8003b44:	6a3b      	ldr	r3, [r7, #32]
 8003b46:	62fb      	str	r3, [r7, #44]	@ 0x2c
  /* Compute TIM6 clock */
  if (uwAPB1Prescaler == RCC_HCLK_DIV1)
 8003b48:	6afb      	ldr	r3, [r7, #44]	@ 0x2c
 8003b4a:	2b00      	cmp	r3, #0
 8003b4c:	d103      	bne.n	8003b56 <HAL_InitTick+0x4e>
  {
    uwTimclock = HAL_RCC_GetPCLK1Freq();
 8003b4e:	f001 fb25 	bl	800519c <HAL_RCC_GetPCLK1Freq>
 8003b52:	6378      	str	r0, [r7, #52]	@ 0x34
 8003b54:	e004      	b.n	8003b60 <HAL_InitTick+0x58>
  }
  else
  {
    uwTimclock = 2UL * HAL_RCC_GetPCLK1Freq();
 8003b56:	f001 fb21 	bl	800519c <HAL_RCC_GetPCLK1Freq>
 8003b5a:	4603      	mov	r3, r0
 8003b5c:	005b      	lsls	r3, r3, #1
 8003b5e:	637b      	str	r3, [r7, #52]	@ 0x34
  }

  /* Compute the prescaler value to have TIM6 counter clock equal to 1MHz */
  uwPrescalerValue = (uint32_t) ((uwTimclock / 1000000U) - 1U);
 8003b60:	6b7b      	ldr	r3, [r7, #52]	@ 0x34
 8003b62:	4a23      	ldr	r2, [pc, #140]	@ (8003bf0 <HAL_InitTick+0xe8>)
 8003b64:	fba2 2303 	umull	r2, r3, r2, r3
 8003b68:	0c9b      	lsrs	r3, r3, #18
 8003b6a:	3b01      	subs	r3, #1
 8003b6c:	62bb      	str	r3, [r7, #40]	@ 0x28

  /* Initialize TIM6 */
  htim6.Instance = TIM6;
 8003b6e:	4b21      	ldr	r3, [pc, #132]	@ (8003bf4 <HAL_InitTick+0xec>)
 8003b70:	4a21      	ldr	r2, [pc, #132]	@ (8003bf8 <HAL_InitTick+0xf0>)
 8003b72:	601a      	str	r2, [r3, #0]
   * Period = [(TIM6CLK/1000) - 1]. to have a (1/1000) s time base.
   * Prescaler = (uwTimclock/1000000 - 1) to have a 1MHz counter clock.
   * ClockDivision = 0
   * Counter direction = Up
   */
  htim6.Init.Period = (1000000U / 1000U) - 1U;
 8003b74:	4b1f      	ldr	r3, [pc, #124]	@ (8003bf4 <HAL_InitTick+0xec>)
 8003b76:	f240 32e7 	movw	r2, #999	@ 0x3e7
 8003b7a:	60da      	str	r2, [r3, #12]
  htim6.Init.Prescaler = uwPrescalerValue;
 8003b7c:	4a1d      	ldr	r2, [pc, #116]	@ (8003bf4 <HAL_InitTick+0xec>)
 8003b7e:	6abb      	ldr	r3, [r7, #40]	@ 0x28
 8003b80:	6053      	str	r3, [r2, #4]
  htim6.Init.ClockDivision = 0;
 8003b82:	4b1c      	ldr	r3, [pc, #112]	@ (8003bf4 <HAL_InitTick+0xec>)
 8003b84:	2200      	movs	r2, #0
 8003b86:	611a      	str	r2, [r3, #16]
  htim6.Init.CounterMode = TIM_COUNTERMODE_UP;
 8003b88:	4b1a      	ldr	r3, [pc, #104]	@ (8003bf4 <HAL_InitTick+0xec>)
 8003b8a:	2200      	movs	r2, #0
 8003b8c:	609a      	str	r2, [r3, #8]
  htim6.Init.AutoReloadPreload = TIM_AUTORELOAD_PRELOAD_DISABLE;
 8003b8e:	4b19      	ldr	r3, [pc, #100]	@ (8003bf4 <HAL_InitTick+0xec>)
 8003b90:	2200      	movs	r2, #0
 8003b92:	619a      	str	r2, [r3, #24]

  status = HAL_TIM_Base_Init(&htim6);
 8003b94:	4817      	ldr	r0, [pc, #92]	@ (8003bf4 <HAL_InitTick+0xec>)
 8003b96:	f001 ffa3 	bl	8005ae0 <HAL_TIM_Base_Init>
 8003b9a:	4603      	mov	r3, r0
 8003b9c:	f887 3033 	strb.w	r3, [r7, #51]	@ 0x33
  if (status == HAL_OK)
 8003ba0:	f897 3033 	ldrb.w	r3, [r7, #51]	@ 0x33
 8003ba4:	2b00      	cmp	r3, #0
 8003ba6:	d11b      	bne.n	8003be0 <HAL_InitTick+0xd8>
  {
    /* Start the TIM time Base generation in interrupt mode */
    status = HAL_TIM_Base_Start_IT(&htim6);
 8003ba8:	4812      	ldr	r0, [pc, #72]	@ (8003bf4 <HAL_InitTick+0xec>)
 8003baa:	f002 f851 	bl	8005c50 <HAL_TIM_Base_Start_IT>
 8003bae:	4603      	mov	r3, r0
 8003bb0:	f887 3033 	strb.w	r3, [r7, #51]	@ 0x33
    if (status == HAL_OK)
 8003bb4:	f897 3033 	ldrb.w	r3, [r7, #51]	@ 0x33
 8003bb8:	2b00      	cmp	r3, #0
 8003bba:	d111      	bne.n	8003be0 <HAL_InitTick+0xd8>
    {
    /* Enable the TIM6 global Interrupt */
        HAL_NVIC_EnableIRQ(TIM6_DAC_IRQn);
 8003bbc:	2036      	movs	r0, #54	@ 0x36
 8003bbe:	f000 fa87 	bl	80040d0 <HAL_NVIC_EnableIRQ>
      /* Configure the SysTick IRQ priority */
      if (TickPriority < (1UL << __NVIC_PRIO_BITS))
 8003bc2:	687b      	ldr	r3, [r7, #4]
 8003bc4:	2b0f      	cmp	r3, #15
 8003bc6:	d808      	bhi.n	8003bda <HAL_InitTick+0xd2>
      {
        /* Configure the TIM IRQ priority */
        HAL_NVIC_SetPriority(TIM6_DAC_IRQn, TickPriority, 0U);
 8003bc8:	2200      	movs	r2, #0
 8003bca:	6879      	ldr	r1, [r7, #4]
 8003bcc:	2036      	movs	r0, #54	@ 0x36
 8003bce:	f000 fa63 	bl	8004098 <HAL_NVIC_SetPriority>
        uwTickPrio = TickPriority;
 8003bd2:	4a0a      	ldr	r2, [pc, #40]	@ (8003bfc <HAL_InitTick+0xf4>)
 8003bd4:	687b      	ldr	r3, [r7, #4]
 8003bd6:	6013      	str	r3, [r2, #0]
 8003bd8:	e002      	b.n	8003be0 <HAL_InitTick+0xd8>
      }
      else
      {
        status = HAL_ERROR;
 8003bda:	2301      	movs	r3, #1
 8003bdc:	f887 3033 	strb.w	r3, [r7, #51]	@ 0x33
      }
    }
  }

 /* Return function status */
  return status;
 8003be0:	f897 3033 	ldrb.w	r3, [r7, #51]	@ 0x33
}
 8003be4:	4618      	mov	r0, r3
 8003be6:	3738      	adds	r7, #56	@ 0x38
 8003be8:	46bd      	mov	sp, r7
 8003bea:	bd80      	pop	{r7, pc}
 8003bec:	40023800 	.word	0x40023800
 8003bf0:	431bde83 	.word	0x431bde83
 8003bf4:	2000043c 	.word	0x2000043c
 8003bf8:	40001000 	.word	0x40001000
 8003bfc:	20000004 	.word	0x20000004

08003c00 <NMI_Handler>:
/******************************************************************************/
/**
  * @brief This function handles Non maskable interrupt.
  */
void NMI_Handler(void)
{
 8003c00:	b480      	push	{r7}
 8003c02:	af00      	add	r7, sp, #0
  /* USER CODE BEGIN NonMaskableInt_IRQn 0 */

  /* USER CODE END NonMaskableInt_IRQn 0 */
  /* USER CODE BEGIN NonMaskableInt_IRQn 1 */
   while (1)
 8003c04:	bf00      	nop
 8003c06:	e7fd      	b.n	8003c04 <NMI_Handler+0x4>

08003c08 <HardFault_Handler>:

/**
  * @brief This function handles Hard fault interrupt.
  */
void HardFault_Handler(void)
{
 8003c08:	b480      	push	{r7}
 8003c0a:	af00      	add	r7, sp, #0
  /* USER CODE BEGIN HardFault_IRQn 0 */

  /* USER CODE END HardFault_IRQn 0 */
  while (1)
 8003c0c:	bf00      	nop
 8003c0e:	e7fd      	b.n	8003c0c <HardFault_Handler+0x4>

08003c10 <MemManage_Handler>:

/**
  * @brief This function handles Memory management fault.
  */
void MemManage_Handler(void)
{
 8003c10:	b480      	push	{r7}
 8003c12:	af00      	add	r7, sp, #0
  /* USER CODE BEGIN MemoryManagement_IRQn 0 */

  /* USER CODE END MemoryManagement_IRQn 0 */
  while (1)
 8003c14:	bf00      	nop
 8003c16:	e7fd      	b.n	8003c14 <MemManage_Handler+0x4>

08003c18 <BusFault_Handler>:

/**
  * @brief This function handles Pre-fetch fault, memory access fault.
  */
void BusFault_Handler(void)
{
 8003c18:	b480      	push	{r7}
 8003c1a:	af00      	add	r7, sp, #0
  /* USER CODE BEGIN BusFault_IRQn 0 */

  /* USER CODE END BusFault_IRQn 0 */
  while (1)
 8003c1c:	bf00      	nop
 8003c1e:	e7fd      	b.n	8003c1c <BusFault_Handler+0x4>

08003c20 <UsageFault_Handler>:

/**
  * @brief This function handles Undefined instruction or illegal state.
  */
void UsageFault_Handler(void)
{
 8003c20:	b480      	push	{r7}
 8003c22:	af00      	add	r7, sp, #0
  /* USER CODE BEGIN UsageFault_IRQn 0 */

  /* USER CODE END UsageFault_IRQn 0 */
  while (1)
 8003c24:	bf00      	nop
 8003c26:	e7fd      	b.n	8003c24 <UsageFault_Handler+0x4>

08003c28 <SVC_Handler>:

/**
  * @brief This function handles System service call via SWI instruction.
  */
void SVC_Handler(void)
{
 8003c28:	b480      	push	{r7}
 8003c2a:	af00      	add	r7, sp, #0

  /* USER CODE END SVCall_IRQn 0 */
  /* USER CODE BEGIN SVCall_IRQn 1 */

  /* USER CODE END SVCall_IRQn 1 */
}
 8003c2c:	bf00      	nop
 8003c2e:	46bd      	mov	sp, r7
 8003c30:	f85d 7b04 	ldr.w	r7, [sp], #4
 8003c34:	4770      	bx	lr

08003c36 <DebugMon_Handler>:

/**
  * @brief This function handles Debug monitor.
  */
void DebugMon_Handler(void)
{
 8003c36:	b480      	push	{r7}
 8003c38:	af00      	add	r7, sp, #0

  /* USER CODE END DebugMonitor_IRQn 0 */
  /* USER CODE BEGIN DebugMonitor_IRQn 1 */

  /* USER CODE END DebugMonitor_IRQn 1 */
}
 8003c3a:	bf00      	nop
 8003c3c:	46bd      	mov	sp, r7
 8003c3e:	f85d 7b04 	ldr.w	r7, [sp], #4
 8003c42:	4770      	bx	lr

08003c44 <PendSV_Handler>:

/**
  * @brief This function handles Pendable request for system service.
  */
void PendSV_Handler(void)
{
 8003c44:	b480      	push	{r7}
 8003c46:	af00      	add	r7, sp, #0

  /* USER CODE END PendSV_IRQn 0 */
  /* USER CODE BEGIN PendSV_IRQn 1 */

  /* USER CODE END PendSV_IRQn 1 */
}
 8003c48:	bf00      	nop
 8003c4a:	46bd      	mov	sp, r7
 8003c4c:	f85d 7b04 	ldr.w	r7, [sp], #4
 8003c50:	4770      	bx	lr

08003c52 <SysTick_Handler>:

/**
  * @brief This function handles System tick timer.
  */
void SysTick_Handler(void)
{
 8003c52:	b480      	push	{r7}
 8003c54:	af00      	add	r7, sp, #0
  /* USER CODE END SysTick_IRQn 0 */

  /* USER CODE BEGIN SysTick_IRQn 1 */

  /* USER CODE END SysTick_IRQn 1 */
}
 8003c56:	bf00      	nop
 8003c58:	46bd      	mov	sp, r7
 8003c5a:	f85d 7b04 	ldr.w	r7, [sp], #4
 8003c5e:	4770      	bx	lr

08003c60 <DMA1_Stream2_IRQHandler>:

/**
  * @brief This function handles DMA1 stream2 global interrupt.
  */
void DMA1_Stream2_IRQHandler(void)
{
 8003c60:	b580      	push	{r7, lr}
 8003c62:	af00      	add	r7, sp, #0
  /* USER CODE BEGIN DMA1_Stream2_IRQn 0 */

  /* USER CODE END DMA1_Stream2_IRQn 0 */
  HAL_DMA_IRQHandler(&hdma_uart4_rx);
 8003c64:	4802      	ldr	r0, [pc, #8]	@ (8003c70 <DMA1_Stream2_IRQHandler+0x10>)
 8003c66:	f000 fc15 	bl	8004494 <HAL_DMA_IRQHandler>
  /* USER CODE BEGIN DMA1_Stream2_IRQn 1 */

  /* USER CODE END DMA1_Stream2_IRQn 1 */
}
 8003c6a:	bf00      	nop
 8003c6c:	bd80      	pop	{r7, pc}
 8003c6e:	bf00      	nop
 8003c70:	20000170 	.word	0x20000170

08003c74 <DMA1_Stream4_IRQHandler>:

/**
  * @brief This function handles DMA1 stream4 global interrupt.
  */
void DMA1_Stream4_IRQHandler(void)
{
 8003c74:	b580      	push	{r7, lr}
 8003c76:	af00      	add	r7, sp, #0
  /* USER CODE BEGIN DMA1_Stream4_IRQn 0 */

  /* USER CODE END DMA1_Stream4_IRQn 0 */
  HAL_DMA_IRQHandler(&hdma_uart4_tx);
 8003c78:	4802      	ldr	r0, [pc, #8]	@ (8003c84 <DMA1_Stream4_IRQHandler+0x10>)
 8003c7a:	f000 fc0b 	bl	8004494 <HAL_DMA_IRQHandler>
  /* USER CODE BEGIN DMA1_Stream4_IRQn 1 */

  /* USER CODE END DMA1_Stream4_IRQn 1 */
}
 8003c7e:	bf00      	nop
 8003c80:	bd80      	pop	{r7, pc}
 8003c82:	bf00      	nop
 8003c84:	200001d0 	.word	0x200001d0

08003c88 <TIM6_DAC_IRQHandler>:

/**
  * @brief This function handles TIM6 global interrupt and DAC1, DAC2 underrun error interrupts.
  */
void TIM6_DAC_IRQHandler(void)
{
 8003c88:	b580      	push	{r7, lr}
 8003c8a:	af00      	add	r7, sp, #0
  /* USER CODE BEGIN TIM6_DAC_IRQn 0 */

  /* USER CODE END TIM6_DAC_IRQn 0 */
  HAL_TIM_IRQHandler(&htim6);
 8003c8c:	4802      	ldr	r0, [pc, #8]	@ (8003c98 <TIM6_DAC_IRQHandler+0x10>)
 8003c8e:	f002 f84f 	bl	8005d30 <HAL_TIM_IRQHandler>
  /* USER CODE BEGIN TIM6_DAC_IRQn 1 */

  /* USER CODE END TIM6_DAC_IRQn 1 */
}
 8003c92:	bf00      	nop
 8003c94:	bd80      	pop	{r7, pc}
 8003c96:	bf00      	nop
 8003c98:	2000043c 	.word	0x2000043c

08003c9c <_read>:
  _kill(status, -1);
  while (1) {}    /* Make sure we hang here */
}

__attribute__((weak)) int _read(int file, char *ptr, int len)
{
 8003c9c:	b580      	push	{r7, lr}
 8003c9e:	b086      	sub	sp, #24
 8003ca0:	af00      	add	r7, sp, #0
 8003ca2:	60f8      	str	r0, [r7, #12]
 8003ca4:	60b9      	str	r1, [r7, #8]
 8003ca6:	607a      	str	r2, [r7, #4]
  (void)file;
  int DataIdx;

  for (DataIdx = 0; DataIdx < len; DataIdx++)
 8003ca8:	2300      	movs	r3, #0
 8003caa:	617b      	str	r3, [r7, #20]
 8003cac:	e00a      	b.n	8003cc4 <_read+0x28>
  {
    *ptr++ = __io_getchar();
 8003cae:	f3af 8000 	nop.w
 8003cb2:	4601      	mov	r1, r0
 8003cb4:	68bb      	ldr	r3, [r7, #8]
 8003cb6:	1c5a      	adds	r2, r3, #1
 8003cb8:	60ba      	str	r2, [r7, #8]
 8003cba:	b2ca      	uxtb	r2, r1
 8003cbc:	701a      	strb	r2, [r3, #0]
  for (DataIdx = 0; DataIdx < len; DataIdx++)
 8003cbe:	697b      	ldr	r3, [r7, #20]
 8003cc0:	3301      	adds	r3, #1
 8003cc2:	617b      	str	r3, [r7, #20]
 8003cc4:	697a      	ldr	r2, [r7, #20]
 8003cc6:	687b      	ldr	r3, [r7, #4]
 8003cc8:	429a      	cmp	r2, r3
 8003cca:	dbf0      	blt.n	8003cae <_read+0x12>
  }

  return len;
 8003ccc:	687b      	ldr	r3, [r7, #4]
}
 8003cce:	4618      	mov	r0, r3
 8003cd0:	3718      	adds	r7, #24
 8003cd2:	46bd      	mov	sp, r7
 8003cd4:	bd80      	pop	{r7, pc}

08003cd6 <_write>:

__attribute__((weak)) int _write(int file, char *ptr, int len)
{
 8003cd6:	b580      	push	{r7, lr}
 8003cd8:	b086      	sub	sp, #24
 8003cda:	af00      	add	r7, sp, #0
 8003cdc:	60f8      	str	r0, [r7, #12]
 8003cde:	60b9      	str	r1, [r7, #8]
 8003ce0:	607a      	str	r2, [r7, #4]
  (void)file;
  int DataIdx;

  for (DataIdx = 0; DataIdx < len; DataIdx++)
 8003ce2:	2300      	movs	r3, #0
 8003ce4:	617b      	str	r3, [r7, #20]
 8003ce6:	e009      	b.n	8003cfc <_write+0x26>
  {
    __io_putchar(*ptr++);
 8003ce8:	68bb      	ldr	r3, [r7, #8]
 8003cea:	1c5a      	adds	r2, r3, #1
 8003cec:	60ba      	str	r2, [r7, #8]
 8003cee:	781b      	ldrb	r3, [r3, #0]
 8003cf0:	4618      	mov	r0, r3
 8003cf2:	f3af 8000 	nop.w
  for (DataIdx = 0; DataIdx < len; DataIdx++)
 8003cf6:	697b      	ldr	r3, [r7, #20]
 8003cf8:	3301      	adds	r3, #1
 8003cfa:	617b      	str	r3, [r7, #20]
 8003cfc:	697a      	ldr	r2, [r7, #20]
 8003cfe:	687b      	ldr	r3, [r7, #4]
 8003d00:	429a      	cmp	r2, r3
 8003d02:	dbf1      	blt.n	8003ce8 <_write+0x12>
  }
  return len;
 8003d04:	687b      	ldr	r3, [r7, #4]
}
 8003d06:	4618      	mov	r0, r3
 8003d08:	3718      	adds	r7, #24
 8003d0a:	46bd      	mov	sp, r7
 8003d0c:	bd80      	pop	{r7, pc}

08003d0e <_close>:

int _close(int file)
{
 8003d0e:	b480      	push	{r7}
 8003d10:	b083      	sub	sp, #12
 8003d12:	af00      	add	r7, sp, #0
 8003d14:	6078      	str	r0, [r7, #4]
  (void)file;
  return -1;
 8003d16:	f04f 33ff 	mov.w	r3, #4294967295
}
 8003d1a:	4618      	mov	r0, r3
 8003d1c:	370c      	adds	r7, #12
 8003d1e:	46bd      	mov	sp, r7
 8003d20:	f85d 7b04 	ldr.w	r7, [sp], #4
 8003d24:	4770      	bx	lr

08003d26 <_fstat>:


int _fstat(int file, struct stat *st)
{
 8003d26:	b480      	push	{r7}
 8003d28:	b083      	sub	sp, #12
 8003d2a:	af00      	add	r7, sp, #0
 8003d2c:	6078      	str	r0, [r7, #4]
 8003d2e:	6039      	str	r1, [r7, #0]
  (void)file;
  st->st_mode = S_IFCHR;
 8003d30:	683b      	ldr	r3, [r7, #0]
 8003d32:	f44f 5200 	mov.w	r2, #8192	@ 0x2000
 8003d36:	605a      	str	r2, [r3, #4]
  return 0;
 8003d38:	2300      	movs	r3, #0
}
 8003d3a:	4618      	mov	r0, r3
 8003d3c:	370c      	adds	r7, #12
 8003d3e:	46bd      	mov	sp, r7
 8003d40:	f85d 7b04 	ldr.w	r7, [sp], #4
 8003d44:	4770      	bx	lr

08003d46 <_isatty>:

int _isatty(int file)
{
 8003d46:	b480      	push	{r7}
 8003d48:	b083      	sub	sp, #12
 8003d4a:	af00      	add	r7, sp, #0
 8003d4c:	6078      	str	r0, [r7, #4]
  (void)file;
  return 1;
 8003d4e:	2301      	movs	r3, #1
}
 8003d50:	4618      	mov	r0, r3
 8003d52:	370c      	adds	r7, #12
 8003d54:	46bd      	mov	sp, r7
 8003d56:	f85d 7b04 	ldr.w	r7, [sp], #4
 8003d5a:	4770      	bx	lr

08003d5c <_lseek>:

int _lseek(int file, int ptr, int dir)
{
 8003d5c:	b480      	push	{r7}
 8003d5e:	b085      	sub	sp, #20
 8003d60:	af00      	add	r7, sp, #0
 8003d62:	60f8      	str	r0, [r7, #12]
 8003d64:	60b9      	str	r1, [r7, #8]
 8003d66:	607a      	str	r2, [r7, #4]
  (void)file;
  (void)ptr;
  (void)dir;
  return 0;
 8003d68:	2300      	movs	r3, #0
}
 8003d6a:	4618      	mov	r0, r3
 8003d6c:	3714      	adds	r7, #20
 8003d6e:	46bd      	mov	sp, r7
 8003d70:	f85d 7b04 	ldr.w	r7, [sp], #4
 8003d74:	4770      	bx	lr
	...

08003d78 <_sbrk>:
 *
 * @param incr Memory size
 * @return Pointer to allocated memory
 */
void *_sbrk(ptrdiff_t incr)
{
 8003d78:	b580      	push	{r7, lr}
 8003d7a:	b086      	sub	sp, #24
 8003d7c:	af00      	add	r7, sp, #0
 8003d7e:	6078      	str	r0, [r7, #4]
  extern uint8_t _end; /* Symbol defined in the linker script */
  extern uint8_t _estack; /* Symbol defined in the linker script */
  extern uint32_t _Min_Stack_Size; /* Symbol defined in the linker script */
  const uint32_t stack_limit = (uint32_t)&_estack - (uint32_t)&_Min_Stack_Size;
 8003d80:	4a14      	ldr	r2, [pc, #80]	@ (8003dd4 <_sbrk+0x5c>)
 8003d82:	4b15      	ldr	r3, [pc, #84]	@ (8003dd8 <_sbrk+0x60>)
 8003d84:	1ad3      	subs	r3, r2, r3
 8003d86:	617b      	str	r3, [r7, #20]
  const uint8_t *max_heap = (uint8_t *)stack_limit;
 8003d88:	697b      	ldr	r3, [r7, #20]
 8003d8a:	613b      	str	r3, [r7, #16]
  uint8_t *prev_heap_end;

  /* Initialize heap end at first call */
  if (NULL == __sbrk_heap_end)
 8003d8c:	4b13      	ldr	r3, [pc, #76]	@ (8003ddc <_sbrk+0x64>)
 8003d8e:	681b      	ldr	r3, [r3, #0]
 8003d90:	2b00      	cmp	r3, #0
 8003d92:	d102      	bne.n	8003d9a <_sbrk+0x22>
  {
    __sbrk_heap_end = &_end;
 8003d94:	4b11      	ldr	r3, [pc, #68]	@ (8003ddc <_sbrk+0x64>)
 8003d96:	4a12      	ldr	r2, [pc, #72]	@ (8003de0 <_sbrk+0x68>)
 8003d98:	601a      	str	r2, [r3, #0]
  }

  /* Protect heap from growing into the reserved MSP stack */
  if (__sbrk_heap_end + incr > max_heap)
 8003d9a:	4b10      	ldr	r3, [pc, #64]	@ (8003ddc <_sbrk+0x64>)
 8003d9c:	681a      	ldr	r2, [r3, #0]
 8003d9e:	687b      	ldr	r3, [r7, #4]
 8003da0:	4413      	add	r3, r2
 8003da2:	693a      	ldr	r2, [r7, #16]
 8003da4:	429a      	cmp	r2, r3
 8003da6:	d207      	bcs.n	8003db8 <_sbrk+0x40>
  {
    errno = ENOMEM;
 8003da8:	f003 fcf8 	bl	800779c <__errno>
 8003dac:	4603      	mov	r3, r0
 8003dae:	220c      	movs	r2, #12
 8003db0:	601a      	str	r2, [r3, #0]
    return (void *)-1;
 8003db2:	f04f 33ff 	mov.w	r3, #4294967295
 8003db6:	e009      	b.n	8003dcc <_sbrk+0x54>
  }

  prev_heap_end = __sbrk_heap_end;
 8003db8:	4b08      	ldr	r3, [pc, #32]	@ (8003ddc <_sbrk+0x64>)
 8003dba:	681b      	ldr	r3, [r3, #0]
 8003dbc:	60fb      	str	r3, [r7, #12]
  __sbrk_heap_end += incr;
 8003dbe:	4b07      	ldr	r3, [pc, #28]	@ (8003ddc <_sbrk+0x64>)
 8003dc0:	681a      	ldr	r2, [r3, #0]
 8003dc2:	687b      	ldr	r3, [r7, #4]
 8003dc4:	4413      	add	r3, r2
 8003dc6:	4a05      	ldr	r2, [pc, #20]	@ (8003ddc <_sbrk+0x64>)
 8003dc8:	6013      	str	r3, [r2, #0]

  return (void *)prev_heap_end;
 8003dca:	68fb      	ldr	r3, [r7, #12]
}
 8003dcc:	4618      	mov	r0, r3
 8003dce:	3718      	adds	r7, #24
 8003dd0:	46bd      	mov	sp, r7
 8003dd2:	bd80      	pop	{r7, pc}
 8003dd4:	20020000 	.word	0x20020000
 8003dd8:	00000400 	.word	0x00000400
 8003ddc:	20000484 	.word	0x20000484
 8003de0:	200005d8 	.word	0x200005d8

08003de4 <SystemInit>:
  *         configuration.
  * @param  None
  * @retval None
  */
void SystemInit(void)
{
 8003de4:	b480      	push	{r7}
 8003de6:	af00      	add	r7, sp, #0
  /* FPU settings ------------------------------------------------------------*/
  #if (__FPU_PRESENT == 1) && (__FPU_USED == 1)
    SCB->CPACR |= ((3UL << 10*2)|(3UL << 11*2));  /* set CP10 and CP11 Full Access */
 8003de8:	4b06      	ldr	r3, [pc, #24]	@ (8003e04 <SystemInit+0x20>)
 8003dea:	f8d3 3088 	ldr.w	r3, [r3, #136]	@ 0x88
 8003dee:	4a05      	ldr	r2, [pc, #20]	@ (8003e04 <SystemInit+0x20>)
 8003df0:	f443 0370 	orr.w	r3, r3, #15728640	@ 0xf00000
 8003df4:	f8c2 3088 	str.w	r3, [r2, #136]	@ 0x88

  /* Configure the Vector Table location -------------------------------------*/
#if defined(USER_VECT_TAB_ADDRESS)
  SCB->VTOR = VECT_TAB_BASE_ADDRESS | VECT_TAB_OFFSET; /* Vector Table Relocation in Internal SRAM */
#endif /* USER_VECT_TAB_ADDRESS */
}
 8003df8:	bf00      	nop
 8003dfa:	46bd      	mov	sp, r7
 8003dfc:	f85d 7b04 	ldr.w	r7, [sp], #4
 8003e00:	4770      	bx	lr
 8003e02:	bf00      	nop
 8003e04:	e000ed00 	.word	0xe000ed00

08003e08 <Reset_Handler>:

    .section  .text.Reset_Handler
  .weak  Reset_Handler
  .type  Reset_Handler, %function
Reset_Handler:  
  ldr   sp, =_estack      /* set stack pointer */
 8003e08:	f8df d034 	ldr.w	sp, [pc, #52]	@ 8003e40 <LoopFillZerobss+0xe>
  
/* Call the clock system initialization function.*/
  bl  SystemInit  
 8003e0c:	f7ff ffea 	bl	8003de4 <SystemInit>

/* Copy the data segment initializers from flash to SRAM */  
  ldr r0, =_sdata
 8003e10:	480c      	ldr	r0, [pc, #48]	@ (8003e44 <LoopFillZerobss+0x12>)
  ldr r1, =_edata
 8003e12:	490d      	ldr	r1, [pc, #52]	@ (8003e48 <LoopFillZerobss+0x16>)
  ldr r2, =_sidata
 8003e14:	4a0d      	ldr	r2, [pc, #52]	@ (8003e4c <LoopFillZerobss+0x1a>)
  movs r3, #0
 8003e16:	2300      	movs	r3, #0
  b LoopCopyDataInit
 8003e18:	e002      	b.n	8003e20 <LoopCopyDataInit>

08003e1a <CopyDataInit>:

CopyDataInit:
  ldr r4, [r2, r3]
 8003e1a:	58d4      	ldr	r4, [r2, r3]
  str r4, [r0, r3]
 8003e1c:	50c4      	str	r4, [r0, r3]
  adds r3, r3, #4
 8003e1e:	3304      	adds	r3, #4

08003e20 <LoopCopyDataInit>:

LoopCopyDataInit:
  adds r4, r0, r3
 8003e20:	18c4      	adds	r4, r0, r3
  cmp r4, r1
 8003e22:	428c      	cmp	r4, r1
  bcc CopyDataInit
 8003e24:	d3f9      	bcc.n	8003e1a <CopyDataInit>
  
/* Zero fill the bss segment. */
  ldr r2, =_sbss
 8003e26:	4a0a      	ldr	r2, [pc, #40]	@ (8003e50 <LoopFillZerobss+0x1e>)
  ldr r4, =_ebss
 8003e28:	4c0a      	ldr	r4, [pc, #40]	@ (8003e54 <LoopFillZerobss+0x22>)
  movs r3, #0
 8003e2a:	2300      	movs	r3, #0
  b LoopFillZerobss
 8003e2c:	e001      	b.n	8003e32 <LoopFillZerobss>

08003e2e <FillZerobss>:

FillZerobss:
  str  r3, [r2]
 8003e2e:	6013      	str	r3, [r2, #0]
  adds r2, r2, #4
 8003e30:	3204      	adds	r2, #4

08003e32 <LoopFillZerobss>:

LoopFillZerobss:
  cmp r2, r4
 8003e32:	42a2      	cmp	r2, r4
  bcc FillZerobss
 8003e34:	d3fb      	bcc.n	8003e2e <FillZerobss>
  
/* Call static constructors */
    bl __libc_init_array
 8003e36:	f003 fcb7 	bl	80077a8 <__libc_init_array>
/* Call the application's entry point.*/
  bl  main
 8003e3a:	f7fe ff8b 	bl	8002d54 <main>
  bx  lr    
 8003e3e:	4770      	bx	lr
  ldr   sp, =_estack      /* set stack pointer */
 8003e40:	20020000 	.word	0x20020000
  ldr r0, =_sdata
 8003e44:	20000000 	.word	0x20000000
  ldr r1, =_edata
 8003e48:	20000068 	.word	0x20000068
  ldr r2, =_sidata
 8003e4c:	08008800 	.word	0x08008800
  ldr r2, =_sbss
 8003e50:	20000068 	.word	0x20000068
  ldr r4, =_ebss
 8003e54:	200005d8 	.word	0x200005d8

08003e58 <ADC_IRQHandler>:
 * @retval None       
*/
    .section  .text.Default_Handler,"ax",%progbits
Default_Handler:
Infinite_Loop:
  b  Infinite_Loop
 8003e58:	e7fe      	b.n	8003e58 <ADC_IRQHandler>
	...

08003e5c <HAL_Init>:
  *         need to ensure that the SysTick time base is always set to 1 millisecond
  *         to have correct HAL operation.
  * @retval HAL status
  */
HAL_StatusTypeDef HAL_Init(void)
{
 8003e5c:	b580      	push	{r7, lr}
 8003e5e:	af00      	add	r7, sp, #0
  /* Configure Flash prefetch, Instruction cache, Data cache */ 
#if (INSTRUCTION_CACHE_ENABLE != 0U)
  __HAL_FLASH_INSTRUCTION_CACHE_ENABLE();
 8003e60:	4b0e      	ldr	r3, [pc, #56]	@ (8003e9c <HAL_Init+0x40>)
 8003e62:	681b      	ldr	r3, [r3, #0]
 8003e64:	4a0d      	ldr	r2, [pc, #52]	@ (8003e9c <HAL_Init+0x40>)
 8003e66:	f443 7300 	orr.w	r3, r3, #512	@ 0x200
 8003e6a:	6013      	str	r3, [r2, #0]
#endif /* INSTRUCTION_CACHE_ENABLE */

#if (DATA_CACHE_ENABLE != 0U)
  __HAL_FLASH_DATA_CACHE_ENABLE();
 8003e6c:	4b0b      	ldr	r3, [pc, #44]	@ (8003e9c <HAL_Init+0x40>)
 8003e6e:	681b      	ldr	r3, [r3, #0]
 8003e70:	4a0a      	ldr	r2, [pc, #40]	@ (8003e9c <HAL_Init+0x40>)
 8003e72:	f443 6380 	orr.w	r3, r3, #1024	@ 0x400
 8003e76:	6013      	str	r3, [r2, #0]
#endif /* DATA_CACHE_ENABLE */

#if (PREFETCH_ENABLE != 0U)
  __HAL_FLASH_PREFETCH_BUFFER_ENABLE();
 8003e78:	4b08      	ldr	r3, [pc, #32]	@ (8003e9c <HAL_Init+0x40>)
 8003e7a:	681b      	ldr	r3, [r3, #0]
 8003e7c:	4a07      	ldr	r2, [pc, #28]	@ (8003e9c <HAL_Init+0x40>)
 8003e7e:	f443 7380 	orr.w	r3, r3, #256	@ 0x100
 8003e82:	6013      	str	r3, [r2, #0]
#endif /* PREFETCH_ENABLE */

  /* Set Interrupt Group Priority */
  HAL_NVIC_SetPriorityGrouping(NVIC_PRIORITYGROUP_4);
 8003e84:	2003      	movs	r0, #3
 8003e86:	f000 f8fc 	bl	8004082 <HAL_NVIC_SetPriorityGrouping>

  /* Use systick as time base source and configure 1ms tick (default clock after Reset is HSI) */
  HAL_InitTick(TICK_INT_PRIORITY);
 8003e8a:	200f      	movs	r0, #15
 8003e8c:	f7ff fe3c 	bl	8003b08 <HAL_InitTick>

  /* Init the low level hardware */
  HAL_MspInit();
 8003e90:	f7ff fcac 	bl	80037ec <HAL_MspInit>

  /* Return function status */
  return HAL_OK;
 8003e94:	2300      	movs	r3, #0
}
 8003e96:	4618      	mov	r0, r3
 8003e98:	bd80      	pop	{r7, pc}
 8003e9a:	bf00      	nop
 8003e9c:	40023c00 	.word	0x40023c00

08003ea0 <HAL_IncTick>:
 * @note This function is declared as __weak to be overwritten in case of other 
  *      implementations in user file.
  * @retval None
  */
__weak void HAL_IncTick(void)
{
 8003ea0:	b480      	push	{r7}
 8003ea2:	af00      	add	r7, sp, #0
  uwTick += uwTickFreq;
 8003ea4:	4b06      	ldr	r3, [pc, #24]	@ (8003ec0 <HAL_IncTick+0x20>)
 8003ea6:	781b      	ldrb	r3, [r3, #0]
 8003ea8:	461a      	mov	r2, r3
 8003eaa:	4b06      	ldr	r3, [pc, #24]	@ (8003ec4 <HAL_IncTick+0x24>)
 8003eac:	681b      	ldr	r3, [r3, #0]
 8003eae:	4413      	add	r3, r2
 8003eb0:	4a04      	ldr	r2, [pc, #16]	@ (8003ec4 <HAL_IncTick+0x24>)
 8003eb2:	6013      	str	r3, [r2, #0]
}
 8003eb4:	bf00      	nop
 8003eb6:	46bd      	mov	sp, r7
 8003eb8:	f85d 7b04 	ldr.w	r7, [sp], #4
 8003ebc:	4770      	bx	lr
 8003ebe:	bf00      	nop
 8003ec0:	20000008 	.word	0x20000008
 8003ec4:	20000488 	.word	0x20000488

08003ec8 <HAL_GetTick>:
  * @note This function is declared as __weak to be overwritten in case of other 
  *       implementations in user file.
  * @retval tick value
  */
__weak uint32_t HAL_GetTick(void)
{
 8003ec8:	b480      	push	{r7}
 8003eca:	af00      	add	r7, sp, #0
  return uwTick;
 8003ecc:	4b03      	ldr	r3, [pc, #12]	@ (8003edc <HAL_GetTick+0x14>)
 8003ece:	681b      	ldr	r3, [r3, #0]
}
 8003ed0:	4618      	mov	r0, r3
 8003ed2:	46bd      	mov	sp, r7
 8003ed4:	f85d 7b04 	ldr.w	r7, [sp], #4
 8003ed8:	4770      	bx	lr
 8003eda:	bf00      	nop
 8003edc:	20000488 	.word	0x20000488

08003ee0 <HAL_Delay>:
  *       implementations in user file.
  * @param Delay specifies the delay time length, in milliseconds.
  * @retval None
  */
__weak void HAL_Delay(uint32_t Delay)
{
 8003ee0:	b580      	push	{r7, lr}
 8003ee2:	b084      	sub	sp, #16
 8003ee4:	af00      	add	r7, sp, #0
 8003ee6:	6078      	str	r0, [r7, #4]
  uint32_t tickstart = HAL_GetTick();
 8003ee8:	f7ff ffee 	bl	8003ec8 <HAL_GetTick>
 8003eec:	60b8      	str	r0, [r7, #8]
  uint32_t wait = Delay;
 8003eee:	687b      	ldr	r3, [r7, #4]
 8003ef0:	60fb      	str	r3, [r7, #12]

  /* Add a freq to guarantee minimum wait */
  if (wait < HAL_MAX_DELAY)
 8003ef2:	68fb      	ldr	r3, [r7, #12]
 8003ef4:	f1b3 3fff 	cmp.w	r3, #4294967295
 8003ef8:	d005      	beq.n	8003f06 <HAL_Delay+0x26>
  {
    wait += (uint32_t)(uwTickFreq);
 8003efa:	4b0a      	ldr	r3, [pc, #40]	@ (8003f24 <HAL_Delay+0x44>)
 8003efc:	781b      	ldrb	r3, [r3, #0]
 8003efe:	461a      	mov	r2, r3
 8003f00:	68fb      	ldr	r3, [r7, #12]
 8003f02:	4413      	add	r3, r2
 8003f04:	60fb      	str	r3, [r7, #12]
  }

  while((HAL_GetTick() - tickstart) < wait)
 8003f06:	bf00      	nop
 8003f08:	f7ff ffde 	bl	8003ec8 <HAL_GetTick>
 8003f0c:	4602      	mov	r2, r0
 8003f0e:	68bb      	ldr	r3, [r7, #8]
 8003f10:	1ad3      	subs	r3, r2, r3
 8003f12:	68fa      	ldr	r2, [r7, #12]
 8003f14:	429a      	cmp	r2, r3
 8003f16:	d8f7      	bhi.n	8003f08 <HAL_Delay+0x28>
  {
  }
}
 8003f18:	bf00      	nop
 8003f1a:	bf00      	nop
 8003f1c:	3710      	adds	r7, #16
 8003f1e:	46bd      	mov	sp, r7
 8003f20:	bd80      	pop	{r7, pc}
 8003f22:	bf00      	nop
 8003f24:	20000008 	.word	0x20000008

08003f28 <__NVIC_SetPriorityGrouping>:
           In case of a conflict between priority grouping and available
           priority bits (__NVIC_PRIO_BITS), the smallest possible priority group is set.
  \param [in]      PriorityGroup  Priority grouping field.
 */
__STATIC_INLINE void __NVIC_SetPriorityGrouping(uint32_t PriorityGroup)
{
 8003f28:	b480      	push	{r7}
 8003f2a:	b085      	sub	sp, #20
 8003f2c:	af00      	add	r7, sp, #0
 8003f2e:	6078      	str	r0, [r7, #4]
  uint32_t reg_value;
  uint32_t PriorityGroupTmp = (PriorityGroup & (uint32_t)0x07UL);             /* only values 0..7 are used          */
 8003f30:	687b      	ldr	r3, [r7, #4]
 8003f32:	f003 0307 	and.w	r3, r3, #7
 8003f36:	60fb      	str	r3, [r7, #12]

  reg_value  =  SCB->AIRCR;                                                   /* read old register configuration    */
 8003f38:	4b0c      	ldr	r3, [pc, #48]	@ (8003f6c <__NVIC_SetPriorityGrouping+0x44>)
 8003f3a:	68db      	ldr	r3, [r3, #12]
 8003f3c:	60bb      	str	r3, [r7, #8]
  reg_value &= ~((uint32_t)(SCB_AIRCR_VECTKEY_Msk | SCB_AIRCR_PRIGROUP_Msk)); /* clear bits to change               */
 8003f3e:	68ba      	ldr	r2, [r7, #8]
 8003f40:	f64f 03ff 	movw	r3, #63743	@ 0xf8ff
 8003f44:	4013      	ands	r3, r2
 8003f46:	60bb      	str	r3, [r7, #8]
  reg_value  =  (reg_value                                   |
                ((uint32_t)0x5FAUL << SCB_AIRCR_VECTKEY_Pos) |
                (PriorityGroupTmp << SCB_AIRCR_PRIGROUP_Pos)  );              /* Insert write key and priority group */
 8003f48:	68fb      	ldr	r3, [r7, #12]
 8003f4a:	021a      	lsls	r2, r3, #8
                ((uint32_t)0x5FAUL << SCB_AIRCR_VECTKEY_Pos) |
 8003f4c:	68bb      	ldr	r3, [r7, #8]
 8003f4e:	4313      	orrs	r3, r2
  reg_value  =  (reg_value                                   |
 8003f50:	f043 63bf 	orr.w	r3, r3, #100139008	@ 0x5f80000
 8003f54:	f443 3300 	orr.w	r3, r3, #131072	@ 0x20000
 8003f58:	60bb      	str	r3, [r7, #8]
  SCB->AIRCR =  reg_value;
 8003f5a:	4a04      	ldr	r2, [pc, #16]	@ (8003f6c <__NVIC_SetPriorityGrouping+0x44>)
 8003f5c:	68bb      	ldr	r3, [r7, #8]
 8003f5e:	60d3      	str	r3, [r2, #12]
}
 8003f60:	bf00      	nop
 8003f62:	3714      	adds	r7, #20
 8003f64:	46bd      	mov	sp, r7
 8003f66:	f85d 7b04 	ldr.w	r7, [sp], #4
 8003f6a:	4770      	bx	lr
 8003f6c:	e000ed00 	.word	0xe000ed00

08003f70 <__NVIC_GetPriorityGrouping>:
  \brief   Get Priority Grouping
  \details Reads the priority grouping field from the NVIC Interrupt Controller.
  \return                Priority grouping field (SCB->AIRCR [10:8] PRIGROUP field).
 */
__STATIC_INLINE uint32_t __NVIC_GetPriorityGrouping(void)
{
 8003f70:	b480      	push	{r7}
 8003f72:	af00      	add	r7, sp, #0
  return ((uint32_t)((SCB->AIRCR & SCB_AIRCR_PRIGROUP_Msk) >> SCB_AIRCR_PRIGROUP_Pos));
 8003f74:	4b04      	ldr	r3, [pc, #16]	@ (8003f88 <__NVIC_GetPriorityGrouping+0x18>)
 8003f76:	68db      	ldr	r3, [r3, #12]
 8003f78:	0a1b      	lsrs	r3, r3, #8
 8003f7a:	f003 0307 	and.w	r3, r3, #7
}
 8003f7e:	4618      	mov	r0, r3
 8003f80:	46bd      	mov	sp, r7
 8003f82:	f85d 7b04 	ldr.w	r7, [sp], #4
 8003f86:	4770      	bx	lr
 8003f88:	e000ed00 	.word	0xe000ed00

08003f8c <__NVIC_EnableIRQ>:
  \details Enables a device specific interrupt in the NVIC interrupt controller.
  \param [in]      IRQn  Device specific interrupt number.
  \note    IRQn must not be negative.
 */
__STATIC_INLINE void __NVIC_EnableIRQ(IRQn_Type IRQn)
{
 8003f8c:	b480      	push	{r7}
 8003f8e:	b083      	sub	sp, #12
 8003f90:	af00      	add	r7, sp, #0
 8003f92:	4603      	mov	r3, r0
 8003f94:	71fb      	strb	r3, [r7, #7]
  if ((int32_t)(IRQn) >= 0)
 8003f96:	f997 3007 	ldrsb.w	r3, [r7, #7]
 8003f9a:	2b00      	cmp	r3, #0
 8003f9c:	db0b      	blt.n	8003fb6 <__NVIC_EnableIRQ+0x2a>
  {
    __COMPILER_BARRIER();
    NVIC->ISER[(((uint32_t)IRQn) >> 5UL)] = (uint32_t)(1UL << (((uint32_t)IRQn) & 0x1FUL));
 8003f9e:	79fb      	ldrb	r3, [r7, #7]
 8003fa0:	f003 021f 	and.w	r2, r3, #31
 8003fa4:	4907      	ldr	r1, [pc, #28]	@ (8003fc4 <__NVIC_EnableIRQ+0x38>)
 8003fa6:	f997 3007 	ldrsb.w	r3, [r7, #7]
 8003faa:	095b      	lsrs	r3, r3, #5
 8003fac:	2001      	movs	r0, #1
 8003fae:	fa00 f202 	lsl.w	r2, r0, r2
 8003fb2:	f841 2023 	str.w	r2, [r1, r3, lsl #2]
    __COMPILER_BARRIER();
  }
}
 8003fb6:	bf00      	nop
 8003fb8:	370c      	adds	r7, #12
 8003fba:	46bd      	mov	sp, r7
 8003fbc:	f85d 7b04 	ldr.w	r7, [sp], #4
 8003fc0:	4770      	bx	lr
 8003fc2:	bf00      	nop
 8003fc4:	e000e100 	.word	0xe000e100

08003fc8 <__NVIC_SetPriority>:
  \param [in]      IRQn  Interrupt number.
  \param [in]  priority  Priority to set.
  \note    The priority cannot be set for every processor exception.
 */
__STATIC_INLINE void __NVIC_SetPriority(IRQn_Type IRQn, uint32_t priority)
{
 8003fc8:	b480      	push	{r7}
 8003fca:	b083      	sub	sp, #12
 8003fcc:	af00      	add	r7, sp, #0
 8003fce:	4603      	mov	r3, r0
 8003fd0:	6039      	str	r1, [r7, #0]
 8003fd2:	71fb      	strb	r3, [r7, #7]
  if ((int32_t)(IRQn) >= 0)
 8003fd4:	f997 3007 	ldrsb.w	r3, [r7, #7]
 8003fd8:	2b00      	cmp	r3, #0
 8003fda:	db0a      	blt.n	8003ff2 <__NVIC_SetPriority+0x2a>
  {
    NVIC->IP[((uint32_t)IRQn)]               = (uint8_t)((priority << (8U - __NVIC_PRIO_BITS)) & (uint32_t)0xFFUL);
 8003fdc:	683b      	ldr	r3, [r7, #0]
 8003fde:	b2da      	uxtb	r2, r3
 8003fe0:	490c      	ldr	r1, [pc, #48]	@ (8004014 <__NVIC_SetPriority+0x4c>)
 8003fe2:	f997 3007 	ldrsb.w	r3, [r7, #7]
 8003fe6:	0112      	lsls	r2, r2, #4
 8003fe8:	b2d2      	uxtb	r2, r2
 8003fea:	440b      	add	r3, r1
 8003fec:	f883 2300 	strb.w	r2, [r3, #768]	@ 0x300
  }
  else
  {
    SCB->SHP[(((uint32_t)IRQn) & 0xFUL)-4UL] = (uint8_t)((priority << (8U - __NVIC_PRIO_BITS)) & (uint32_t)0xFFUL);
  }
}
 8003ff0:	e00a      	b.n	8004008 <__NVIC_SetPriority+0x40>
    SCB->SHP[(((uint32_t)IRQn) & 0xFUL)-4UL] = (uint8_t)((priority << (8U - __NVIC_PRIO_BITS)) & (uint32_t)0xFFUL);
 8003ff2:	683b      	ldr	r3, [r7, #0]
 8003ff4:	b2da      	uxtb	r2, r3
 8003ff6:	4908      	ldr	r1, [pc, #32]	@ (8004018 <__NVIC_SetPriority+0x50>)
 8003ff8:	79fb      	ldrb	r3, [r7, #7]
 8003ffa:	f003 030f 	and.w	r3, r3, #15
 8003ffe:	3b04      	subs	r3, #4
 8004000:	0112      	lsls	r2, r2, #4
 8004002:	b2d2      	uxtb	r2, r2
 8004004:	440b      	add	r3, r1
 8004006:	761a      	strb	r2, [r3, #24]
}
 8004008:	bf00      	nop
 800400a:	370c      	adds	r7, #12
 800400c:	46bd      	mov	sp, r7
 800400e:	f85d 7b04 	ldr.w	r7, [sp], #4
 8004012:	4770      	bx	lr
 8004014:	e000e100 	.word	0xe000e100
 8004018:	e000ed00 	.word	0xe000ed00

0800401c <NVIC_EncodePriority>:
  \param [in]   PreemptPriority  Preemptive priority value (starting from 0).
  \param [in]       SubPriority  Subpriority value (starting from 0).
  \return                        Encoded priority. Value can be used in the function \ref NVIC_SetPriority().
 */
__STATIC_INLINE uint32_t NVIC_EncodePriority (uint32_t PriorityGroup, uint32_t PreemptPriority, uint32_t SubPriority)
{
 800401c:	b480      	push	{r7}
 800401e:	b089      	sub	sp, #36	@ 0x24
 8004020:	af00      	add	r7, sp, #0
 8004022:	60f8      	str	r0, [r7, #12]
 8004024:	60b9      	str	r1, [r7, #8]
 8004026:	607a      	str	r2, [r7, #4]
  uint32_t PriorityGroupTmp = (PriorityGroup & (uint32_t)0x07UL);   /* only values 0..7 are used          */
 8004028:	68fb      	ldr	r3, [r7, #12]
 800402a:	f003 0307 	and.w	r3, r3, #7
 800402e:	61fb      	str	r3, [r7, #28]
  uint32_t PreemptPriorityBits;
  uint32_t SubPriorityBits;

  PreemptPriorityBits = ((7UL - PriorityGroupTmp) > (uint32_t)(__NVIC_PRIO_BITS)) ? (uint32_t)(__NVIC_PRIO_BITS) : (uint32_t)(7UL - PriorityGroupTmp);
 8004030:	69fb      	ldr	r3, [r7, #28]
 8004032:	f1c3 0307 	rsb	r3, r3, #7
 8004036:	2b04      	cmp	r3, #4
 8004038:	bf28      	it	cs
 800403a:	2304      	movcs	r3, #4
 800403c:	61bb      	str	r3, [r7, #24]
  SubPriorityBits     = ((PriorityGroupTmp + (uint32_t)(__NVIC_PRIO_BITS)) < (uint32_t)7UL) ? (uint32_t)0UL : (uint32_t)((PriorityGroupTmp - 7UL) + (uint32_t)(__NVIC_PRIO_BITS));
 800403e:	69fb      	ldr	r3, [r7, #28]
 8004040:	3304      	adds	r3, #4
 8004042:	2b06      	cmp	r3, #6
 8004044:	d902      	bls.n	800404c <NVIC_EncodePriority+0x30>
 8004046:	69fb      	ldr	r3, [r7, #28]
 8004048:	3b03      	subs	r3, #3
 800404a:	e000      	b.n	800404e <NVIC_EncodePriority+0x32>
 800404c:	2300      	movs	r3, #0
 800404e:	617b      	str	r3, [r7, #20]

  return (
           ((PreemptPriority & (uint32_t)((1UL << (PreemptPriorityBits)) - 1UL)) << SubPriorityBits) |
 8004050:	f04f 32ff 	mov.w	r2, #4294967295
 8004054:	69bb      	ldr	r3, [r7, #24]
 8004056:	fa02 f303 	lsl.w	r3, r2, r3
 800405a:	43da      	mvns	r2, r3
 800405c:	68bb      	ldr	r3, [r7, #8]
 800405e:	401a      	ands	r2, r3
 8004060:	697b      	ldr	r3, [r7, #20]
 8004062:	409a      	lsls	r2, r3
           ((SubPriority     & (uint32_t)((1UL << (SubPriorityBits    )) - 1UL)))
 8004064:	f04f 31ff 	mov.w	r1, #4294967295
 8004068:	697b      	ldr	r3, [r7, #20]
 800406a:	fa01 f303 	lsl.w	r3, r1, r3
 800406e:	43d9      	mvns	r1, r3
 8004070:	687b      	ldr	r3, [r7, #4]
 8004072:	400b      	ands	r3, r1
           ((PreemptPriority & (uint32_t)((1UL << (PreemptPriorityBits)) - 1UL)) << SubPriorityBits) |
 8004074:	4313      	orrs	r3, r2
         );
}
 8004076:	4618      	mov	r0, r3
 8004078:	3724      	adds	r7, #36	@ 0x24
 800407a:	46bd      	mov	sp, r7
 800407c:	f85d 7b04 	ldr.w	r7, [sp], #4
 8004080:	4770      	bx	lr

08004082 <HAL_NVIC_SetPriorityGrouping>:
  * @note   When the NVIC_PriorityGroup_0 is selected, IRQ preemption is no more possible. 
  *         The pending IRQ priority will be managed only by the subpriority. 
  * @retval None
  */
void HAL_NVIC_SetPriorityGrouping(uint32_t PriorityGroup)
{
 8004082:	b580      	push	{r7, lr}
 8004084:	b082      	sub	sp, #8
 8004086:	af00      	add	r7, sp, #0
 8004088:	6078      	str	r0, [r7, #4]
  /* Check the parameters */
  assert_param(IS_NVIC_PRIORITY_GROUP(PriorityGroup));
  
  /* Set the PRIGROUP[10:8] bits according to the PriorityGroup parameter value */
  NVIC_SetPriorityGrouping(PriorityGroup);
 800408a:	6878      	ldr	r0, [r7, #4]
 800408c:	f7ff ff4c 	bl	8003f28 <__NVIC_SetPriorityGrouping>
}
 8004090:	bf00      	nop
 8004092:	3708      	adds	r7, #8
 8004094:	46bd      	mov	sp, r7
 8004096:	bd80      	pop	{r7, pc}

08004098 <HAL_NVIC_SetPriority>:
  *         This parameter can be a value between 0 and 15
  *         A lower priority value indicates a higher priority.          
  * @retval None
  */
void HAL_NVIC_SetPriority(IRQn_Type IRQn, uint32_t PreemptPriority, uint32_t SubPriority)
{ 
 8004098:	b580      	push	{r7, lr}
 800409a:	b086      	sub	sp, #24
 800409c:	af00      	add	r7, sp, #0
 800409e:	4603      	mov	r3, r0
 80040a0:	60b9      	str	r1, [r7, #8]
 80040a2:	607a      	str	r2, [r7, #4]
 80040a4:	73fb      	strb	r3, [r7, #15]
  uint32_t prioritygroup = 0x00U;
 80040a6:	2300      	movs	r3, #0
 80040a8:	617b      	str	r3, [r7, #20]
  
  /* Check the parameters */
  assert_param(IS_NVIC_SUB_PRIORITY(SubPriority));
  assert_param(IS_NVIC_PREEMPTION_PRIORITY(PreemptPriority));
  
  prioritygroup = NVIC_GetPriorityGrouping();
 80040aa:	f7ff ff61 	bl	8003f70 <__NVIC_GetPriorityGrouping>
 80040ae:	6178      	str	r0, [r7, #20]
  
  NVIC_SetPriority(IRQn, NVIC_EncodePriority(prioritygroup, PreemptPriority, SubPriority));
 80040b0:	687a      	ldr	r2, [r7, #4]
 80040b2:	68b9      	ldr	r1, [r7, #8]
 80040b4:	6978      	ldr	r0, [r7, #20]
 80040b6:	f7ff ffb1 	bl	800401c <NVIC_EncodePriority>
 80040ba:	4602      	mov	r2, r0
 80040bc:	f997 300f 	ldrsb.w	r3, [r7, #15]
 80040c0:	4611      	mov	r1, r2
 80040c2:	4618      	mov	r0, r3
 80040c4:	f7ff ff80 	bl	8003fc8 <__NVIC_SetPriority>
}
 80040c8:	bf00      	nop
 80040ca:	3718      	adds	r7, #24
 80040cc:	46bd      	mov	sp, r7
 80040ce:	bd80      	pop	{r7, pc}

080040d0 <HAL_NVIC_EnableIRQ>:
  *         This parameter can be an enumerator of IRQn_Type enumeration
  *         (For the complete STM32 Devices IRQ Channels list, please refer to the appropriate CMSIS device file (stm32f4xxxx.h))
  * @retval None
  */
void HAL_NVIC_EnableIRQ(IRQn_Type IRQn)
{
 80040d0:	b580      	push	{r7, lr}
 80040d2:	b082      	sub	sp, #8
 80040d4:	af00      	add	r7, sp, #0
 80040d6:	4603      	mov	r3, r0
 80040d8:	71fb      	strb	r3, [r7, #7]
  /* Check the parameters */
  assert_param(IS_NVIC_DEVICE_IRQ(IRQn));
  
  /* Enable interrupt */
  NVIC_EnableIRQ(IRQn);
 80040da:	f997 3007 	ldrsb.w	r3, [r7, #7]
 80040de:	4618      	mov	r0, r3
 80040e0:	f7ff ff54 	bl	8003f8c <__NVIC_EnableIRQ>
}
 80040e4:	bf00      	nop
 80040e6:	3708      	adds	r7, #8
 80040e8:	46bd      	mov	sp, r7
 80040ea:	bd80      	pop	{r7, pc}

080040ec <HAL_DMA_Init>:
  * @param  hdma Pointer to a DMA_HandleTypeDef structure that contains
  *               the configuration information for the specified DMA Stream.  
  * @retval HAL status
  */
HAL_StatusTypeDef HAL_DMA_Init(DMA_HandleTypeDef *hdma)
{
 80040ec:	b580      	push	{r7, lr}
 80040ee:	b086      	sub	sp, #24
 80040f0:	af00      	add	r7, sp, #0
 80040f2:	6078      	str	r0, [r7, #4]
  uint32_t tmp = 0U;
 80040f4:	2300      	movs	r3, #0
 80040f6:	617b      	str	r3, [r7, #20]
  uint32_t tickstart = HAL_GetTick();
 80040f8:	f7ff fee6 	bl	8003ec8 <HAL_GetTick>
 80040fc:	6138      	str	r0, [r7, #16]
  DMA_Base_Registers *regs;

  /* Check the DMA peripheral state */
  if(hdma == NULL)
 80040fe:	687b      	ldr	r3, [r7, #4]
 8004100:	2b00      	cmp	r3, #0
 8004102:	d101      	bne.n	8004108 <HAL_DMA_Init+0x1c>
  {
    return HAL_ERROR;
 8004104:	2301      	movs	r3, #1
 8004106:	e099      	b.n	800423c <HAL_DMA_Init+0x150>
    assert_param(IS_DMA_MEMORY_BURST(hdma->Init.MemBurst));
    assert_param(IS_DMA_PERIPHERAL_BURST(hdma->Init.PeriphBurst));
  }

  /* Change DMA peripheral state */
  hdma->State = HAL_DMA_STATE_BUSY;
 8004108:	687b      	ldr	r3, [r7, #4]
 800410a:	2202      	movs	r2, #2
 800410c:	f883 2035 	strb.w	r2, [r3, #53]	@ 0x35

  /* Allocate lock resource */
  __HAL_UNLOCK(hdma);
 8004110:	687b      	ldr	r3, [r7, #4]
 8004112:	2200      	movs	r2, #0
 8004114:	f883 2034 	strb.w	r2, [r3, #52]	@ 0x34
  
  /* Disable the peripheral */
  __HAL_DMA_DISABLE(hdma);
 8004118:	687b      	ldr	r3, [r7, #4]
 800411a:	681b      	ldr	r3, [r3, #0]
 800411c:	681a      	ldr	r2, [r3, #0]
 800411e:	687b      	ldr	r3, [r7, #4]
 8004120:	681b      	ldr	r3, [r3, #0]
 8004122:	f022 0201 	bic.w	r2, r2, #1
 8004126:	601a      	str	r2, [r3, #0]
  
  /* Check if the DMA Stream is effectively disabled */
  while((hdma->Instance->CR & DMA_SxCR_EN) != RESET)
 8004128:	e00f      	b.n	800414a <HAL_DMA_Init+0x5e>
  {
    /* Check for the Timeout */
    if((HAL_GetTick() - tickstart ) > HAL_TIMEOUT_DMA_ABORT)
 800412a:	f7ff fecd 	bl	8003ec8 <HAL_GetTick>
 800412e:	4602      	mov	r2, r0
 8004130:	693b      	ldr	r3, [r7, #16]
 8004132:	1ad3      	subs	r3, r2, r3
 8004134:	2b05      	cmp	r3, #5
 8004136:	d908      	bls.n	800414a <HAL_DMA_Init+0x5e>
    {
      /* Update error code */
      hdma->ErrorCode = HAL_DMA_ERROR_TIMEOUT;
 8004138:	687b      	ldr	r3, [r7, #4]
 800413a:	2220      	movs	r2, #32
 800413c:	655a      	str	r2, [r3, #84]	@ 0x54
      
      /* Change the DMA state */
      hdma->State = HAL_DMA_STATE_TIMEOUT;
 800413e:	687b      	ldr	r3, [r7, #4]
 8004140:	2203      	movs	r2, #3
 8004142:	f883 2035 	strb.w	r2, [r3, #53]	@ 0x35
      
      return HAL_TIMEOUT;
 8004146:	2303      	movs	r3, #3
 8004148:	e078      	b.n	800423c <HAL_DMA_Init+0x150>
  while((hdma->Instance->CR & DMA_SxCR_EN) != RESET)
 800414a:	687b      	ldr	r3, [r7, #4]
 800414c:	681b      	ldr	r3, [r3, #0]
 800414e:	681b      	ldr	r3, [r3, #0]
 8004150:	f003 0301 	and.w	r3, r3, #1
 8004154:	2b00      	cmp	r3, #0
 8004156:	d1e8      	bne.n	800412a <HAL_DMA_Init+0x3e>
    }
  }
  
  /* Get the CR register value */
  tmp = hdma->Instance->CR;
 8004158:	687b      	ldr	r3, [r7, #4]
 800415a:	681b      	ldr	r3, [r3, #0]
 800415c:	681b      	ldr	r3, [r3, #0]
 800415e:	617b      	str	r3, [r7, #20]

  /* Clear CHSEL, MBURST, PBURST, PL, MSIZE, PSIZE, MINC, PINC, CIRC, DIR, CT and DBM bits */
  tmp &= ((uint32_t)~(DMA_SxCR_CHSEL | DMA_SxCR_MBURST | DMA_SxCR_PBURST | \
 8004160:	697a      	ldr	r2, [r7, #20]
 8004162:	4b38      	ldr	r3, [pc, #224]	@ (8004244 <HAL_DMA_Init+0x158>)
 8004164:	4013      	ands	r3, r2
 8004166:	617b      	str	r3, [r7, #20]
                      DMA_SxCR_PL    | DMA_SxCR_MSIZE  | DMA_SxCR_PSIZE  | \
                      DMA_SxCR_MINC  | DMA_SxCR_PINC   | DMA_SxCR_CIRC   | \
                      DMA_SxCR_DIR   | DMA_SxCR_CT     | DMA_SxCR_DBM));

  /* Prepare the DMA Stream configuration */
  tmp |=  hdma->Init.Channel             | hdma->Init.Direction        |
 8004168:	687b      	ldr	r3, [r7, #4]
 800416a:	685a      	ldr	r2, [r3, #4]
 800416c:	687b      	ldr	r3, [r7, #4]
 800416e:	689b      	ldr	r3, [r3, #8]
 8004170:	431a      	orrs	r2, r3
          hdma->Init.PeriphInc           | hdma->Init.MemInc           |
 8004172:	687b      	ldr	r3, [r7, #4]
 8004174:	68db      	ldr	r3, [r3, #12]
  tmp |=  hdma->Init.Channel             | hdma->Init.Direction        |
 8004176:	431a      	orrs	r2, r3
          hdma->Init.PeriphInc           | hdma->Init.MemInc           |
 8004178:	687b      	ldr	r3, [r7, #4]
 800417a:	691b      	ldr	r3, [r3, #16]
 800417c:	431a      	orrs	r2, r3
          hdma->Init.PeriphDataAlignment | hdma->Init.MemDataAlignment |
 800417e:	687b      	ldr	r3, [r7, #4]
 8004180:	695b      	ldr	r3, [r3, #20]
          hdma->Init.PeriphInc           | hdma->Init.MemInc           |
 8004182:	431a      	orrs	r2, r3
          hdma->Init.PeriphDataAlignment | hdma->Init.MemDataAlignment |
 8004184:	687b      	ldr	r3, [r7, #4]
 8004186:	699b      	ldr	r3, [r3, #24]
 8004188:	431a      	orrs	r2, r3
          hdma->Init.Mode                | hdma->Init.Priority;
 800418a:	687b      	ldr	r3, [r7, #4]
 800418c:	69db      	ldr	r3, [r3, #28]
          hdma->Init.PeriphDataAlignment | hdma->Init.MemDataAlignment |
 800418e:	431a      	orrs	r2, r3
          hdma->Init.Mode                | hdma->Init.Priority;
 8004190:	687b      	ldr	r3, [r7, #4]
 8004192:	6a1b      	ldr	r3, [r3, #32]
 8004194:	4313      	orrs	r3, r2
  tmp |=  hdma->Init.Channel             | hdma->Init.Direction        |
 8004196:	697a      	ldr	r2, [r7, #20]
 8004198:	4313      	orrs	r3, r2
 800419a:	617b      	str	r3, [r7, #20]

  /* the Memory burst and peripheral burst are not used when the FIFO is disabled */
  if(hdma->Init.FIFOMode == DMA_FIFOMODE_ENABLE)
 800419c:	687b      	ldr	r3, [r7, #4]
 800419e:	6a5b      	ldr	r3, [r3, #36]	@ 0x24
 80041a0:	2b04      	cmp	r3, #4
 80041a2:	d107      	bne.n	80041b4 <HAL_DMA_Init+0xc8>
  {
    /* Get memory burst and peripheral burst */
    tmp |=  hdma->Init.MemBurst | hdma->Init.PeriphBurst;
 80041a4:	687b      	ldr	r3, [r7, #4]
 80041a6:	6ada      	ldr	r2, [r3, #44]	@ 0x2c
 80041a8:	687b      	ldr	r3, [r7, #4]
 80041aa:	6b1b      	ldr	r3, [r3, #48]	@ 0x30
 80041ac:	4313      	orrs	r3, r2
 80041ae:	697a      	ldr	r2, [r7, #20]
 80041b0:	4313      	orrs	r3, r2
 80041b2:	617b      	str	r3, [r7, #20]
  }
  
  /* Write to DMA Stream CR register */
  hdma->Instance->CR = tmp;  
 80041b4:	687b      	ldr	r3, [r7, #4]
 80041b6:	681b      	ldr	r3, [r3, #0]
 80041b8:	697a      	ldr	r2, [r7, #20]
 80041ba:	601a      	str	r2, [r3, #0]

  /* Get the FCR register value */
  tmp = hdma->Instance->FCR;
 80041bc:	687b      	ldr	r3, [r7, #4]
 80041be:	681b      	ldr	r3, [r3, #0]
 80041c0:	695b      	ldr	r3, [r3, #20]
 80041c2:	617b      	str	r3, [r7, #20]

  /* Clear Direct mode and FIFO threshold bits */
  tmp &= (uint32_t)~(DMA_SxFCR_DMDIS | DMA_SxFCR_FTH);
 80041c4:	697b      	ldr	r3, [r7, #20]
 80041c6:	f023 0307 	bic.w	r3, r3, #7
 80041ca:	617b      	str	r3, [r7, #20]

  /* Prepare the DMA Stream FIFO configuration */
  tmp |= hdma->Init.FIFOMode;
 80041cc:	687b      	ldr	r3, [r7, #4]
 80041ce:	6a5b      	ldr	r3, [r3, #36]	@ 0x24
 80041d0:	697a      	ldr	r2, [r7, #20]
 80041d2:	4313      	orrs	r3, r2
 80041d4:	617b      	str	r3, [r7, #20]

  /* The FIFO threshold is not used when the FIFO mode is disabled */
  if(hdma->Init.FIFOMode == DMA_FIFOMODE_ENABLE)
 80041d6:	687b      	ldr	r3, [r7, #4]
 80041d8:	6a5b      	ldr	r3, [r3, #36]	@ 0x24
 80041da:	2b04      	cmp	r3, #4
 80041dc:	d117      	bne.n	800420e <HAL_DMA_Init+0x122>
  {
    /* Get the FIFO threshold */
    tmp |= hdma->Init.FIFOThreshold;
 80041de:	687b      	ldr	r3, [r7, #4]
 80041e0:	6a9b      	ldr	r3, [r3, #40]	@ 0x28
 80041e2:	697a      	ldr	r2, [r7, #20]
 80041e4:	4313      	orrs	r3, r2
 80041e6:	617b      	str	r3, [r7, #20]
    
    /* Check compatibility between FIFO threshold level and size of the memory burst */
    /* for INCR4, INCR8, INCR16 bursts */
    if (hdma->Init.MemBurst != DMA_MBURST_SINGLE)
 80041e8:	687b      	ldr	r3, [r7, #4]
 80041ea:	6adb      	ldr	r3, [r3, #44]	@ 0x2c
 80041ec:	2b00      	cmp	r3, #0
 80041ee:	d00e      	beq.n	800420e <HAL_DMA_Init+0x122>
    {
      if (DMA_CheckFifoParam(hdma) != HAL_OK)
 80041f0:	6878      	ldr	r0, [r7, #4]
 80041f2:	f000 fb3d 	bl	8004870 <DMA_CheckFifoParam>
 80041f6:	4603      	mov	r3, r0
 80041f8:	2b00      	cmp	r3, #0
 80041fa:	d008      	beq.n	800420e <HAL_DMA_Init+0x122>
      {
        /* Update error code */
        hdma->ErrorCode = HAL_DMA_ERROR_PARAM;
 80041fc:	687b      	ldr	r3, [r7, #4]
 80041fe:	2240      	movs	r2, #64	@ 0x40
 8004200:	655a      	str	r2, [r3, #84]	@ 0x54
        
        /* Change the DMA state */
        hdma->State = HAL_DMA_STATE_READY;
 8004202:	687b      	ldr	r3, [r7, #4]
 8004204:	2201      	movs	r2, #1
 8004206:	f883 2035 	strb.w	r2, [r3, #53]	@ 0x35
        
        return HAL_ERROR; 
 800420a:	2301      	movs	r3, #1
 800420c:	e016      	b.n	800423c <HAL_DMA_Init+0x150>
      }
    }
  }
  
  /* Write to DMA Stream FCR */
  hdma->Instance->FCR = tmp;
 800420e:	687b      	ldr	r3, [r7, #4]
 8004210:	681b      	ldr	r3, [r3, #0]
 8004212:	697a      	ldr	r2, [r7, #20]
 8004214:	615a      	str	r2, [r3, #20]

  /* Initialize StreamBaseAddress and StreamIndex parameters to be used to calculate
     DMA steam Base Address needed by HAL_DMA_IRQHandler() and HAL_DMA_PollForTransfer() */
  regs = (DMA_Base_Registers *)DMA_CalcBaseAndBitshift(hdma);
 8004216:	6878      	ldr	r0, [r7, #4]
 8004218:	f000 faf4 	bl	8004804 <DMA_CalcBaseAndBitshift>
 800421c:	4603      	mov	r3, r0
 800421e:	60fb      	str	r3, [r7, #12]
  
  /* Clear all interrupt flags */
  regs->IFCR = 0x3FU << hdma->StreamIndex;
 8004220:	687b      	ldr	r3, [r7, #4]
 8004222:	6ddb      	ldr	r3, [r3, #92]	@ 0x5c
 8004224:	223f      	movs	r2, #63	@ 0x3f
 8004226:	409a      	lsls	r2, r3
 8004228:	68fb      	ldr	r3, [r7, #12]
 800422a:	609a      	str	r2, [r3, #8]

  /* Initialize the error code */
  hdma->ErrorCode = HAL_DMA_ERROR_NONE;
 800422c:	687b      	ldr	r3, [r7, #4]
 800422e:	2200      	movs	r2, #0
 8004230:	655a      	str	r2, [r3, #84]	@ 0x54
                                                                                     
  /* Initialize the DMA state */
  hdma->State = HAL_DMA_STATE_READY;
 8004232:	687b      	ldr	r3, [r7, #4]
 8004234:	2201      	movs	r2, #1
 8004236:	f883 2035 	strb.w	r2, [r3, #53]	@ 0x35

  return HAL_OK;
 800423a:	2300      	movs	r3, #0
}
 800423c:	4618      	mov	r0, r3
 800423e:	3718      	adds	r7, #24
 8004240:	46bd      	mov	sp, r7
 8004242:	bd80      	pop	{r7, pc}
 8004244:	f010803f 	.word	0xf010803f

08004248 <HAL_DMA_DeInit>:
  * @param  hdma pointer to a DMA_HandleTypeDef structure that contains
  *               the configuration information for the specified DMA Stream.  
  * @retval HAL status
  */
HAL_StatusTypeDef HAL_DMA_DeInit(DMA_HandleTypeDef *hdma)
{
 8004248:	b580      	push	{r7, lr}
 800424a:	b084      	sub	sp, #16
 800424c:	af00      	add	r7, sp, #0
 800424e:	6078      	str	r0, [r7, #4]
  DMA_Base_Registers *regs;

  /* Check the DMA peripheral state */
  if(hdma == NULL)
 8004250:	687b      	ldr	r3, [r7, #4]
 8004252:	2b00      	cmp	r3, #0
 8004254:	d101      	bne.n	800425a <HAL_DMA_DeInit+0x12>
  {
    return HAL_ERROR;
 8004256:	2301      	movs	r3, #1
 8004258:	e050      	b.n	80042fc <HAL_DMA_DeInit+0xb4>
  }
  
  /* Check the DMA peripheral state */
  if(hdma->State == HAL_DMA_STATE_BUSY)
 800425a:	687b      	ldr	r3, [r7, #4]
 800425c:	f893 3035 	ldrb.w	r3, [r3, #53]	@ 0x35
 8004260:	b2db      	uxtb	r3, r3
 8004262:	2b02      	cmp	r3, #2
 8004264:	d101      	bne.n	800426a <HAL_DMA_DeInit+0x22>
  {
    /* Return error status */
    return HAL_BUSY;
 8004266:	2302      	movs	r3, #2
 8004268:	e048      	b.n	80042fc <HAL_DMA_DeInit+0xb4>

  /* Check the parameters */
  assert_param(IS_DMA_STREAM_ALL_INSTANCE(hdma->Instance));

  /* Disable the selected DMA Streamx */
  __HAL_DMA_DISABLE(hdma);
 800426a:	687b      	ldr	r3, [r7, #4]
 800426c:	681b      	ldr	r3, [r3, #0]
 800426e:	681a      	ldr	r2, [r3, #0]
 8004270:	687b      	ldr	r3, [r7, #4]
 8004272:	681b      	ldr	r3, [r3, #0]
 8004274:	f022 0201 	bic.w	r2, r2, #1
 8004278:	601a      	str	r2, [r3, #0]

  /* Reset DMA Streamx control register */
  hdma->Instance->CR   = 0U;
 800427a:	687b      	ldr	r3, [r7, #4]
 800427c:	681b      	ldr	r3, [r3, #0]
 800427e:	2200      	movs	r2, #0
 8004280:	601a      	str	r2, [r3, #0]

  /* Reset DMA Streamx number of data to transfer register */
  hdma->Instance->NDTR = 0U;
 8004282:	687b      	ldr	r3, [r7, #4]
 8004284:	681b      	ldr	r3, [r3, #0]
 8004286:	2200      	movs	r2, #0
 8004288:	605a      	str	r2, [r3, #4]

  /* Reset DMA Streamx peripheral address register */
  hdma->Instance->PAR  = 0U;
 800428a:	687b      	ldr	r3, [r7, #4]
 800428c:	681b      	ldr	r3, [r3, #0]
 800428e:	2200      	movs	r2, #0
 8004290:	609a      	str	r2, [r3, #8]

  /* Reset DMA Streamx memory 0 address register */
  hdma->Instance->M0AR = 0U;
 8004292:	687b      	ldr	r3, [r7, #4]
 8004294:	681b      	ldr	r3, [r3, #0]
 8004296:	2200      	movs	r2, #0
 8004298:	60da      	str	r2, [r3, #12]
  
  /* Reset DMA Streamx memory 1 address register */
  hdma->Instance->M1AR = 0U;
 800429a:	687b      	ldr	r3, [r7, #4]
 800429c:	681b      	ldr	r3, [r3, #0]
 800429e:	2200      	movs	r2, #0
 80042a0:	611a      	str	r2, [r3, #16]
  
  /* Reset DMA Streamx FIFO control register */
  hdma->Instance->FCR  = 0x00000021U;
 80042a2:	687b      	ldr	r3, [r7, #4]
 80042a4:	681b      	ldr	r3, [r3, #0]
 80042a6:	2221      	movs	r2, #33	@ 0x21
 80042a8:	615a      	str	r2, [r3, #20]
  
  /* Get DMA steam Base Address */  
  regs = (DMA_Base_Registers *)DMA_CalcBaseAndBitshift(hdma);
 80042aa:	6878      	ldr	r0, [r7, #4]
 80042ac:	f000 faaa 	bl	8004804 <DMA_CalcBaseAndBitshift>
 80042b0:	4603      	mov	r3, r0
 80042b2:	60fb      	str	r3, [r7, #12]
  
  /* Clean all callbacks */
  hdma->XferCpltCallback = NULL;
 80042b4:	687b      	ldr	r3, [r7, #4]
 80042b6:	2200      	movs	r2, #0
 80042b8:	63da      	str	r2, [r3, #60]	@ 0x3c
  hdma->XferHalfCpltCallback = NULL;
 80042ba:	687b      	ldr	r3, [r7, #4]
 80042bc:	2200      	movs	r2, #0
 80042be:	641a      	str	r2, [r3, #64]	@ 0x40
  hdma->XferM1CpltCallback = NULL;
 80042c0:	687b      	ldr	r3, [r7, #4]
 80042c2:	2200      	movs	r2, #0
 80042c4:	645a      	str	r2, [r3, #68]	@ 0x44
  hdma->XferM1HalfCpltCallback = NULL;
 80042c6:	687b      	ldr	r3, [r7, #4]
 80042c8:	2200      	movs	r2, #0
 80042ca:	649a      	str	r2, [r3, #72]	@ 0x48
  hdma->XferErrorCallback = NULL;
 80042cc:	687b      	ldr	r3, [r7, #4]
 80042ce:	2200      	movs	r2, #0
 80042d0:	64da      	str	r2, [r3, #76]	@ 0x4c
  hdma->XferAbortCallback = NULL;
 80042d2:	687b      	ldr	r3, [r7, #4]
 80042d4:	2200      	movs	r2, #0
 80042d6:	651a      	str	r2, [r3, #80]	@ 0x50

  /* Clear all interrupt flags at correct offset within the register */
  regs->IFCR = 0x3FU << hdma->StreamIndex;
 80042d8:	687b      	ldr	r3, [r7, #4]
 80042da:	6ddb      	ldr	r3, [r3, #92]	@ 0x5c
 80042dc:	223f      	movs	r2, #63	@ 0x3f
 80042de:	409a      	lsls	r2, r3
 80042e0:	68fb      	ldr	r3, [r7, #12]
 80042e2:	609a      	str	r2, [r3, #8]

  /* Reset the error code */
  hdma->ErrorCode = HAL_DMA_ERROR_NONE;
 80042e4:	687b      	ldr	r3, [r7, #4]
 80042e6:	2200      	movs	r2, #0
 80042e8:	655a      	str	r2, [r3, #84]	@ 0x54

  /* Reset the DMA state */
  hdma->State = HAL_DMA_STATE_RESET;
 80042ea:	687b      	ldr	r3, [r7, #4]
 80042ec:	2200      	movs	r2, #0
 80042ee:	f883 2035 	strb.w	r2, [r3, #53]	@ 0x35

  /* Release Lock */
  __HAL_UNLOCK(hdma);
 80042f2:	687b      	ldr	r3, [r7, #4]
 80042f4:	2200      	movs	r2, #0
 80042f6:	f883 2034 	strb.w	r2, [r3, #52]	@ 0x34

  return HAL_OK;
 80042fa:	2300      	movs	r3, #0
}
 80042fc:	4618      	mov	r0, r3
 80042fe:	3710      	adds	r7, #16
 8004300:	46bd      	mov	sp, r7
 8004302:	bd80      	pop	{r7, pc}

08004304 <HAL_DMA_Start_IT>:
  * @param  DstAddress The destination memory Buffer address
  * @param  DataLength The length of data to be transferred from source to destination
  * @retval HAL status
  */
HAL_StatusTypeDef HAL_DMA_Start_IT(DMA_HandleTypeDef *hdma, uint32_t SrcAddress, uint32_t DstAddress, uint32_t DataLength)
{
 8004304:	b580      	push	{r7, lr}
 8004306:	b086      	sub	sp, #24
 8004308:	af00      	add	r7, sp, #0
 800430a:	60f8      	str	r0, [r7, #12]
 800430c:	60b9      	str	r1, [r7, #8]
 800430e:	607a      	str	r2, [r7, #4]
 8004310:	603b      	str	r3, [r7, #0]
  HAL_StatusTypeDef status = HAL_OK;
 8004312:	2300      	movs	r3, #0
 8004314:	75fb      	strb	r3, [r7, #23]

  /* calculate DMA base and stream number */
  DMA_Base_Registers *regs = (DMA_Base_Registers *)hdma->StreamBaseAddress;
 8004316:	68fb      	ldr	r3, [r7, #12]
 8004318:	6d9b      	ldr	r3, [r3, #88]	@ 0x58
 800431a:	613b      	str	r3, [r7, #16]
  
  /* Check the parameters */
  assert_param(IS_DMA_BUFFER_SIZE(DataLength));
 
  /* Process locked */
  __HAL_LOCK(hdma);
 800431c:	68fb      	ldr	r3, [r7, #12]
 800431e:	f893 3034 	ldrb.w	r3, [r3, #52]	@ 0x34
 8004322:	2b01      	cmp	r3, #1
 8004324:	d101      	bne.n	800432a <HAL_DMA_Start_IT+0x26>
 8004326:	2302      	movs	r3, #2
 8004328:	e040      	b.n	80043ac <HAL_DMA_Start_IT+0xa8>
 800432a:	68fb      	ldr	r3, [r7, #12]
 800432c:	2201      	movs	r2, #1
 800432e:	f883 2034 	strb.w	r2, [r3, #52]	@ 0x34
  
  if(HAL_DMA_STATE_READY == hdma->State)
 8004332:	68fb      	ldr	r3, [r7, #12]
 8004334:	f893 3035 	ldrb.w	r3, [r3, #53]	@ 0x35
 8004338:	b2db      	uxtb	r3, r3
 800433a:	2b01      	cmp	r3, #1
 800433c:	d12f      	bne.n	800439e <HAL_DMA_Start_IT+0x9a>
  {
    /* Change DMA peripheral state */
    hdma->State = HAL_DMA_STATE_BUSY;
 800433e:	68fb      	ldr	r3, [r7, #12]
 8004340:	2202      	movs	r2, #2
 8004342:	f883 2035 	strb.w	r2, [r3, #53]	@ 0x35
    
    /* Initialize the error code */
    hdma->ErrorCode = HAL_DMA_ERROR_NONE;
 8004346:	68fb      	ldr	r3, [r7, #12]
 8004348:	2200      	movs	r2, #0
 800434a:	655a      	str	r2, [r3, #84]	@ 0x54
    
    /* Configure the source, destination address and the data length */
    DMA_SetConfig(hdma, SrcAddress, DstAddress, DataLength);
 800434c:	683b      	ldr	r3, [r7, #0]
 800434e:	687a      	ldr	r2, [r7, #4]
 8004350:	68b9      	ldr	r1, [r7, #8]
 8004352:	68f8      	ldr	r0, [r7, #12]
 8004354:	f000 fa28 	bl	80047a8 <DMA_SetConfig>
    
    /* Clear all interrupt flags at correct offset within the register */
    regs->IFCR = 0x3FU << hdma->StreamIndex;
 8004358:	68fb      	ldr	r3, [r7, #12]
 800435a:	6ddb      	ldr	r3, [r3, #92]	@ 0x5c
 800435c:	223f      	movs	r2, #63	@ 0x3f
 800435e:	409a      	lsls	r2, r3
 8004360:	693b      	ldr	r3, [r7, #16]
 8004362:	609a      	str	r2, [r3, #8]
    
    /* Enable Common interrupts*/
    hdma->Instance->CR  |= DMA_IT_TC | DMA_IT_TE | DMA_IT_DME;
 8004364:	68fb      	ldr	r3, [r7, #12]
 8004366:	681b      	ldr	r3, [r3, #0]
 8004368:	681a      	ldr	r2, [r3, #0]
 800436a:	68fb      	ldr	r3, [r7, #12]
 800436c:	681b      	ldr	r3, [r3, #0]
 800436e:	f042 0216 	orr.w	r2, r2, #22
 8004372:	601a      	str	r2, [r3, #0]
    
    if(hdma->XferHalfCpltCallback != NULL)
 8004374:	68fb      	ldr	r3, [r7, #12]
 8004376:	6c1b      	ldr	r3, [r3, #64]	@ 0x40
 8004378:	2b00      	cmp	r3, #0
 800437a:	d007      	beq.n	800438c <HAL_DMA_Start_IT+0x88>
    {
      hdma->Instance->CR  |= DMA_IT_HT;
 800437c:	68fb      	ldr	r3, [r7, #12]
 800437e:	681b      	ldr	r3, [r3, #0]
 8004380:	681a      	ldr	r2, [r3, #0]
 8004382:	68fb      	ldr	r3, [r7, #12]
 8004384:	681b      	ldr	r3, [r3, #0]
 8004386:	f042 0208 	orr.w	r2, r2, #8
 800438a:	601a      	str	r2, [r3, #0]
    }
    
    /* Enable the Peripheral */
    __HAL_DMA_ENABLE(hdma);
 800438c:	68fb      	ldr	r3, [r7, #12]
 800438e:	681b      	ldr	r3, [r3, #0]
 8004390:	681a      	ldr	r2, [r3, #0]
 8004392:	68fb      	ldr	r3, [r7, #12]
 8004394:	681b      	ldr	r3, [r3, #0]
 8004396:	f042 0201 	orr.w	r2, r2, #1
 800439a:	601a      	str	r2, [r3, #0]
 800439c:	e005      	b.n	80043aa <HAL_DMA_Start_IT+0xa6>
  }
  else
  {
    /* Process unlocked */
    __HAL_UNLOCK(hdma);	  
 800439e:	68fb      	ldr	r3, [r7, #12]
 80043a0:	2200      	movs	r2, #0
 80043a2:	f883 2034 	strb.w	r2, [r3, #52]	@ 0x34
    
    /* Return error status */
    status = HAL_BUSY;
 80043a6:	2302      	movs	r3, #2
 80043a8:	75fb      	strb	r3, [r7, #23]
  }
  
  return status;
 80043aa:	7dfb      	ldrb	r3, [r7, #23]
}
 80043ac:	4618      	mov	r0, r3
 80043ae:	3718      	adds	r7, #24
 80043b0:	46bd      	mov	sp, r7
 80043b2:	bd80      	pop	{r7, pc}

080043b4 <HAL_DMA_Abort>:
  *        and the Stream will be effectively disabled only after the transfer of
  *        this single data is finished.  
  * @retval HAL status
  */
HAL_StatusTypeDef HAL_DMA_Abort(DMA_HandleTypeDef *hdma)
{
 80043b4:	b580      	push	{r7, lr}
 80043b6:	b084      	sub	sp, #16
 80043b8:	af00      	add	r7, sp, #0
 80043ba:	6078      	str	r0, [r7, #4]
  /* calculate DMA base and stream number */
  DMA_Base_Registers *regs = (DMA_Base_Registers *)hdma->StreamBaseAddress;
 80043bc:	687b      	ldr	r3, [r7, #4]
 80043be:	6d9b      	ldr	r3, [r3, #88]	@ 0x58
 80043c0:	60fb      	str	r3, [r7, #12]
  
  uint32_t tickstart = HAL_GetTick();
 80043c2:	f7ff fd81 	bl	8003ec8 <HAL_GetTick>
 80043c6:	60b8      	str	r0, [r7, #8]
  
  if(hdma->State != HAL_DMA_STATE_BUSY)
 80043c8:	687b      	ldr	r3, [r7, #4]
 80043ca:	f893 3035 	ldrb.w	r3, [r3, #53]	@ 0x35
 80043ce:	b2db      	uxtb	r3, r3
 80043d0:	2b02      	cmp	r3, #2
 80043d2:	d008      	beq.n	80043e6 <HAL_DMA_Abort+0x32>
  {
    hdma->ErrorCode = HAL_DMA_ERROR_NO_XFER;
 80043d4:	687b      	ldr	r3, [r7, #4]
 80043d6:	2280      	movs	r2, #128	@ 0x80
 80043d8:	655a      	str	r2, [r3, #84]	@ 0x54
    
    /* Process Unlocked */
    __HAL_UNLOCK(hdma);
 80043da:	687b      	ldr	r3, [r7, #4]
 80043dc:	2200      	movs	r2, #0
 80043de:	f883 2034 	strb.w	r2, [r3, #52]	@ 0x34
    
    return HAL_ERROR;
 80043e2:	2301      	movs	r3, #1
 80043e4:	e052      	b.n	800448c <HAL_DMA_Abort+0xd8>
  }
  else
  {
    /* Disable all the transfer interrupts */
    hdma->Instance->CR  &= ~(DMA_IT_TC | DMA_IT_TE | DMA_IT_DME);
 80043e6:	687b      	ldr	r3, [r7, #4]
 80043e8:	681b      	ldr	r3, [r3, #0]
 80043ea:	681a      	ldr	r2, [r3, #0]
 80043ec:	687b      	ldr	r3, [r7, #4]
 80043ee:	681b      	ldr	r3, [r3, #0]
 80043f0:	f022 0216 	bic.w	r2, r2, #22
 80043f4:	601a      	str	r2, [r3, #0]
    hdma->Instance->FCR &= ~(DMA_IT_FE);
 80043f6:	687b      	ldr	r3, [r7, #4]
 80043f8:	681b      	ldr	r3, [r3, #0]
 80043fa:	695a      	ldr	r2, [r3, #20]
 80043fc:	687b      	ldr	r3, [r7, #4]
 80043fe:	681b      	ldr	r3, [r3, #0]
 8004400:	f022 0280 	bic.w	r2, r2, #128	@ 0x80
 8004404:	615a      	str	r2, [r3, #20]
    
    if((hdma->XferHalfCpltCallback != NULL) || (hdma->XferM1HalfCpltCallback != NULL))
 8004406:	687b      	ldr	r3, [r7, #4]
 8004408:	6c1b      	ldr	r3, [r3, #64]	@ 0x40
 800440a:	2b00      	cmp	r3, #0
 800440c:	d103      	bne.n	8004416 <HAL_DMA_Abort+0x62>
 800440e:	687b      	ldr	r3, [r7, #4]
 8004410:	6c9b      	ldr	r3, [r3, #72]	@ 0x48
 8004412:	2b00      	cmp	r3, #0
 8004414:	d007      	beq.n	8004426 <HAL_DMA_Abort+0x72>
    {
      hdma->Instance->CR  &= ~(DMA_IT_HT);
 8004416:	687b      	ldr	r3, [r7, #4]
 8004418:	681b      	ldr	r3, [r3, #0]
 800441a:	681a      	ldr	r2, [r3, #0]
 800441c:	687b      	ldr	r3, [r7, #4]
 800441e:	681b      	ldr	r3, [r3, #0]
 8004420:	f022 0208 	bic.w	r2, r2, #8
 8004424:	601a      	str	r2, [r3, #0]
    }
    
    /* Disable the stream */
    __HAL_DMA_DISABLE(hdma);
 8004426:	687b      	ldr	r3, [r7, #4]
 8004428:	681b      	ldr	r3, [r3, #0]
 800442a:	681a      	ldr	r2, [r3, #0]
 800442c:	687b      	ldr	r3, [r7, #4]
 800442e:	681b      	ldr	r3, [r3, #0]
 8004430:	f022 0201 	bic.w	r2, r2, #1
 8004434:	601a      	str	r2, [r3, #0]
    
    /* Check if the DMA Stream is effectively disabled */
    while((hdma->Instance->CR & DMA_SxCR_EN) != RESET)
 8004436:	e013      	b.n	8004460 <HAL_DMA_Abort+0xac>
    {
      /* Check for the Timeout */
      if((HAL_GetTick() - tickstart ) > HAL_TIMEOUT_DMA_ABORT)
 8004438:	f7ff fd46 	bl	8003ec8 <HAL_GetTick>
 800443c:	4602      	mov	r2, r0
 800443e:	68bb      	ldr	r3, [r7, #8]
 8004440:	1ad3      	subs	r3, r2, r3
 8004442:	2b05      	cmp	r3, #5
 8004444:	d90c      	bls.n	8004460 <HAL_DMA_Abort+0xac>
      {
        /* Update error code */
        hdma->ErrorCode = HAL_DMA_ERROR_TIMEOUT;
 8004446:	687b      	ldr	r3, [r7, #4]
 8004448:	2220      	movs	r2, #32
 800444a:	655a      	str	r2, [r3, #84]	@ 0x54
        
        /* Change the DMA state */
        hdma->State = HAL_DMA_STATE_TIMEOUT;
 800444c:	687b      	ldr	r3, [r7, #4]
 800444e:	2203      	movs	r2, #3
 8004450:	f883 2035 	strb.w	r2, [r3, #53]	@ 0x35
        
        /* Process Unlocked */
        __HAL_UNLOCK(hdma);
 8004454:	687b      	ldr	r3, [r7, #4]
 8004456:	2200      	movs	r2, #0
 8004458:	f883 2034 	strb.w	r2, [r3, #52]	@ 0x34
        
        return HAL_TIMEOUT;
 800445c:	2303      	movs	r3, #3
 800445e:	e015      	b.n	800448c <HAL_DMA_Abort+0xd8>
    while((hdma->Instance->CR & DMA_SxCR_EN) != RESET)
 8004460:	687b      	ldr	r3, [r7, #4]
 8004462:	681b      	ldr	r3, [r3, #0]
 8004464:	681b      	ldr	r3, [r3, #0]
 8004466:	f003 0301 	and.w	r3, r3, #1
 800446a:	2b00      	cmp	r3, #0
 800446c:	d1e4      	bne.n	8004438 <HAL_DMA_Abort+0x84>
      }
    }
    
    /* Clear all interrupt flags at correct offset within the register */
    regs->IFCR = 0x3FU << hdma->StreamIndex;
 800446e:	687b      	ldr	r3, [r7, #4]
 8004470:	6ddb      	ldr	r3, [r3, #92]	@ 0x5c
 8004472:	223f      	movs	r2, #63	@ 0x3f
 8004474:	409a      	lsls	r2, r3
 8004476:	68fb      	ldr	r3, [r7, #12]
 8004478:	609a      	str	r2, [r3, #8]
    
    /* Change the DMA state*/
    hdma->State = HAL_DMA_STATE_READY;
 800447a:	687b      	ldr	r3, [r7, #4]
 800447c:	2201      	movs	r2, #1
 800447e:	f883 2035 	strb.w	r2, [r3, #53]	@ 0x35
    
    /* Process Unlocked */
    __HAL_UNLOCK(hdma);
 8004482:	687b      	ldr	r3, [r7, #4]
 8004484:	2200      	movs	r2, #0
 8004486:	f883 2034 	strb.w	r2, [r3, #52]	@ 0x34
  }
  return HAL_OK;
 800448a:	2300      	movs	r3, #0
}
 800448c:	4618      	mov	r0, r3
 800448e:	3710      	adds	r7, #16
 8004490:	46bd      	mov	sp, r7
 8004492:	bd80      	pop	{r7, pc}

08004494 <HAL_DMA_IRQHandler>:
  * @param  hdma pointer to a DMA_HandleTypeDef structure that contains
  *               the configuration information for the specified DMA Stream.  
  * @retval None
  */
void HAL_DMA_IRQHandler(DMA_HandleTypeDef *hdma)
{
 8004494:	b580      	push	{r7, lr}
 8004496:	b086      	sub	sp, #24
 8004498:	af00      	add	r7, sp, #0
 800449a:	6078      	str	r0, [r7, #4]
  uint32_t tmpisr;
  __IO uint32_t count = 0U;
 800449c:	2300      	movs	r3, #0
 800449e:	60bb      	str	r3, [r7, #8]
  uint32_t timeout = SystemCoreClock / 9600U;
 80044a0:	4b8e      	ldr	r3, [pc, #568]	@ (80046dc <HAL_DMA_IRQHandler+0x248>)
 80044a2:	681b      	ldr	r3, [r3, #0]
 80044a4:	4a8e      	ldr	r2, [pc, #568]	@ (80046e0 <HAL_DMA_IRQHandler+0x24c>)
 80044a6:	fba2 2303 	umull	r2, r3, r2, r3
 80044aa:	0a9b      	lsrs	r3, r3, #10
 80044ac:	617b      	str	r3, [r7, #20]

  /* calculate DMA base and stream number */
  DMA_Base_Registers *regs = (DMA_Base_Registers *)hdma->StreamBaseAddress;
 80044ae:	687b      	ldr	r3, [r7, #4]
 80044b0:	6d9b      	ldr	r3, [r3, #88]	@ 0x58
 80044b2:	613b      	str	r3, [r7, #16]

  tmpisr = regs->ISR;
 80044b4:	693b      	ldr	r3, [r7, #16]
 80044b6:	681b      	ldr	r3, [r3, #0]
 80044b8:	60fb      	str	r3, [r7, #12]

  /* Transfer Error Interrupt management ***************************************/
  if ((tmpisr & (DMA_FLAG_TEIF0_4 << hdma->StreamIndex)) != RESET)
 80044ba:	687b      	ldr	r3, [r7, #4]
 80044bc:	6ddb      	ldr	r3, [r3, #92]	@ 0x5c
 80044be:	2208      	movs	r2, #8
 80044c0:	409a      	lsls	r2, r3
 80044c2:	68fb      	ldr	r3, [r7, #12]
 80044c4:	4013      	ands	r3, r2
 80044c6:	2b00      	cmp	r3, #0
 80044c8:	d01a      	beq.n	8004500 <HAL_DMA_IRQHandler+0x6c>
  {
    if(__HAL_DMA_GET_IT_SOURCE(hdma, DMA_IT_TE) != RESET)
 80044ca:	687b      	ldr	r3, [r7, #4]
 80044cc:	681b      	ldr	r3, [r3, #0]
 80044ce:	681b      	ldr	r3, [r3, #0]
 80044d0:	f003 0304 	and.w	r3, r3, #4
 80044d4:	2b00      	cmp	r3, #0
 80044d6:	d013      	beq.n	8004500 <HAL_DMA_IRQHandler+0x6c>
    {
      /* Disable the transfer error interrupt */
      hdma->Instance->CR  &= ~(DMA_IT_TE);
 80044d8:	687b      	ldr	r3, [r7, #4]
 80044da:	681b      	ldr	r3, [r3, #0]
 80044dc:	681a      	ldr	r2, [r3, #0]
 80044de:	687b      	ldr	r3, [r7, #4]
 80044e0:	681b      	ldr	r3, [r3, #0]
 80044e2:	f022 0204 	bic.w	r2, r2, #4
 80044e6:	601a      	str	r2, [r3, #0]
      
      /* Clear the transfer error flag */
      regs->IFCR = DMA_FLAG_TEIF0_4 << hdma->StreamIndex;
 80044e8:	687b      	ldr	r3, [r7, #4]
 80044ea:	6ddb      	ldr	r3, [r3, #92]	@ 0x5c
 80044ec:	2208      	movs	r2, #8
 80044ee:	409a      	lsls	r2, r3
 80044f0:	693b      	ldr	r3, [r7, #16]
 80044f2:	609a      	str	r2, [r3, #8]
      
      /* Update error code */
      hdma->ErrorCode |= HAL_DMA_ERROR_TE;
 80044f4:	687b      	ldr	r3, [r7, #4]
 80044f6:	6d5b      	ldr	r3, [r3, #84]	@ 0x54
 80044f8:	f043 0201 	orr.w	r2, r3, #1
 80044fc:	687b      	ldr	r3, [r7, #4]
 80044fe:	655a      	str	r2, [r3, #84]	@ 0x54
    }
  }
  /* FIFO Error Interrupt management ******************************************/
  if ((tmpisr & (DMA_FLAG_FEIF0_4 << hdma->StreamIndex)) != RESET)
 8004500:	687b      	ldr	r3, [r7, #4]
 8004502:	6ddb      	ldr	r3, [r3, #92]	@ 0x5c
 8004504:	2201      	movs	r2, #1
 8004506:	409a      	lsls	r2, r3
 8004508:	68fb      	ldr	r3, [r7, #12]
 800450a:	4013      	ands	r3, r2
 800450c:	2b00      	cmp	r3, #0
 800450e:	d012      	beq.n	8004536 <HAL_DMA_IRQHandler+0xa2>
  {
    if(__HAL_DMA_GET_IT_SOURCE(hdma, DMA_IT_FE) != RESET)
 8004510:	687b      	ldr	r3, [r7, #4]
 8004512:	681b      	ldr	r3, [r3, #0]
 8004514:	695b      	ldr	r3, [r3, #20]
 8004516:	f003 0380 	and.w	r3, r3, #128	@ 0x80
 800451a:	2b00      	cmp	r3, #0
 800451c:	d00b      	beq.n	8004536 <HAL_DMA_IRQHandler+0xa2>
    {
      /* Clear the FIFO error flag */
      regs->IFCR = DMA_FLAG_FEIF0_4 << hdma->StreamIndex;
 800451e:	687b      	ldr	r3, [r7, #4]
 8004520:	6ddb      	ldr	r3, [r3, #92]	@ 0x5c
 8004522:	2201      	movs	r2, #1
 8004524:	409a      	lsls	r2, r3
 8004526:	693b      	ldr	r3, [r7, #16]
 8004528:	609a      	str	r2, [r3, #8]

      /* Update error code */
      hdma->ErrorCode |= HAL_DMA_ERROR_FE;
 800452a:	687b      	ldr	r3, [r7, #4]
 800452c:	6d5b      	ldr	r3, [r3, #84]	@ 0x54
 800452e:	f043 0202 	orr.w	r2, r3, #2
 8004532:	687b      	ldr	r3, [r7, #4]
 8004534:	655a      	str	r2, [r3, #84]	@ 0x54
    }
  }
  /* Direct Mode Error Interrupt management ***********************************/
  if ((tmpisr & (DMA_FLAG_DMEIF0_4 << hdma->StreamIndex)) != RESET)
 8004536:	687b      	ldr	r3, [r7, #4]
 8004538:	6ddb      	ldr	r3, [r3, #92]	@ 0x5c
 800453a:	2204      	movs	r2, #4
 800453c:	409a      	lsls	r2, r3
 800453e:	68fb      	ldr	r3, [r7, #12]
 8004540:	4013      	ands	r3, r2
 8004542:	2b00      	cmp	r3, #0
 8004544:	d012      	beq.n	800456c <HAL_DMA_IRQHandler+0xd8>
  {
    if(__HAL_DMA_GET_IT_SOURCE(hdma, DMA_IT_DME) != RESET)
 8004546:	687b      	ldr	r3, [r7, #4]
 8004548:	681b      	ldr	r3, [r3, #0]
 800454a:	681b      	ldr	r3, [r3, #0]
 800454c:	f003 0302 	and.w	r3, r3, #2
 8004550:	2b00      	cmp	r3, #0
 8004552:	d00b      	beq.n	800456c <HAL_DMA_IRQHandler+0xd8>
    {
      /* Clear the direct mode error flag */
      regs->IFCR = DMA_FLAG_DMEIF0_4 << hdma->StreamIndex;
 8004554:	687b      	ldr	r3, [r7, #4]
 8004556:	6ddb      	ldr	r3, [r3, #92]	@ 0x5c
 8004558:	2204      	movs	r2, #4
 800455a:	409a      	lsls	r2, r3
 800455c:	693b      	ldr	r3, [r7, #16]
 800455e:	609a      	str	r2, [r3, #8]

      /* Update error code */
      hdma->ErrorCode |= HAL_DMA_ERROR_DME;
 8004560:	687b      	ldr	r3, [r7, #4]
 8004562:	6d5b      	ldr	r3, [r3, #84]	@ 0x54
 8004564:	f043 0204 	orr.w	r2, r3, #4
 8004568:	687b      	ldr	r3, [r7, #4]
 800456a:	655a      	str	r2, [r3, #84]	@ 0x54
    }
  }
  /* Half Transfer Complete Interrupt management ******************************/
  if ((tmpisr & (DMA_FLAG_HTIF0_4 << hdma->StreamIndex)) != RESET)
 800456c:	687b      	ldr	r3, [r7, #4]
 800456e:	6ddb      	ldr	r3, [r3, #92]	@ 0x5c
 8004570:	2210      	movs	r2, #16
 8004572:	409a      	lsls	r2, r3
 8004574:	68fb      	ldr	r3, [r7, #12]
 8004576:	4013      	ands	r3, r2
 8004578:	2b00      	cmp	r3, #0
 800457a:	d043      	beq.n	8004604 <HAL_DMA_IRQHandler+0x170>
  {
    if(__HAL_DMA_GET_IT_SOURCE(hdma, DMA_IT_HT) != RESET)
 800457c:	687b      	ldr	r3, [r7, #4]
 800457e:	681b      	ldr	r3, [r3, #0]
 8004580:	681b      	ldr	r3, [r3, #0]
 8004582:	f003 0308 	and.w	r3, r3, #8
 8004586:	2b00      	cmp	r3, #0
 8004588:	d03c      	beq.n	8004604 <HAL_DMA_IRQHandler+0x170>
    {
      /* Clear the half transfer complete flag */
      regs->IFCR = DMA_FLAG_HTIF0_4 << hdma->StreamIndex;
 800458a:	687b      	ldr	r3, [r7, #4]
 800458c:	6ddb      	ldr	r3, [r3, #92]	@ 0x5c
 800458e:	2210      	movs	r2, #16
 8004590:	409a      	lsls	r2, r3
 8004592:	693b      	ldr	r3, [r7, #16]
 8004594:	609a      	str	r2, [r3, #8]
      
      /* Multi_Buffering mode enabled */
      if(((hdma->Instance->CR) & (uint32_t)(DMA_SxCR_DBM)) != RESET)
 8004596:	687b      	ldr	r3, [r7, #4]
 8004598:	681b      	ldr	r3, [r3, #0]
 800459a:	681b      	ldr	r3, [r3, #0]
 800459c:	f403 2380 	and.w	r3, r3, #262144	@ 0x40000
 80045a0:	2b00      	cmp	r3, #0
 80045a2:	d018      	beq.n	80045d6 <HAL_DMA_IRQHandler+0x142>
      {
        /* Current memory buffer used is Memory 0 */
        if((hdma->Instance->CR & DMA_SxCR_CT) == RESET)
 80045a4:	687b      	ldr	r3, [r7, #4]
 80045a6:	681b      	ldr	r3, [r3, #0]
 80045a8:	681b      	ldr	r3, [r3, #0]
 80045aa:	f403 2300 	and.w	r3, r3, #524288	@ 0x80000
 80045ae:	2b00      	cmp	r3, #0
 80045b0:	d108      	bne.n	80045c4 <HAL_DMA_IRQHandler+0x130>
        {
          if(hdma->XferHalfCpltCallback != NULL)
 80045b2:	687b      	ldr	r3, [r7, #4]
 80045b4:	6c1b      	ldr	r3, [r3, #64]	@ 0x40
 80045b6:	2b00      	cmp	r3, #0
 80045b8:	d024      	beq.n	8004604 <HAL_DMA_IRQHandler+0x170>
          {
            /* Half transfer callback */
            hdma->XferHalfCpltCallback(hdma);
 80045ba:	687b      	ldr	r3, [r7, #4]
 80045bc:	6c1b      	ldr	r3, [r3, #64]	@ 0x40
 80045be:	6878      	ldr	r0, [r7, #4]
 80045c0:	4798      	blx	r3
 80045c2:	e01f      	b.n	8004604 <HAL_DMA_IRQHandler+0x170>
          }
        }
        /* Current memory buffer used is Memory 1 */
        else
        {
          if(hdma->XferM1HalfCpltCallback != NULL)
 80045c4:	687b      	ldr	r3, [r7, #4]
 80045c6:	6c9b      	ldr	r3, [r3, #72]	@ 0x48
 80045c8:	2b00      	cmp	r3, #0
 80045ca:	d01b      	beq.n	8004604 <HAL_DMA_IRQHandler+0x170>
          {
            /* Half transfer callback */
            hdma->XferM1HalfCpltCallback(hdma);
 80045cc:	687b      	ldr	r3, [r7, #4]
 80045ce:	6c9b      	ldr	r3, [r3, #72]	@ 0x48
 80045d0:	6878      	ldr	r0, [r7, #4]
 80045d2:	4798      	blx	r3
 80045d4:	e016      	b.n	8004604 <HAL_DMA_IRQHandler+0x170>
        }
      }
      else
      {
        /* Disable the half transfer interrupt if the DMA mode is not CIRCULAR */
        if((hdma->Instance->CR & DMA_SxCR_CIRC) == RESET)
 80045d6:	687b      	ldr	r3, [r7, #4]
 80045d8:	681b      	ldr	r3, [r3, #0]
 80045da:	681b      	ldr	r3, [r3, #0]
 80045dc:	f403 7380 	and.w	r3, r3, #256	@ 0x100
 80045e0:	2b00      	cmp	r3, #0
 80045e2:	d107      	bne.n	80045f4 <HAL_DMA_IRQHandler+0x160>
        {
          /* Disable the half transfer interrupt */
          hdma->Instance->CR  &= ~(DMA_IT_HT);
 80045e4:	687b      	ldr	r3, [r7, #4]
 80045e6:	681b      	ldr	r3, [r3, #0]
 80045e8:	681a      	ldr	r2, [r3, #0]
 80045ea:	687b      	ldr	r3, [r7, #4]
 80045ec:	681b      	ldr	r3, [r3, #0]
 80045ee:	f022 0208 	bic.w	r2, r2, #8
 80045f2:	601a      	str	r2, [r3, #0]
        }
        
        if(hdma->XferHalfCpltCallback != NULL)
 80045f4:	687b      	ldr	r3, [r7, #4]
 80045f6:	6c1b      	ldr	r3, [r3, #64]	@ 0x40
 80045f8:	2b00      	cmp	r3, #0
 80045fa:	d003      	beq.n	8004604 <HAL_DMA_IRQHandler+0x170>
        {
          /* Half transfer callback */
          hdma->XferHalfCpltCallback(hdma);
 80045fc:	687b      	ldr	r3, [r7, #4]
 80045fe:	6c1b      	ldr	r3, [r3, #64]	@ 0x40
 8004600:	6878      	ldr	r0, [r7, #4]
 8004602:	4798      	blx	r3
        }
      }
    }
  }
  /* Transfer Complete Interrupt management ***********************************/
  if ((tmpisr & (DMA_FLAG_TCIF0_4 << hdma->StreamIndex)) != RESET)
 8004604:	687b      	ldr	r3, [r7, #4]
 8004606:	6ddb      	ldr	r3, [r3, #92]	@ 0x5c
 8004608:	2220      	movs	r2, #32
 800460a:	409a      	lsls	r2, r3
 800460c:	68fb      	ldr	r3, [r7, #12]
 800460e:	4013      	ands	r3, r2
 8004610:	2b00      	cmp	r3, #0
 8004612:	f000 808f 	beq.w	8004734 <HAL_DMA_IRQHandler+0x2a0>
  {
    if(__HAL_DMA_GET_IT_SOURCE(hdma, DMA_IT_TC) != RESET)
 8004616:	687b      	ldr	r3, [r7, #4]
 8004618:	681b      	ldr	r3, [r3, #0]
 800461a:	681b      	ldr	r3, [r3, #0]
 800461c:	f003 0310 	and.w	r3, r3, #16
 8004620:	2b00      	cmp	r3, #0
 8004622:	f000 8087 	beq.w	8004734 <HAL_DMA_IRQHandler+0x2a0>
    {
      /* Clear the transfer complete flag */
      regs->IFCR = DMA_FLAG_TCIF0_4 << hdma->StreamIndex;
 8004626:	687b      	ldr	r3, [r7, #4]
 8004628:	6ddb      	ldr	r3, [r3, #92]	@ 0x5c
 800462a:	2220      	movs	r2, #32
 800462c:	409a      	lsls	r2, r3
 800462e:	693b      	ldr	r3, [r7, #16]
 8004630:	609a      	str	r2, [r3, #8]
      
      if(HAL_DMA_STATE_ABORT == hdma->State)
 8004632:	687b      	ldr	r3, [r7, #4]
 8004634:	f893 3035 	ldrb.w	r3, [r3, #53]	@ 0x35
 8004638:	b2db      	uxtb	r3, r3
 800463a:	2b05      	cmp	r3, #5
 800463c:	d136      	bne.n	80046ac <HAL_DMA_IRQHandler+0x218>
      {
        /* Disable all the transfer interrupts */
        hdma->Instance->CR  &= ~(DMA_IT_TC | DMA_IT_TE | DMA_IT_DME);
 800463e:	687b      	ldr	r3, [r7, #4]
 8004640:	681b      	ldr	r3, [r3, #0]
 8004642:	681a      	ldr	r2, [r3, #0]
 8004644:	687b      	ldr	r3, [r7, #4]
 8004646:	681b      	ldr	r3, [r3, #0]
 8004648:	f022 0216 	bic.w	r2, r2, #22
 800464c:	601a      	str	r2, [r3, #0]
        hdma->Instance->FCR &= ~(DMA_IT_FE);
 800464e:	687b      	ldr	r3, [r7, #4]
 8004650:	681b      	ldr	r3, [r3, #0]
 8004652:	695a      	ldr	r2, [r3, #20]
 8004654:	687b      	ldr	r3, [r7, #4]
 8004656:	681b      	ldr	r3, [r3, #0]
 8004658:	f022 0280 	bic.w	r2, r2, #128	@ 0x80
 800465c:	615a      	str	r2, [r3, #20]
        
        if((hdma->XferHalfCpltCallback != NULL) || (hdma->XferM1HalfCpltCallback != NULL))
 800465e:	687b      	ldr	r3, [r7, #4]
 8004660:	6c1b      	ldr	r3, [r3, #64]	@ 0x40
 8004662:	2b00      	cmp	r3, #0
 8004664:	d103      	bne.n	800466e <HAL_DMA_IRQHandler+0x1da>
 8004666:	687b      	ldr	r3, [r7, #4]
 8004668:	6c9b      	ldr	r3, [r3, #72]	@ 0x48
 800466a:	2b00      	cmp	r3, #0
 800466c:	d007      	beq.n	800467e <HAL_DMA_IRQHandler+0x1ea>
        {
          hdma->Instance->CR  &= ~(DMA_IT_HT);
 800466e:	687b      	ldr	r3, [r7, #4]
 8004670:	681b      	ldr	r3, [r3, #0]
 8004672:	681a      	ldr	r2, [r3, #0]
 8004674:	687b      	ldr	r3, [r7, #4]
 8004676:	681b      	ldr	r3, [r3, #0]
 8004678:	f022 0208 	bic.w	r2, r2, #8
 800467c:	601a      	str	r2, [r3, #0]
        }

        /* Clear all interrupt flags at correct offset within the register */
        regs->IFCR = 0x3FU << hdma->StreamIndex;
 800467e:	687b      	ldr	r3, [r7, #4]
 8004680:	6ddb      	ldr	r3, [r3, #92]	@ 0x5c
 8004682:	223f      	movs	r2, #63	@ 0x3f
 8004684:	409a      	lsls	r2, r3
 8004686:	693b      	ldr	r3, [r7, #16]
 8004688:	609a      	str	r2, [r3, #8]

        /* Change the DMA state */
        hdma->State = HAL_DMA_STATE_READY;
 800468a:	687b      	ldr	r3, [r7, #4]
 800468c:	2201      	movs	r2, #1
 800468e:	f883 2035 	strb.w	r2, [r3, #53]	@ 0x35

        /* Process Unlocked */
        __HAL_UNLOCK(hdma);
 8004692:	687b      	ldr	r3, [r7, #4]
 8004694:	2200      	movs	r2, #0
 8004696:	f883 2034 	strb.w	r2, [r3, #52]	@ 0x34

        if(hdma->XferAbortCallback != NULL)
 800469a:	687b      	ldr	r3, [r7, #4]
 800469c:	6d1b      	ldr	r3, [r3, #80]	@ 0x50
 800469e:	2b00      	cmp	r3, #0
 80046a0:	d07e      	beq.n	80047a0 <HAL_DMA_IRQHandler+0x30c>
        {
          hdma->XferAbortCallback(hdma);
 80046a2:	687b      	ldr	r3, [r7, #4]
 80046a4:	6d1b      	ldr	r3, [r3, #80]	@ 0x50
 80046a6:	6878      	ldr	r0, [r7, #4]
 80046a8:	4798      	blx	r3
        }
        return;
 80046aa:	e079      	b.n	80047a0 <HAL_DMA_IRQHandler+0x30c>
      }

      if(((hdma->Instance->CR) & (uint32_t)(DMA_SxCR_DBM)) != RESET)
 80046ac:	687b      	ldr	r3, [r7, #4]
 80046ae:	681b      	ldr	r3, [r3, #0]
 80046b0:	681b      	ldr	r3, [r3, #0]
 80046b2:	f403 2380 	and.w	r3, r3, #262144	@ 0x40000
 80046b6:	2b00      	cmp	r3, #0
 80046b8:	d01d      	beq.n	80046f6 <HAL_DMA_IRQHandler+0x262>
      {
        /* Current memory buffer used is Memory 0 */
        if((hdma->Instance->CR & DMA_SxCR_CT) == RESET)
 80046ba:	687b      	ldr	r3, [r7, #4]
 80046bc:	681b      	ldr	r3, [r3, #0]
 80046be:	681b      	ldr	r3, [r3, #0]
 80046c0:	f403 2300 	and.w	r3, r3, #524288	@ 0x80000
 80046c4:	2b00      	cmp	r3, #0
 80046c6:	d10d      	bne.n	80046e4 <HAL_DMA_IRQHandler+0x250>
        {
          if(hdma->XferM1CpltCallback != NULL)
 80046c8:	687b      	ldr	r3, [r7, #4]
 80046ca:	6c5b      	ldr	r3, [r3, #68]	@ 0x44
 80046cc:	2b00      	cmp	r3, #0
 80046ce:	d031      	beq.n	8004734 <HAL_DMA_IRQHandler+0x2a0>
          {
            /* Transfer complete Callback for memory1 */
            hdma->XferM1CpltCallback(hdma);
 80046d0:	687b      	ldr	r3, [r7, #4]
 80046d2:	6c5b      	ldr	r3, [r3, #68]	@ 0x44
 80046d4:	6878      	ldr	r0, [r7, #4]
 80046d6:	4798      	blx	r3
 80046d8:	e02c      	b.n	8004734 <HAL_DMA_IRQHandler+0x2a0>
 80046da:	bf00      	nop
 80046dc:	20000000 	.word	0x20000000
 80046e0:	1b4e81b5 	.word	0x1b4e81b5
          }
        }
        /* Current memory buffer used is Memory 1 */
        else
        {
          if(hdma->XferCpltCallback != NULL)
 80046e4:	687b      	ldr	r3, [r7, #4]
 80046e6:	6bdb      	ldr	r3, [r3, #60]	@ 0x3c
 80046e8:	2b00      	cmp	r3, #0
 80046ea:	d023      	beq.n	8004734 <HAL_DMA_IRQHandler+0x2a0>
          {
            /* Transfer complete Callback for memory0 */
            hdma->XferCpltCallback(hdma);
 80046ec:	687b      	ldr	r3, [r7, #4]
 80046ee:	6bdb      	ldr	r3, [r3, #60]	@ 0x3c
 80046f0:	6878      	ldr	r0, [r7, #4]
 80046f2:	4798      	blx	r3
 80046f4:	e01e      	b.n	8004734 <HAL_DMA_IRQHandler+0x2a0>
        }
      }
      /* Disable the transfer complete interrupt if the DMA mode is not CIRCULAR */
      else
      {
        if((hdma->Instance->CR & DMA_SxCR_CIRC) == RESET)
 80046f6:	687b      	ldr	r3, [r7, #4]
 80046f8:	681b      	ldr	r3, [r3, #0]
 80046fa:	681b      	ldr	r3, [r3, #0]
 80046fc:	f403 7380 	and.w	r3, r3, #256	@ 0x100
 8004700:	2b00      	cmp	r3, #0
 8004702:	d10f      	bne.n	8004724 <HAL_DMA_IRQHandler+0x290>
        {
          /* Disable the transfer complete interrupt */
          hdma->Instance->CR  &= ~(DMA_IT_TC);
 8004704:	687b      	ldr	r3, [r7, #4]
 8004706:	681b      	ldr	r3, [r3, #0]
 8004708:	681a      	ldr	r2, [r3, #0]
 800470a:	687b      	ldr	r3, [r7, #4]
 800470c:	681b      	ldr	r3, [r3, #0]
 800470e:	f022 0210 	bic.w	r2, r2, #16
 8004712:	601a      	str	r2, [r3, #0]

          /* Change the DMA state */
          hdma->State = HAL_DMA_STATE_READY;
 8004714:	687b      	ldr	r3, [r7, #4]
 8004716:	2201      	movs	r2, #1
 8004718:	f883 2035 	strb.w	r2, [r3, #53]	@ 0x35

          /* Process Unlocked */
          __HAL_UNLOCK(hdma);
 800471c:	687b      	ldr	r3, [r7, #4]
 800471e:	2200      	movs	r2, #0
 8004720:	f883 2034 	strb.w	r2, [r3, #52]	@ 0x34
        }

        if(hdma->XferCpltCallback != NULL)
 8004724:	687b      	ldr	r3, [r7, #4]
 8004726:	6bdb      	ldr	r3, [r3, #60]	@ 0x3c
 8004728:	2b00      	cmp	r3, #0
 800472a:	d003      	beq.n	8004734 <HAL_DMA_IRQHandler+0x2a0>
        {
          /* Transfer complete callback */
          hdma->XferCpltCallback(hdma);
 800472c:	687b      	ldr	r3, [r7, #4]
 800472e:	6bdb      	ldr	r3, [r3, #60]	@ 0x3c
 8004730:	6878      	ldr	r0, [r7, #4]
 8004732:	4798      	blx	r3
      }
    }
  }
  
  /* manage error case */
  if(hdma->ErrorCode != HAL_DMA_ERROR_NONE)
 8004734:	687b      	ldr	r3, [r7, #4]
 8004736:	6d5b      	ldr	r3, [r3, #84]	@ 0x54
 8004738:	2b00      	cmp	r3, #0
 800473a:	d032      	beq.n	80047a2 <HAL_DMA_IRQHandler+0x30e>
  {
    if((hdma->ErrorCode & HAL_DMA_ERROR_TE) != RESET)
 800473c:	687b      	ldr	r3, [r7, #4]
 800473e:	6d5b      	ldr	r3, [r3, #84]	@ 0x54
 8004740:	f003 0301 	and.w	r3, r3, #1
 8004744:	2b00      	cmp	r3, #0
 8004746:	d022      	beq.n	800478e <HAL_DMA_IRQHandler+0x2fa>
    {
      hdma->State = HAL_DMA_STATE_ABORT;
 8004748:	687b      	ldr	r3, [r7, #4]
 800474a:	2205      	movs	r2, #5
 800474c:	f883 2035 	strb.w	r2, [r3, #53]	@ 0x35

      /* Disable the stream */
      __HAL_DMA_DISABLE(hdma);
 8004750:	687b      	ldr	r3, [r7, #4]
 8004752:	681b      	ldr	r3, [r3, #0]
 8004754:	681a      	ldr	r2, [r3, #0]
 8004756:	687b      	ldr	r3, [r7, #4]
 8004758:	681b      	ldr	r3, [r3, #0]
 800475a:	f022 0201 	bic.w	r2, r2, #1
 800475e:	601a      	str	r2, [r3, #0]

      do
      {
        if (++count > timeout)
 8004760:	68bb      	ldr	r3, [r7, #8]
 8004762:	3301      	adds	r3, #1
 8004764:	60bb      	str	r3, [r7, #8]
 8004766:	697a      	ldr	r2, [r7, #20]
 8004768:	429a      	cmp	r2, r3
 800476a:	d307      	bcc.n	800477c <HAL_DMA_IRQHandler+0x2e8>
        {
          break;
        }
      }
      while((hdma->Instance->CR & DMA_SxCR_EN) != RESET);
 800476c:	687b      	ldr	r3, [r7, #4]
 800476e:	681b      	ldr	r3, [r3, #0]
 8004770:	681b      	ldr	r3, [r3, #0]
 8004772:	f003 0301 	and.w	r3, r3, #1
 8004776:	2b00      	cmp	r3, #0
 8004778:	d1f2      	bne.n	8004760 <HAL_DMA_IRQHandler+0x2cc>
 800477a:	e000      	b.n	800477e <HAL_DMA_IRQHandler+0x2ea>
          break;
 800477c:	bf00      	nop

      /* Change the DMA state */
      hdma->State = HAL_DMA_STATE_READY;
 800477e:	687b      	ldr	r3, [r7, #4]
 8004780:	2201      	movs	r2, #1
 8004782:	f883 2035 	strb.w	r2, [r3, #53]	@ 0x35

      /* Process Unlocked */
      __HAL_UNLOCK(hdma);
 8004786:	687b      	ldr	r3, [r7, #4]
 8004788:	2200      	movs	r2, #0
 800478a:	f883 2034 	strb.w	r2, [r3, #52]	@ 0x34
    }

    if(hdma->XferErrorCallback != NULL)
 800478e:	687b      	ldr	r3, [r7, #4]
 8004790:	6cdb      	ldr	r3, [r3, #76]	@ 0x4c
 8004792:	2b00      	cmp	r3, #0
 8004794:	d005      	beq.n	80047a2 <HAL_DMA_IRQHandler+0x30e>
    {
      /* Transfer error callback */
      hdma->XferErrorCallback(hdma);
 8004796:	687b      	ldr	r3, [r7, #4]
 8004798:	6cdb      	ldr	r3, [r3, #76]	@ 0x4c
 800479a:	6878      	ldr	r0, [r7, #4]
 800479c:	4798      	blx	r3
 800479e:	e000      	b.n	80047a2 <HAL_DMA_IRQHandler+0x30e>
        return;
 80047a0:	bf00      	nop
    }
  }
}
 80047a2:	3718      	adds	r7, #24
 80047a4:	46bd      	mov	sp, r7
 80047a6:	bd80      	pop	{r7, pc}

080047a8 <DMA_SetConfig>:
  * @param  DstAddress The destination memory Buffer address
  * @param  DataLength The length of data to be transferred from source to destination
  * @retval HAL status
  */
static void DMA_SetConfig(DMA_HandleTypeDef *hdma, uint32_t SrcAddress, uint32_t DstAddress, uint32_t DataLength)
{
 80047a8:	b480      	push	{r7}
 80047aa:	b085      	sub	sp, #20
 80047ac:	af00      	add	r7, sp, #0
 80047ae:	60f8      	str	r0, [r7, #12]
 80047b0:	60b9      	str	r1, [r7, #8]
 80047b2:	607a      	str	r2, [r7, #4]
 80047b4:	603b      	str	r3, [r7, #0]
  /* Clear DBM bit */
  hdma->Instance->CR &= (uint32_t)(~DMA_SxCR_DBM);
 80047b6:	68fb      	ldr	r3, [r7, #12]
 80047b8:	681b      	ldr	r3, [r3, #0]
 80047ba:	681a      	ldr	r2, [r3, #0]
 80047bc:	68fb      	ldr	r3, [r7, #12]
 80047be:	681b      	ldr	r3, [r3, #0]
 80047c0:	f422 2280 	bic.w	r2, r2, #262144	@ 0x40000
 80047c4:	601a      	str	r2, [r3, #0]

  /* Configure DMA Stream data length */
  hdma->Instance->NDTR = DataLength;
 80047c6:	68fb      	ldr	r3, [r7, #12]
 80047c8:	681b      	ldr	r3, [r3, #0]
 80047ca:	683a      	ldr	r2, [r7, #0]
 80047cc:	605a      	str	r2, [r3, #4]

  /* Memory to Peripheral */
  if((hdma->Init.Direction) == DMA_MEMORY_TO_PERIPH)
 80047ce:	68fb      	ldr	r3, [r7, #12]
 80047d0:	689b      	ldr	r3, [r3, #8]
 80047d2:	2b40      	cmp	r3, #64	@ 0x40
 80047d4:	d108      	bne.n	80047e8 <DMA_SetConfig+0x40>
  {
    /* Configure DMA Stream destination address */
    hdma->Instance->PAR = DstAddress;
 80047d6:	68fb      	ldr	r3, [r7, #12]
 80047d8:	681b      	ldr	r3, [r3, #0]
 80047da:	687a      	ldr	r2, [r7, #4]
 80047dc:	609a      	str	r2, [r3, #8]

    /* Configure DMA Stream source address */
    hdma->Instance->M0AR = SrcAddress;
 80047de:	68fb      	ldr	r3, [r7, #12]
 80047e0:	681b      	ldr	r3, [r3, #0]
 80047e2:	68ba      	ldr	r2, [r7, #8]
 80047e4:	60da      	str	r2, [r3, #12]
    hdma->Instance->PAR = SrcAddress;

    /* Configure DMA Stream destination address */
    hdma->Instance->M0AR = DstAddress;
  }
}
 80047e6:	e007      	b.n	80047f8 <DMA_SetConfig+0x50>
    hdma->Instance->PAR = SrcAddress;
 80047e8:	68fb      	ldr	r3, [r7, #12]
 80047ea:	681b      	ldr	r3, [r3, #0]
 80047ec:	68ba      	ldr	r2, [r7, #8]
 80047ee:	609a      	str	r2, [r3, #8]
    hdma->Instance->M0AR = DstAddress;
 80047f0:	68fb      	ldr	r3, [r7, #12]
 80047f2:	681b      	ldr	r3, [r3, #0]
 80047f4:	687a      	ldr	r2, [r7, #4]
 80047f6:	60da      	str	r2, [r3, #12]
}
 80047f8:	bf00      	nop
 80047fa:	3714      	adds	r7, #20
 80047fc:	46bd      	mov	sp, r7
 80047fe:	f85d 7b04 	ldr.w	r7, [sp], #4
 8004802:	4770      	bx	lr

08004804 <DMA_CalcBaseAndBitshift>:
  * @param  hdma       pointer to a DMA_HandleTypeDef structure that contains
  *                     the configuration information for the specified DMA Stream. 
  * @retval Stream base address
  */
static uint32_t DMA_CalcBaseAndBitshift(DMA_HandleTypeDef *hdma)
{
 8004804:	b480      	push	{r7}
 8004806:	b085      	sub	sp, #20
 8004808:	af00      	add	r7, sp, #0
 800480a:	6078      	str	r0, [r7, #4]
  uint32_t stream_number = (((uint32_t)hdma->Instance & 0xFFU) - 16U) / 24U;
 800480c:	687b      	ldr	r3, [r7, #4]
 800480e:	681b      	ldr	r3, [r3, #0]
 8004810:	b2db      	uxtb	r3, r3
 8004812:	3b10      	subs	r3, #16
 8004814:	4a14      	ldr	r2, [pc, #80]	@ (8004868 <DMA_CalcBaseAndBitshift+0x64>)
 8004816:	fba2 2303 	umull	r2, r3, r2, r3
 800481a:	091b      	lsrs	r3, r3, #4
 800481c:	60fb      	str	r3, [r7, #12]
  
  /* lookup table for necessary bitshift of flags within status registers */
  static const uint8_t flagBitshiftOffset[8U] = {0U, 6U, 16U, 22U, 0U, 6U, 16U, 22U};
  hdma->StreamIndex = flagBitshiftOffset[stream_number];
 800481e:	4a13      	ldr	r2, [pc, #76]	@ (800486c <DMA_CalcBaseAndBitshift+0x68>)
 8004820:	68fb      	ldr	r3, [r7, #12]
 8004822:	4413      	add	r3, r2
 8004824:	781b      	ldrb	r3, [r3, #0]
 8004826:	461a      	mov	r2, r3
 8004828:	687b      	ldr	r3, [r7, #4]
 800482a:	65da      	str	r2, [r3, #92]	@ 0x5c
  
  if (stream_number > 3U)
 800482c:	68fb      	ldr	r3, [r7, #12]
 800482e:	2b03      	cmp	r3, #3
 8004830:	d909      	bls.n	8004846 <DMA_CalcBaseAndBitshift+0x42>
  {
    /* return pointer to HISR and HIFCR */
    hdma->StreamBaseAddress = (((uint32_t)hdma->Instance & (uint32_t)(~0x3FFU)) + 4U);
 8004832:	687b      	ldr	r3, [r7, #4]
 8004834:	681b      	ldr	r3, [r3, #0]
 8004836:	f423 737f 	bic.w	r3, r3, #1020	@ 0x3fc
 800483a:	f023 0303 	bic.w	r3, r3, #3
 800483e:	1d1a      	adds	r2, r3, #4
 8004840:	687b      	ldr	r3, [r7, #4]
 8004842:	659a      	str	r2, [r3, #88]	@ 0x58
 8004844:	e007      	b.n	8004856 <DMA_CalcBaseAndBitshift+0x52>
  }
  else
  {
    /* return pointer to LISR and LIFCR */
    hdma->StreamBaseAddress = ((uint32_t)hdma->Instance & (uint32_t)(~0x3FFU));
 8004846:	687b      	ldr	r3, [r7, #4]
 8004848:	681b      	ldr	r3, [r3, #0]
 800484a:	f423 737f 	bic.w	r3, r3, #1020	@ 0x3fc
 800484e:	f023 0303 	bic.w	r3, r3, #3
 8004852:	687a      	ldr	r2, [r7, #4]
 8004854:	6593      	str	r3, [r2, #88]	@ 0x58
  }
  
  return hdma->StreamBaseAddress;
 8004856:	687b      	ldr	r3, [r7, #4]
 8004858:	6d9b      	ldr	r3, [r3, #88]	@ 0x58
}
 800485a:	4618      	mov	r0, r3
 800485c:	3714      	adds	r7, #20
 800485e:	46bd      	mov	sp, r7
 8004860:	f85d 7b04 	ldr.w	r7, [sp], #4
 8004864:	4770      	bx	lr
 8004866:	bf00      	nop
 8004868:	aaaaaaab 	.word	0xaaaaaaab
 800486c:	080087b4 	.word	0x080087b4

08004870 <DMA_CheckFifoParam>:
  * @param  hdma       pointer to a DMA_HandleTypeDef structure that contains
  *                     the configuration information for the specified DMA Stream. 
  * @retval HAL status
  */
static HAL_StatusTypeDef DMA_CheckFifoParam(DMA_HandleTypeDef *hdma)
{
 8004870:	b480      	push	{r7}
 8004872:	b085      	sub	sp, #20
 8004874:	af00      	add	r7, sp, #0
 8004876:	6078      	str	r0, [r7, #4]
  HAL_StatusTypeDef status = HAL_OK;
 8004878:	2300      	movs	r3, #0
 800487a:	73fb      	strb	r3, [r7, #15]
  uint32_t tmp = hdma->Init.FIFOThreshold;
 800487c:	687b      	ldr	r3, [r7, #4]
 800487e:	6a9b      	ldr	r3, [r3, #40]	@ 0x28
 8004880:	60bb      	str	r3, [r7, #8]
  
  /* Memory Data size equal to Byte */
  if(hdma->Init.MemDataAlignment == DMA_MDATAALIGN_BYTE)
 8004882:	687b      	ldr	r3, [r7, #4]
 8004884:	699b      	ldr	r3, [r3, #24]
 8004886:	2b00      	cmp	r3, #0
 8004888:	d11f      	bne.n	80048ca <DMA_CheckFifoParam+0x5a>
  {
    switch (tmp)
 800488a:	68bb      	ldr	r3, [r7, #8]
 800488c:	2b03      	cmp	r3, #3
 800488e:	d856      	bhi.n	800493e <DMA_CheckFifoParam+0xce>
 8004890:	a201      	add	r2, pc, #4	@ (adr r2, 8004898 <DMA_CheckFifoParam+0x28>)
 8004892:	f852 f023 	ldr.w	pc, [r2, r3, lsl #2]
 8004896:	bf00      	nop
 8004898:	080048a9 	.word	0x080048a9
 800489c:	080048bb 	.word	0x080048bb
 80048a0:	080048a9 	.word	0x080048a9
 80048a4:	0800493f 	.word	0x0800493f
    {
    case DMA_FIFO_THRESHOLD_1QUARTERFULL:
    case DMA_FIFO_THRESHOLD_3QUARTERSFULL:
      if ((hdma->Init.MemBurst & DMA_SxCR_MBURST_1) == DMA_SxCR_MBURST_1)
 80048a8:	687b      	ldr	r3, [r7, #4]
 80048aa:	6adb      	ldr	r3, [r3, #44]	@ 0x2c
 80048ac:	f003 7380 	and.w	r3, r3, #16777216	@ 0x1000000
 80048b0:	2b00      	cmp	r3, #0
 80048b2:	d046      	beq.n	8004942 <DMA_CheckFifoParam+0xd2>
      {
        status = HAL_ERROR;
 80048b4:	2301      	movs	r3, #1
 80048b6:	73fb      	strb	r3, [r7, #15]
      }
      break;
 80048b8:	e043      	b.n	8004942 <DMA_CheckFifoParam+0xd2>
    case DMA_FIFO_THRESHOLD_HALFFULL:
      if (hdma->Init.MemBurst == DMA_MBURST_INC16)
 80048ba:	687b      	ldr	r3, [r7, #4]
 80048bc:	6adb      	ldr	r3, [r3, #44]	@ 0x2c
 80048be:	f1b3 7fc0 	cmp.w	r3, #25165824	@ 0x1800000
 80048c2:	d140      	bne.n	8004946 <DMA_CheckFifoParam+0xd6>
      {
        status = HAL_ERROR;
 80048c4:	2301      	movs	r3, #1
 80048c6:	73fb      	strb	r3, [r7, #15]
      }
      break;
 80048c8:	e03d      	b.n	8004946 <DMA_CheckFifoParam+0xd6>
      break;
    }
  }
  
  /* Memory Data size equal to Half-Word */
  else if (hdma->Init.MemDataAlignment == DMA_MDATAALIGN_HALFWORD)
 80048ca:	687b      	ldr	r3, [r7, #4]
 80048cc:	699b      	ldr	r3, [r3, #24]
 80048ce:	f5b3 5f00 	cmp.w	r3, #8192	@ 0x2000
 80048d2:	d121      	bne.n	8004918 <DMA_CheckFifoParam+0xa8>
  {
    switch (tmp)
 80048d4:	68bb      	ldr	r3, [r7, #8]
 80048d6:	2b03      	cmp	r3, #3
 80048d8:	d837      	bhi.n	800494a <DMA_CheckFifoParam+0xda>
 80048da:	a201      	add	r2, pc, #4	@ (adr r2, 80048e0 <DMA_CheckFifoParam+0x70>)
 80048dc:	f852 f023 	ldr.w	pc, [r2, r3, lsl #2]
 80048e0:	080048f1 	.word	0x080048f1
 80048e4:	080048f7 	.word	0x080048f7
 80048e8:	080048f1 	.word	0x080048f1
 80048ec:	08004909 	.word	0x08004909
    {
    case DMA_FIFO_THRESHOLD_1QUARTERFULL:
    case DMA_FIFO_THRESHOLD_3QUARTERSFULL:
      status = HAL_ERROR;
 80048f0:	2301      	movs	r3, #1
 80048f2:	73fb      	strb	r3, [r7, #15]
      break;
 80048f4:	e030      	b.n	8004958 <DMA_CheckFifoParam+0xe8>
    case DMA_FIFO_THRESHOLD_HALFFULL:
      if ((hdma->Init.MemBurst & DMA_SxCR_MBURST_1) == DMA_SxCR_MBURST_1)
 80048f6:	687b      	ldr	r3, [r7, #4]
 80048f8:	6adb      	ldr	r3, [r3, #44]	@ 0x2c
 80048fa:	f003 7380 	and.w	r3, r3, #16777216	@ 0x1000000
 80048fe:	2b00      	cmp	r3, #0
 8004900:	d025      	beq.n	800494e <DMA_CheckFifoParam+0xde>
      {
        status = HAL_ERROR;
 8004902:	2301      	movs	r3, #1
 8004904:	73fb      	strb	r3, [r7, #15]
      }
      break;
 8004906:	e022      	b.n	800494e <DMA_CheckFifoParam+0xde>
    case DMA_FIFO_THRESHOLD_FULL:
      if (hdma->Init.MemBurst == DMA_MBURST_INC16)
 8004908:	687b      	ldr	r3, [r7, #4]
 800490a:	6adb      	ldr	r3, [r3, #44]	@ 0x2c
 800490c:	f1b3 7fc0 	cmp.w	r3, #25165824	@ 0x1800000
 8004910:	d11f      	bne.n	8004952 <DMA_CheckFifoParam+0xe2>
      {
        status = HAL_ERROR;
 8004912:	2301      	movs	r3, #1
 8004914:	73fb      	strb	r3, [r7, #15]
      }
      break;   
 8004916:	e01c      	b.n	8004952 <DMA_CheckFifoParam+0xe2>
  }
  
  /* Memory Data size equal to Word */
  else
  {
    switch (tmp)
 8004918:	68bb      	ldr	r3, [r7, #8]
 800491a:	2b02      	cmp	r3, #2
 800491c:	d903      	bls.n	8004926 <DMA_CheckFifoParam+0xb6>
 800491e:	68bb      	ldr	r3, [r7, #8]
 8004920:	2b03      	cmp	r3, #3
 8004922:	d003      	beq.n	800492c <DMA_CheckFifoParam+0xbc>
      {
        status = HAL_ERROR;
      }
      break;
    default:
      break;
 8004924:	e018      	b.n	8004958 <DMA_CheckFifoParam+0xe8>
      status = HAL_ERROR;
 8004926:	2301      	movs	r3, #1
 8004928:	73fb      	strb	r3, [r7, #15]
      break;
 800492a:	e015      	b.n	8004958 <DMA_CheckFifoParam+0xe8>
      if ((hdma->Init.MemBurst & DMA_SxCR_MBURST_1) == DMA_SxCR_MBURST_1)
 800492c:	687b      	ldr	r3, [r7, #4]
 800492e:	6adb      	ldr	r3, [r3, #44]	@ 0x2c
 8004930:	f003 7380 	and.w	r3, r3, #16777216	@ 0x1000000
 8004934:	2b00      	cmp	r3, #0
 8004936:	d00e      	beq.n	8004956 <DMA_CheckFifoParam+0xe6>
        status = HAL_ERROR;
 8004938:	2301      	movs	r3, #1
 800493a:	73fb      	strb	r3, [r7, #15]
      break;
 800493c:	e00b      	b.n	8004956 <DMA_CheckFifoParam+0xe6>
      break;
 800493e:	bf00      	nop
 8004940:	e00a      	b.n	8004958 <DMA_CheckFifoParam+0xe8>
      break;
 8004942:	bf00      	nop
 8004944:	e008      	b.n	8004958 <DMA_CheckFifoParam+0xe8>
      break;
 8004946:	bf00      	nop
 8004948:	e006      	b.n	8004958 <DMA_CheckFifoParam+0xe8>
      break;
 800494a:	bf00      	nop
 800494c:	e004      	b.n	8004958 <DMA_CheckFifoParam+0xe8>
      break;
 800494e:	bf00      	nop
 8004950:	e002      	b.n	8004958 <DMA_CheckFifoParam+0xe8>
      break;   
 8004952:	bf00      	nop
 8004954:	e000      	b.n	8004958 <DMA_CheckFifoParam+0xe8>
      break;
 8004956:	bf00      	nop
    }
  } 
  
  return status; 
 8004958:	7bfb      	ldrb	r3, [r7, #15]
}
 800495a:	4618      	mov	r0, r3
 800495c:	3714      	adds	r7, #20
 800495e:	46bd      	mov	sp, r7
 8004960:	f85d 7b04 	ldr.w	r7, [sp], #4
 8004964:	4770      	bx	lr
 8004966:	bf00      	nop

08004968 <HAL_GPIO_Init>:
  * @param  GPIO_Init pointer to a GPIO_InitTypeDef structure that contains
  *         the configuration information for the specified GPIO peripheral.
  * @retval None
  */
void HAL_GPIO_Init(GPIO_TypeDef  *GPIOx, GPIO_InitTypeDef *GPIO_Init)
{
 8004968:	b480      	push	{r7}
 800496a:	b089      	sub	sp, #36	@ 0x24
 800496c:	af00      	add	r7, sp, #0
 800496e:	6078      	str	r0, [r7, #4]
 8004970:	6039      	str	r1, [r7, #0]
  uint32_t position;
  uint32_t ioposition = 0x00U;
 8004972:	2300      	movs	r3, #0
 8004974:	617b      	str	r3, [r7, #20]
  uint32_t iocurrent = 0x00U;
 8004976:	2300      	movs	r3, #0
 8004978:	613b      	str	r3, [r7, #16]
  uint32_t temp = 0x00U;
 800497a:	2300      	movs	r3, #0
 800497c:	61bb      	str	r3, [r7, #24]
  assert_param(IS_GPIO_ALL_INSTANCE(GPIOx));
  assert_param(IS_GPIO_PIN(GPIO_Init->Pin));
  assert_param(IS_GPIO_MODE(GPIO_Init->Mode));

  /* Configure the port pins */
  for(position = 0U; position < GPIO_NUMBER; position++)
 800497e:	2300      	movs	r3, #0
 8004980:	61fb      	str	r3, [r7, #28]
 8004982:	e165      	b.n	8004c50 <HAL_GPIO_Init+0x2e8>
  {
    /* Get the IO position */
    ioposition = 0x01U << position;
 8004984:	2201      	movs	r2, #1
 8004986:	69fb      	ldr	r3, [r7, #28]
 8004988:	fa02 f303 	lsl.w	r3, r2, r3
 800498c:	617b      	str	r3, [r7, #20]
    /* Get the current IO position */
    iocurrent = (uint32_t)(GPIO_Init->Pin) & ioposition;
 800498e:	683b      	ldr	r3, [r7, #0]
 8004990:	681b      	ldr	r3, [r3, #0]
 8004992:	697a      	ldr	r2, [r7, #20]
 8004994:	4013      	ands	r3, r2
 8004996:	613b      	str	r3, [r7, #16]

    if(iocurrent == ioposition)
 8004998:	693a      	ldr	r2, [r7, #16]
 800499a:	697b      	ldr	r3, [r7, #20]
 800499c:	429a      	cmp	r2, r3
 800499e:	f040 8154 	bne.w	8004c4a <HAL_GPIO_Init+0x2e2>
    {
      /*--------------------- GPIO Mode Configuration ------------------------*/
      /* In case of Output or Alternate function mode selection */
      if(((GPIO_Init->Mode & GPIO_MODE) == MODE_OUTPUT) || \
 80049a2:	683b      	ldr	r3, [r7, #0]
 80049a4:	685b      	ldr	r3, [r3, #4]
 80049a6:	f003 0303 	and.w	r3, r3, #3
 80049aa:	2b01      	cmp	r3, #1
 80049ac:	d005      	beq.n	80049ba <HAL_GPIO_Init+0x52>
          (GPIO_Init->Mode & GPIO_MODE) == MODE_AF)
 80049ae:	683b      	ldr	r3, [r7, #0]
 80049b0:	685b      	ldr	r3, [r3, #4]
 80049b2:	f003 0303 	and.w	r3, r3, #3
      if(((GPIO_Init->Mode & GPIO_MODE) == MODE_OUTPUT) || \
 80049b6:	2b02      	cmp	r3, #2
 80049b8:	d130      	bne.n	8004a1c <HAL_GPIO_Init+0xb4>
      {
        /* Check the Speed parameter */
        assert_param(IS_GPIO_SPEED(GPIO_Init->Speed));
        /* Configure the IO Speed */
        temp = GPIOx->OSPEEDR; 
 80049ba:	687b      	ldr	r3, [r7, #4]
 80049bc:	689b      	ldr	r3, [r3, #8]
 80049be:	61bb      	str	r3, [r7, #24]
        temp &= ~(GPIO_OSPEEDER_OSPEEDR0 << (position * 2U));
 80049c0:	69fb      	ldr	r3, [r7, #28]
 80049c2:	005b      	lsls	r3, r3, #1
 80049c4:	2203      	movs	r2, #3
 80049c6:	fa02 f303 	lsl.w	r3, r2, r3
 80049ca:	43db      	mvns	r3, r3
 80049cc:	69ba      	ldr	r2, [r7, #24]
 80049ce:	4013      	ands	r3, r2
 80049d0:	61bb      	str	r3, [r7, #24]
        temp |= (GPIO_Init->Speed << (position * 2U));
 80049d2:	683b      	ldr	r3, [r7, #0]
 80049d4:	68da      	ldr	r2, [r3, #12]
 80049d6:	69fb      	ldr	r3, [r7, #28]
 80049d8:	005b      	lsls	r3, r3, #1
 80049da:	fa02 f303 	lsl.w	r3, r2, r3
 80049de:	69ba      	ldr	r2, [r7, #24]
 80049e0:	4313      	orrs	r3, r2
 80049e2:	61bb      	str	r3, [r7, #24]
        GPIOx->OSPEEDR = temp;
 80049e4:	687b      	ldr	r3, [r7, #4]
 80049e6:	69ba      	ldr	r2, [r7, #24]
 80049e8:	609a      	str	r2, [r3, #8]

        /* Configure the IO Output Type */
        temp = GPIOx->OTYPER;
 80049ea:	687b      	ldr	r3, [r7, #4]
 80049ec:	685b      	ldr	r3, [r3, #4]
 80049ee:	61bb      	str	r3, [r7, #24]
        temp &= ~(GPIO_OTYPER_OT_0 << position) ;
 80049f0:	2201      	movs	r2, #1
 80049f2:	69fb      	ldr	r3, [r7, #28]
 80049f4:	fa02 f303 	lsl.w	r3, r2, r3
 80049f8:	43db      	mvns	r3, r3
 80049fa:	69ba      	ldr	r2, [r7, #24]
 80049fc:	4013      	ands	r3, r2
 80049fe:	61bb      	str	r3, [r7, #24]
        temp |= (((GPIO_Init->Mode & OUTPUT_TYPE) >> OUTPUT_TYPE_Pos) << position);
 8004a00:	683b      	ldr	r3, [r7, #0]
 8004a02:	685b      	ldr	r3, [r3, #4]
 8004a04:	091b      	lsrs	r3, r3, #4
 8004a06:	f003 0201 	and.w	r2, r3, #1
 8004a0a:	69fb      	ldr	r3, [r7, #28]
 8004a0c:	fa02 f303 	lsl.w	r3, r2, r3
 8004a10:	69ba      	ldr	r2, [r7, #24]
 8004a12:	4313      	orrs	r3, r2
 8004a14:	61bb      	str	r3, [r7, #24]
        GPIOx->OTYPER = temp;
 8004a16:	687b      	ldr	r3, [r7, #4]
 8004a18:	69ba      	ldr	r2, [r7, #24]
 8004a1a:	605a      	str	r2, [r3, #4]
       }

      if((GPIO_Init->Mode & GPIO_MODE) != MODE_ANALOG)
 8004a1c:	683b      	ldr	r3, [r7, #0]
 8004a1e:	685b      	ldr	r3, [r3, #4]
 8004a20:	f003 0303 	and.w	r3, r3, #3
 8004a24:	2b03      	cmp	r3, #3
 8004a26:	d017      	beq.n	8004a58 <HAL_GPIO_Init+0xf0>
      {
        /* Check the parameters */
        assert_param(IS_GPIO_PULL(GPIO_Init->Pull));
        
        /* Activate the Pull-up or Pull down resistor for the current IO */
        temp = GPIOx->PUPDR;
 8004a28:	687b      	ldr	r3, [r7, #4]
 8004a2a:	68db      	ldr	r3, [r3, #12]
 8004a2c:	61bb      	str	r3, [r7, #24]
        temp &= ~(GPIO_PUPDR_PUPDR0 << (position * 2U));
 8004a2e:	69fb      	ldr	r3, [r7, #28]
 8004a30:	005b      	lsls	r3, r3, #1
 8004a32:	2203      	movs	r2, #3
 8004a34:	fa02 f303 	lsl.w	r3, r2, r3
 8004a38:	43db      	mvns	r3, r3
 8004a3a:	69ba      	ldr	r2, [r7, #24]
 8004a3c:	4013      	ands	r3, r2
 8004a3e:	61bb      	str	r3, [r7, #24]
        temp |= ((GPIO_Init->Pull) << (position * 2U));
 8004a40:	683b      	ldr	r3, [r7, #0]
 8004a42:	689a      	ldr	r2, [r3, #8]
 8004a44:	69fb      	ldr	r3, [r7, #28]
 8004a46:	005b      	lsls	r3, r3, #1
 8004a48:	fa02 f303 	lsl.w	r3, r2, r3
 8004a4c:	69ba      	ldr	r2, [r7, #24]
 8004a4e:	4313      	orrs	r3, r2
 8004a50:	61bb      	str	r3, [r7, #24]
        GPIOx->PUPDR = temp;
 8004a52:	687b      	ldr	r3, [r7, #4]
 8004a54:	69ba      	ldr	r2, [r7, #24]
 8004a56:	60da      	str	r2, [r3, #12]
      }

      /* In case of Alternate function mode selection */
      if((GPIO_Init->Mode & GPIO_MODE) == MODE_AF)
 8004a58:	683b      	ldr	r3, [r7, #0]
 8004a5a:	685b      	ldr	r3, [r3, #4]
 8004a5c:	f003 0303 	and.w	r3, r3, #3
 8004a60:	2b02      	cmp	r3, #2
 8004a62:	d123      	bne.n	8004aac <HAL_GPIO_Init+0x144>
      {
        /* Check the Alternate function parameter */
        assert_param(IS_GPIO_AF(GPIO_Init->Alternate));
        /* Configure Alternate function mapped with the current IO */
        temp = GPIOx->AFR[position >> 3U];
 8004a64:	69fb      	ldr	r3, [r7, #28]
 8004a66:	08da      	lsrs	r2, r3, #3
 8004a68:	687b      	ldr	r3, [r7, #4]
 8004a6a:	3208      	adds	r2, #8
 8004a6c:	f853 3022 	ldr.w	r3, [r3, r2, lsl #2]
 8004a70:	61bb      	str	r3, [r7, #24]
        temp &= ~(0xFU << ((uint32_t)(position & 0x07U) * 4U)) ;
 8004a72:	69fb      	ldr	r3, [r7, #28]
 8004a74:	f003 0307 	and.w	r3, r3, #7
 8004a78:	009b      	lsls	r3, r3, #2
 8004a7a:	220f      	movs	r2, #15
 8004a7c:	fa02 f303 	lsl.w	r3, r2, r3
 8004a80:	43db      	mvns	r3, r3
 8004a82:	69ba      	ldr	r2, [r7, #24]
 8004a84:	4013      	ands	r3, r2
 8004a86:	61bb      	str	r3, [r7, #24]
        temp |= ((uint32_t)(GPIO_Init->Alternate) << (((uint32_t)position & 0x07U) * 4U));
 8004a88:	683b      	ldr	r3, [r7, #0]
 8004a8a:	691a      	ldr	r2, [r3, #16]
 8004a8c:	69fb      	ldr	r3, [r7, #28]
 8004a8e:	f003 0307 	and.w	r3, r3, #7
 8004a92:	009b      	lsls	r3, r3, #2
 8004a94:	fa02 f303 	lsl.w	r3, r2, r3
 8004a98:	69ba      	ldr	r2, [r7, #24]
 8004a9a:	4313      	orrs	r3, r2
 8004a9c:	61bb      	str	r3, [r7, #24]
        GPIOx->AFR[position >> 3U] = temp;
 8004a9e:	69fb      	ldr	r3, [r7, #28]
 8004aa0:	08da      	lsrs	r2, r3, #3
 8004aa2:	687b      	ldr	r3, [r7, #4]
 8004aa4:	3208      	adds	r2, #8
 8004aa6:	69b9      	ldr	r1, [r7, #24]
 8004aa8:	f843 1022 	str.w	r1, [r3, r2, lsl #2]
      }

      /* Configure IO Direction mode (Input, Output, Alternate or Analog) */
      temp = GPIOx->MODER;
 8004aac:	687b      	ldr	r3, [r7, #4]
 8004aae:	681b      	ldr	r3, [r3, #0]
 8004ab0:	61bb      	str	r3, [r7, #24]
      temp &= ~(GPIO_MODER_MODER0 << (position * 2U));
 8004ab2:	69fb      	ldr	r3, [r7, #28]
 8004ab4:	005b      	lsls	r3, r3, #1
 8004ab6:	2203      	movs	r2, #3
 8004ab8:	fa02 f303 	lsl.w	r3, r2, r3
 8004abc:	43db      	mvns	r3, r3
 8004abe:	69ba      	ldr	r2, [r7, #24]
 8004ac0:	4013      	ands	r3, r2
 8004ac2:	61bb      	str	r3, [r7, #24]
      temp |= ((GPIO_Init->Mode & GPIO_MODE) << (position * 2U));
 8004ac4:	683b      	ldr	r3, [r7, #0]
 8004ac6:	685b      	ldr	r3, [r3, #4]
 8004ac8:	f003 0203 	and.w	r2, r3, #3
 8004acc:	69fb      	ldr	r3, [r7, #28]
 8004ace:	005b      	lsls	r3, r3, #1
 8004ad0:	fa02 f303 	lsl.w	r3, r2, r3
 8004ad4:	69ba      	ldr	r2, [r7, #24]
 8004ad6:	4313      	orrs	r3, r2
 8004ad8:	61bb      	str	r3, [r7, #24]
      GPIOx->MODER = temp;
 8004ada:	687b      	ldr	r3, [r7, #4]
 8004adc:	69ba      	ldr	r2, [r7, #24]
 8004ade:	601a      	str	r2, [r3, #0]

      /*--------------------- EXTI Mode Configuration ------------------------*/
      /* Configure the External Interrupt or event for the current IO */
      if((GPIO_Init->Mode & EXTI_MODE) != 0x00U)
 8004ae0:	683b      	ldr	r3, [r7, #0]
 8004ae2:	685b      	ldr	r3, [r3, #4]
 8004ae4:	f403 3340 	and.w	r3, r3, #196608	@ 0x30000
 8004ae8:	2b00      	cmp	r3, #0
 8004aea:	f000 80ae 	beq.w	8004c4a <HAL_GPIO_Init+0x2e2>
      {
        /* Enable SYSCFG Clock */
        __HAL_RCC_SYSCFG_CLK_ENABLE();
 8004aee:	2300      	movs	r3, #0
 8004af0:	60fb      	str	r3, [r7, #12]
 8004af2:	4b5d      	ldr	r3, [pc, #372]	@ (8004c68 <HAL_GPIO_Init+0x300>)
 8004af4:	6c5b      	ldr	r3, [r3, #68]	@ 0x44
 8004af6:	4a5c      	ldr	r2, [pc, #368]	@ (8004c68 <HAL_GPIO_Init+0x300>)
 8004af8:	f443 4380 	orr.w	r3, r3, #16384	@ 0x4000
 8004afc:	6453      	str	r3, [r2, #68]	@ 0x44
 8004afe:	4b5a      	ldr	r3, [pc, #360]	@ (8004c68 <HAL_GPIO_Init+0x300>)
 8004b00:	6c5b      	ldr	r3, [r3, #68]	@ 0x44
 8004b02:	f403 4380 	and.w	r3, r3, #16384	@ 0x4000
 8004b06:	60fb      	str	r3, [r7, #12]
 8004b08:	68fb      	ldr	r3, [r7, #12]

        temp = SYSCFG->EXTICR[position >> 2U];
 8004b0a:	4a58      	ldr	r2, [pc, #352]	@ (8004c6c <HAL_GPIO_Init+0x304>)
 8004b0c:	69fb      	ldr	r3, [r7, #28]
 8004b0e:	089b      	lsrs	r3, r3, #2
 8004b10:	3302      	adds	r3, #2
 8004b12:	f852 3023 	ldr.w	r3, [r2, r3, lsl #2]
 8004b16:	61bb      	str	r3, [r7, #24]
        temp &= ~(0x0FU << (4U * (position & 0x03U)));
 8004b18:	69fb      	ldr	r3, [r7, #28]
 8004b1a:	f003 0303 	and.w	r3, r3, #3
 8004b1e:	009b      	lsls	r3, r3, #2
 8004b20:	220f      	movs	r2, #15
 8004b22:	fa02 f303 	lsl.w	r3, r2, r3
 8004b26:	43db      	mvns	r3, r3
 8004b28:	69ba      	ldr	r2, [r7, #24]
 8004b2a:	4013      	ands	r3, r2
 8004b2c:	61bb      	str	r3, [r7, #24]
        temp |= ((uint32_t)(GPIO_GET_INDEX(GPIOx)) << (4U * (position & 0x03U)));
 8004b2e:	687b      	ldr	r3, [r7, #4]
 8004b30:	4a4f      	ldr	r2, [pc, #316]	@ (8004c70 <HAL_GPIO_Init+0x308>)
 8004b32:	4293      	cmp	r3, r2
 8004b34:	d025      	beq.n	8004b82 <HAL_GPIO_Init+0x21a>
 8004b36:	687b      	ldr	r3, [r7, #4]
 8004b38:	4a4e      	ldr	r2, [pc, #312]	@ (8004c74 <HAL_GPIO_Init+0x30c>)
 8004b3a:	4293      	cmp	r3, r2
 8004b3c:	d01f      	beq.n	8004b7e <HAL_GPIO_Init+0x216>
 8004b3e:	687b      	ldr	r3, [r7, #4]
 8004b40:	4a4d      	ldr	r2, [pc, #308]	@ (8004c78 <HAL_GPIO_Init+0x310>)
 8004b42:	4293      	cmp	r3, r2
 8004b44:	d019      	beq.n	8004b7a <HAL_GPIO_Init+0x212>
 8004b46:	687b      	ldr	r3, [r7, #4]
 8004b48:	4a4c      	ldr	r2, [pc, #304]	@ (8004c7c <HAL_GPIO_Init+0x314>)
 8004b4a:	4293      	cmp	r3, r2
 8004b4c:	d013      	beq.n	8004b76 <HAL_GPIO_Init+0x20e>
 8004b4e:	687b      	ldr	r3, [r7, #4]
 8004b50:	4a4b      	ldr	r2, [pc, #300]	@ (8004c80 <HAL_GPIO_Init+0x318>)
 8004b52:	4293      	cmp	r3, r2
 8004b54:	d00d      	beq.n	8004b72 <HAL_GPIO_Init+0x20a>
 8004b56:	687b      	ldr	r3, [r7, #4]
 8004b58:	4a4a      	ldr	r2, [pc, #296]	@ (8004c84 <HAL_GPIO_Init+0x31c>)
 8004b5a:	4293      	cmp	r3, r2
 8004b5c:	d007      	beq.n	8004b6e <HAL_GPIO_Init+0x206>
 8004b5e:	687b      	ldr	r3, [r7, #4]
 8004b60:	4a49      	ldr	r2, [pc, #292]	@ (8004c88 <HAL_GPIO_Init+0x320>)
 8004b62:	4293      	cmp	r3, r2
 8004b64:	d101      	bne.n	8004b6a <HAL_GPIO_Init+0x202>
 8004b66:	2306      	movs	r3, #6
 8004b68:	e00c      	b.n	8004b84 <HAL_GPIO_Init+0x21c>
 8004b6a:	2307      	movs	r3, #7
 8004b6c:	e00a      	b.n	8004b84 <HAL_GPIO_Init+0x21c>
 8004b6e:	2305      	movs	r3, #5
 8004b70:	e008      	b.n	8004b84 <HAL_GPIO_Init+0x21c>
 8004b72:	2304      	movs	r3, #4
 8004b74:	e006      	b.n	8004b84 <HAL_GPIO_Init+0x21c>
 8004b76:	2303      	movs	r3, #3
 8004b78:	e004      	b.n	8004b84 <HAL_GPIO_Init+0x21c>
 8004b7a:	2302      	movs	r3, #2
 8004b7c:	e002      	b.n	8004b84 <HAL_GPIO_Init+0x21c>
 8004b7e:	2301      	movs	r3, #1
 8004b80:	e000      	b.n	8004b84 <HAL_GPIO_Init+0x21c>
 8004b82:	2300      	movs	r3, #0
 8004b84:	69fa      	ldr	r2, [r7, #28]
 8004b86:	f002 0203 	and.w	r2, r2, #3
 8004b8a:	0092      	lsls	r2, r2, #2
 8004b8c:	4093      	lsls	r3, r2
 8004b8e:	69ba      	ldr	r2, [r7, #24]
 8004b90:	4313      	orrs	r3, r2
 8004b92:	61bb      	str	r3, [r7, #24]
        SYSCFG->EXTICR[position >> 2U] = temp;
 8004b94:	4935      	ldr	r1, [pc, #212]	@ (8004c6c <HAL_GPIO_Init+0x304>)
 8004b96:	69fb      	ldr	r3, [r7, #28]
 8004b98:	089b      	lsrs	r3, r3, #2
 8004b9a:	3302      	adds	r3, #2
 8004b9c:	69ba      	ldr	r2, [r7, #24]
 8004b9e:	f841 2023 	str.w	r2, [r1, r3, lsl #2]

        /* Clear Rising Falling edge configuration */
        temp = EXTI->RTSR;
 8004ba2:	4b3a      	ldr	r3, [pc, #232]	@ (8004c8c <HAL_GPIO_Init+0x324>)
 8004ba4:	689b      	ldr	r3, [r3, #8]
 8004ba6:	61bb      	str	r3, [r7, #24]
        temp &= ~((uint32_t)iocurrent);
 8004ba8:	693b      	ldr	r3, [r7, #16]
 8004baa:	43db      	mvns	r3, r3
 8004bac:	69ba      	ldr	r2, [r7, #24]
 8004bae:	4013      	ands	r3, r2
 8004bb0:	61bb      	str	r3, [r7, #24]
        if((GPIO_Init->Mode & TRIGGER_RISING) != 0x00U)
 8004bb2:	683b      	ldr	r3, [r7, #0]
 8004bb4:	685b      	ldr	r3, [r3, #4]
 8004bb6:	f403 1380 	and.w	r3, r3, #1048576	@ 0x100000
 8004bba:	2b00      	cmp	r3, #0
 8004bbc:	d003      	beq.n	8004bc6 <HAL_GPIO_Init+0x25e>
        {
          temp |= iocurrent;
 8004bbe:	69ba      	ldr	r2, [r7, #24]
 8004bc0:	693b      	ldr	r3, [r7, #16]
 8004bc2:	4313      	orrs	r3, r2
 8004bc4:	61bb      	str	r3, [r7, #24]
        }
        EXTI->RTSR = temp;
 8004bc6:	4a31      	ldr	r2, [pc, #196]	@ (8004c8c <HAL_GPIO_Init+0x324>)
 8004bc8:	69bb      	ldr	r3, [r7, #24]
 8004bca:	6093      	str	r3, [r2, #8]

        temp = EXTI->FTSR;
 8004bcc:	4b2f      	ldr	r3, [pc, #188]	@ (8004c8c <HAL_GPIO_Init+0x324>)
 8004bce:	68db      	ldr	r3, [r3, #12]
 8004bd0:	61bb      	str	r3, [r7, #24]
        temp &= ~((uint32_t)iocurrent);
 8004bd2:	693b      	ldr	r3, [r7, #16]
 8004bd4:	43db      	mvns	r3, r3
 8004bd6:	69ba      	ldr	r2, [r7, #24]
 8004bd8:	4013      	ands	r3, r2
 8004bda:	61bb      	str	r3, [r7, #24]
        if((GPIO_Init->Mode & TRIGGER_FALLING) != 0x00U)
 8004bdc:	683b      	ldr	r3, [r7, #0]
 8004bde:	685b      	ldr	r3, [r3, #4]
 8004be0:	f403 1300 	and.w	r3, r3, #2097152	@ 0x200000
 8004be4:	2b00      	cmp	r3, #0
 8004be6:	d003      	beq.n	8004bf0 <HAL_GPIO_Init+0x288>
        {
          temp |= iocurrent;
 8004be8:	69ba      	ldr	r2, [r7, #24]
 8004bea:	693b      	ldr	r3, [r7, #16]
 8004bec:	4313      	orrs	r3, r2
 8004bee:	61bb      	str	r3, [r7, #24]
        }
        EXTI->FTSR = temp;
 8004bf0:	4a26      	ldr	r2, [pc, #152]	@ (8004c8c <HAL_GPIO_Init+0x324>)
 8004bf2:	69bb      	ldr	r3, [r7, #24]
 8004bf4:	60d3      	str	r3, [r2, #12]

        temp = EXTI->EMR;
 8004bf6:	4b25      	ldr	r3, [pc, #148]	@ (8004c8c <HAL_GPIO_Init+0x324>)
 8004bf8:	685b      	ldr	r3, [r3, #4]
 8004bfa:	61bb      	str	r3, [r7, #24]
        temp &= ~((uint32_t)iocurrent);
 8004bfc:	693b      	ldr	r3, [r7, #16]
 8004bfe:	43db      	mvns	r3, r3
 8004c00:	69ba      	ldr	r2, [r7, #24]
 8004c02:	4013      	ands	r3, r2
 8004c04:	61bb      	str	r3, [r7, #24]
        if((GPIO_Init->Mode & EXTI_EVT) != 0x00U)
 8004c06:	683b      	ldr	r3, [r7, #0]
 8004c08:	685b      	ldr	r3, [r3, #4]
 8004c0a:	f403 3300 	and.w	r3, r3, #131072	@ 0x20000
 8004c0e:	2b00      	cmp	r3, #0
 8004c10:	d003      	beq.n	8004c1a <HAL_GPIO_Init+0x2b2>
        {
          temp |= iocurrent;
 8004c12:	69ba      	ldr	r2, [r7, #24]
 8004c14:	693b      	ldr	r3, [r7, #16]
 8004c16:	4313      	orrs	r3, r2
 8004c18:	61bb      	str	r3, [r7, #24]
        }
        EXTI->EMR = temp;
 8004c1a:	4a1c      	ldr	r2, [pc, #112]	@ (8004c8c <HAL_GPIO_Init+0x324>)
 8004c1c:	69bb      	ldr	r3, [r7, #24]
 8004c1e:	6053      	str	r3, [r2, #4]

        /* Clear EXTI line configuration */
        temp = EXTI->IMR;
 8004c20:	4b1a      	ldr	r3, [pc, #104]	@ (8004c8c <HAL_GPIO_Init+0x324>)
 8004c22:	681b      	ldr	r3, [r3, #0]
 8004c24:	61bb      	str	r3, [r7, #24]
        temp &= ~((uint32_t)iocurrent);
 8004c26:	693b      	ldr	r3, [r7, #16]
 8004c28:	43db      	mvns	r3, r3
 8004c2a:	69ba      	ldr	r2, [r7, #24]
 8004c2c:	4013      	ands	r3, r2
 8004c2e:	61bb      	str	r3, [r7, #24]
        if((GPIO_Init->Mode & EXTI_IT) != 0x00U)
 8004c30:	683b      	ldr	r3, [r7, #0]
 8004c32:	685b      	ldr	r3, [r3, #4]
 8004c34:	f403 3380 	and.w	r3, r3, #65536	@ 0x10000
 8004c38:	2b00      	cmp	r3, #0
 8004c3a:	d003      	beq.n	8004c44 <HAL_GPIO_Init+0x2dc>
        {
          temp |= iocurrent;
 8004c3c:	69ba      	ldr	r2, [r7, #24]
 8004c3e:	693b      	ldr	r3, [r7, #16]
 8004c40:	4313      	orrs	r3, r2
 8004c42:	61bb      	str	r3, [r7, #24]
        }
        EXTI->IMR = temp;
 8004c44:	4a11      	ldr	r2, [pc, #68]	@ (8004c8c <HAL_GPIO_Init+0x324>)
 8004c46:	69bb      	ldr	r3, [r7, #24]
 8004c48:	6013      	str	r3, [r2, #0]
  for(position = 0U; position < GPIO_NUMBER; position++)
 8004c4a:	69fb      	ldr	r3, [r7, #28]
 8004c4c:	3301      	adds	r3, #1
 8004c4e:	61fb      	str	r3, [r7, #28]
 8004c50:	69fb      	ldr	r3, [r7, #28]
 8004c52:	2b0f      	cmp	r3, #15
 8004c54:	f67f ae96 	bls.w	8004984 <HAL_GPIO_Init+0x1c>
      }
    }
  }
}
 8004c58:	bf00      	nop
 8004c5a:	bf00      	nop
 8004c5c:	3724      	adds	r7, #36	@ 0x24
 8004c5e:	46bd      	mov	sp, r7
 8004c60:	f85d 7b04 	ldr.w	r7, [sp], #4
 8004c64:	4770      	bx	lr
 8004c66:	bf00      	nop
 8004c68:	40023800 	.word	0x40023800
 8004c6c:	40013800 	.word	0x40013800
 8004c70:	40020000 	.word	0x40020000
 8004c74:	40020400 	.word	0x40020400
 8004c78:	40020800 	.word	0x40020800
 8004c7c:	40020c00 	.word	0x40020c00
 8004c80:	40021000 	.word	0x40021000
 8004c84:	40021400 	.word	0x40021400
 8004c88:	40021800 	.word	0x40021800
 8004c8c:	40013c00 	.word	0x40013c00

08004c90 <HAL_GPIO_DeInit>:
  * @param  GPIO_Pin specifies the port bit to be written.
  *          This parameter can be one of GPIO_PIN_x where x can be (0..15).
  * @retval None
  */
void HAL_GPIO_DeInit(GPIO_TypeDef  *GPIOx, uint32_t GPIO_Pin)
{
 8004c90:	b480      	push	{r7}
 8004c92:	b087      	sub	sp, #28
 8004c94:	af00      	add	r7, sp, #0
 8004c96:	6078      	str	r0, [r7, #4]
 8004c98:	6039      	str	r1, [r7, #0]
  uint32_t position;
  uint32_t ioposition = 0x00U;
 8004c9a:	2300      	movs	r3, #0
 8004c9c:	613b      	str	r3, [r7, #16]
  uint32_t iocurrent = 0x00U;
 8004c9e:	2300      	movs	r3, #0
 8004ca0:	60fb      	str	r3, [r7, #12]
  uint32_t tmp = 0x00U;
 8004ca2:	2300      	movs	r3, #0
 8004ca4:	60bb      	str	r3, [r7, #8]

  /* Check the parameters */
  assert_param(IS_GPIO_ALL_INSTANCE(GPIOx));
  
  /* Configure the port pins */
  for(position = 0U; position < GPIO_NUMBER; position++)
 8004ca6:	2300      	movs	r3, #0
 8004ca8:	617b      	str	r3, [r7, #20]
 8004caa:	e0c7      	b.n	8004e3c <HAL_GPIO_DeInit+0x1ac>
  {
    /* Get the IO position */
    ioposition = 0x01U << position;
 8004cac:	2201      	movs	r2, #1
 8004cae:	697b      	ldr	r3, [r7, #20]
 8004cb0:	fa02 f303 	lsl.w	r3, r2, r3
 8004cb4:	613b      	str	r3, [r7, #16]
    /* Get the current IO position */
    iocurrent = (GPIO_Pin) & ioposition;
 8004cb6:	683a      	ldr	r2, [r7, #0]
 8004cb8:	693b      	ldr	r3, [r7, #16]
 8004cba:	4013      	ands	r3, r2
 8004cbc:	60fb      	str	r3, [r7, #12]

    if(iocurrent == ioposition)
 8004cbe:	68fa      	ldr	r2, [r7, #12]
 8004cc0:	693b      	ldr	r3, [r7, #16]
 8004cc2:	429a      	cmp	r2, r3
 8004cc4:	f040 80b7 	bne.w	8004e36 <HAL_GPIO_DeInit+0x1a6>
    {
      /*------------------------- EXTI Mode Configuration --------------------*/
      tmp = SYSCFG->EXTICR[position >> 2U];
 8004cc8:	4a62      	ldr	r2, [pc, #392]	@ (8004e54 <HAL_GPIO_DeInit+0x1c4>)
 8004cca:	697b      	ldr	r3, [r7, #20]
 8004ccc:	089b      	lsrs	r3, r3, #2
 8004cce:	3302      	adds	r3, #2
 8004cd0:	f852 3023 	ldr.w	r3, [r2, r3, lsl #2]
 8004cd4:	60bb      	str	r3, [r7, #8]
      tmp &= (0x0FU << (4U * (position & 0x03U)));
 8004cd6:	697b      	ldr	r3, [r7, #20]
 8004cd8:	f003 0303 	and.w	r3, r3, #3
 8004cdc:	009b      	lsls	r3, r3, #2
 8004cde:	220f      	movs	r2, #15
 8004ce0:	fa02 f303 	lsl.w	r3, r2, r3
 8004ce4:	68ba      	ldr	r2, [r7, #8]
 8004ce6:	4013      	ands	r3, r2
 8004ce8:	60bb      	str	r3, [r7, #8]
      if(tmp == ((uint32_t)(GPIO_GET_INDEX(GPIOx)) << (4U * (position & 0x03U))))
 8004cea:	687b      	ldr	r3, [r7, #4]
 8004cec:	4a5a      	ldr	r2, [pc, #360]	@ (8004e58 <HAL_GPIO_DeInit+0x1c8>)
 8004cee:	4293      	cmp	r3, r2
 8004cf0:	d025      	beq.n	8004d3e <HAL_GPIO_DeInit+0xae>
 8004cf2:	687b      	ldr	r3, [r7, #4]
 8004cf4:	4a59      	ldr	r2, [pc, #356]	@ (8004e5c <HAL_GPIO_DeInit+0x1cc>)
 8004cf6:	4293      	cmp	r3, r2
 8004cf8:	d01f      	beq.n	8004d3a <HAL_GPIO_DeInit+0xaa>
 8004cfa:	687b      	ldr	r3, [r7, #4]
 8004cfc:	4a58      	ldr	r2, [pc, #352]	@ (8004e60 <HAL_GPIO_DeInit+0x1d0>)
 8004cfe:	4293      	cmp	r3, r2
 8004d00:	d019      	beq.n	8004d36 <HAL_GPIO_DeInit+0xa6>
 8004d02:	687b      	ldr	r3, [r7, #4]
 8004d04:	4a57      	ldr	r2, [pc, #348]	@ (8004e64 <HAL_GPIO_DeInit+0x1d4>)
 8004d06:	4293      	cmp	r3, r2
 8004d08:	d013      	beq.n	8004d32 <HAL_GPIO_DeInit+0xa2>
 8004d0a:	687b      	ldr	r3, [r7, #4]
 8004d0c:	4a56      	ldr	r2, [pc, #344]	@ (8004e68 <HAL_GPIO_DeInit+0x1d8>)
 8004d0e:	4293      	cmp	r3, r2
 8004d10:	d00d      	beq.n	8004d2e <HAL_GPIO_DeInit+0x9e>
 8004d12:	687b      	ldr	r3, [r7, #4]
 8004d14:	4a55      	ldr	r2, [pc, #340]	@ (8004e6c <HAL_GPIO_DeInit+0x1dc>)
 8004d16:	4293      	cmp	r3, r2
 8004d18:	d007      	beq.n	8004d2a <HAL_GPIO_DeInit+0x9a>
 8004d1a:	687b      	ldr	r3, [r7, #4]
 8004d1c:	4a54      	ldr	r2, [pc, #336]	@ (8004e70 <HAL_GPIO_DeInit+0x1e0>)
 8004d1e:	4293      	cmp	r3, r2
 8004d20:	d101      	bne.n	8004d26 <HAL_GPIO_DeInit+0x96>
 8004d22:	2306      	movs	r3, #6
 8004d24:	e00c      	b.n	8004d40 <HAL_GPIO_DeInit+0xb0>
 8004d26:	2307      	movs	r3, #7
 8004d28:	e00a      	b.n	8004d40 <HAL_GPIO_DeInit+0xb0>
 8004d2a:	2305      	movs	r3, #5
 8004d2c:	e008      	b.n	8004d40 <HAL_GPIO_DeInit+0xb0>
 8004d2e:	2304      	movs	r3, #4
 8004d30:	e006      	b.n	8004d40 <HAL_GPIO_DeInit+0xb0>
 8004d32:	2303      	movs	r3, #3
 8004d34:	e004      	b.n	8004d40 <HAL_GPIO_DeInit+0xb0>
 8004d36:	2302      	movs	r3, #2
 8004d38:	e002      	b.n	8004d40 <HAL_GPIO_DeInit+0xb0>
 8004d3a:	2301      	movs	r3, #1
 8004d3c:	e000      	b.n	8004d40 <HAL_GPIO_DeInit+0xb0>
 8004d3e:	2300      	movs	r3, #0
 8004d40:	697a      	ldr	r2, [r7, #20]
 8004d42:	f002 0203 	and.w	r2, r2, #3
 8004d46:	0092      	lsls	r2, r2, #2
 8004d48:	4093      	lsls	r3, r2
 8004d4a:	68ba      	ldr	r2, [r7, #8]
 8004d4c:	429a      	cmp	r2, r3
 8004d4e:	d132      	bne.n	8004db6 <HAL_GPIO_DeInit+0x126>
      {
        /* Clear EXTI line configuration */
        EXTI->IMR &= ~((uint32_t)iocurrent);
 8004d50:	4b48      	ldr	r3, [pc, #288]	@ (8004e74 <HAL_GPIO_DeInit+0x1e4>)
 8004d52:	681a      	ldr	r2, [r3, #0]
 8004d54:	68fb      	ldr	r3, [r7, #12]
 8004d56:	43db      	mvns	r3, r3
 8004d58:	4946      	ldr	r1, [pc, #280]	@ (8004e74 <HAL_GPIO_DeInit+0x1e4>)
 8004d5a:	4013      	ands	r3, r2
 8004d5c:	600b      	str	r3, [r1, #0]
        EXTI->EMR &= ~((uint32_t)iocurrent);
 8004d5e:	4b45      	ldr	r3, [pc, #276]	@ (8004e74 <HAL_GPIO_DeInit+0x1e4>)
 8004d60:	685a      	ldr	r2, [r3, #4]
 8004d62:	68fb      	ldr	r3, [r7, #12]
 8004d64:	43db      	mvns	r3, r3
 8004d66:	4943      	ldr	r1, [pc, #268]	@ (8004e74 <HAL_GPIO_DeInit+0x1e4>)
 8004d68:	4013      	ands	r3, r2
 8004d6a:	604b      	str	r3, [r1, #4]
        
        /* Clear Rising Falling edge configuration */
        EXTI->FTSR &= ~((uint32_t)iocurrent);
 8004d6c:	4b41      	ldr	r3, [pc, #260]	@ (8004e74 <HAL_GPIO_DeInit+0x1e4>)
 8004d6e:	68da      	ldr	r2, [r3, #12]
 8004d70:	68fb      	ldr	r3, [r7, #12]
 8004d72:	43db      	mvns	r3, r3
 8004d74:	493f      	ldr	r1, [pc, #252]	@ (8004e74 <HAL_GPIO_DeInit+0x1e4>)
 8004d76:	4013      	ands	r3, r2
 8004d78:	60cb      	str	r3, [r1, #12]
        EXTI->RTSR &= ~((uint32_t)iocurrent);
 8004d7a:	4b3e      	ldr	r3, [pc, #248]	@ (8004e74 <HAL_GPIO_DeInit+0x1e4>)
 8004d7c:	689a      	ldr	r2, [r3, #8]
 8004d7e:	68fb      	ldr	r3, [r7, #12]
 8004d80:	43db      	mvns	r3, r3
 8004d82:	493c      	ldr	r1, [pc, #240]	@ (8004e74 <HAL_GPIO_DeInit+0x1e4>)
 8004d84:	4013      	ands	r3, r2
 8004d86:	608b      	str	r3, [r1, #8]

        /* Configure the External Interrupt or event for the current IO */
        tmp = 0x0FU << (4U * (position & 0x03U));
 8004d88:	697b      	ldr	r3, [r7, #20]
 8004d8a:	f003 0303 	and.w	r3, r3, #3
 8004d8e:	009b      	lsls	r3, r3, #2
 8004d90:	220f      	movs	r2, #15
 8004d92:	fa02 f303 	lsl.w	r3, r2, r3
 8004d96:	60bb      	str	r3, [r7, #8]
        SYSCFG->EXTICR[position >> 2U] &= ~tmp;
 8004d98:	4a2e      	ldr	r2, [pc, #184]	@ (8004e54 <HAL_GPIO_DeInit+0x1c4>)
 8004d9a:	697b      	ldr	r3, [r7, #20]
 8004d9c:	089b      	lsrs	r3, r3, #2
 8004d9e:	3302      	adds	r3, #2
 8004da0:	f852 1023 	ldr.w	r1, [r2, r3, lsl #2]
 8004da4:	68bb      	ldr	r3, [r7, #8]
 8004da6:	43da      	mvns	r2, r3
 8004da8:	482a      	ldr	r0, [pc, #168]	@ (8004e54 <HAL_GPIO_DeInit+0x1c4>)
 8004daa:	697b      	ldr	r3, [r7, #20]
 8004dac:	089b      	lsrs	r3, r3, #2
 8004dae:	400a      	ands	r2, r1
 8004db0:	3302      	adds	r3, #2
 8004db2:	f840 2023 	str.w	r2, [r0, r3, lsl #2]
      }

      /*------------------------- GPIO Mode Configuration --------------------*/
      /* Configure IO Direction in Input Floating Mode */
      GPIOx->MODER &= ~(GPIO_MODER_MODER0 << (position * 2U));
 8004db6:	687b      	ldr	r3, [r7, #4]
 8004db8:	681a      	ldr	r2, [r3, #0]
 8004dba:	697b      	ldr	r3, [r7, #20]
 8004dbc:	005b      	lsls	r3, r3, #1
 8004dbe:	2103      	movs	r1, #3
 8004dc0:	fa01 f303 	lsl.w	r3, r1, r3
 8004dc4:	43db      	mvns	r3, r3
 8004dc6:	401a      	ands	r2, r3
 8004dc8:	687b      	ldr	r3, [r7, #4]
 8004dca:	601a      	str	r2, [r3, #0]

      /* Configure the default Alternate Function in current IO */
      GPIOx->AFR[position >> 3U] &= ~(0xFU << ((uint32_t)(position & 0x07U) * 4U)) ;
 8004dcc:	697b      	ldr	r3, [r7, #20]
 8004dce:	08da      	lsrs	r2, r3, #3
 8004dd0:	687b      	ldr	r3, [r7, #4]
 8004dd2:	3208      	adds	r2, #8
 8004dd4:	f853 1022 	ldr.w	r1, [r3, r2, lsl #2]
 8004dd8:	697b      	ldr	r3, [r7, #20]
 8004dda:	f003 0307 	and.w	r3, r3, #7
 8004dde:	009b      	lsls	r3, r3, #2
 8004de0:	220f      	movs	r2, #15
 8004de2:	fa02 f303 	lsl.w	r3, r2, r3
 8004de6:	43db      	mvns	r3, r3
 8004de8:	697a      	ldr	r2, [r7, #20]
 8004dea:	08d2      	lsrs	r2, r2, #3
 8004dec:	4019      	ands	r1, r3
 8004dee:	687b      	ldr	r3, [r7, #4]
 8004df0:	3208      	adds	r2, #8
 8004df2:	f843 1022 	str.w	r1, [r3, r2, lsl #2]

      /* Deactivate the Pull-up and Pull-down resistor for the current IO */
      GPIOx->PUPDR &= ~(GPIO_PUPDR_PUPDR0 << (position * 2U));
 8004df6:	687b      	ldr	r3, [r7, #4]
 8004df8:	68da      	ldr	r2, [r3, #12]
 8004dfa:	697b      	ldr	r3, [r7, #20]
 8004dfc:	005b      	lsls	r3, r3, #1
 8004dfe:	2103      	movs	r1, #3
 8004e00:	fa01 f303 	lsl.w	r3, r1, r3
 8004e04:	43db      	mvns	r3, r3
 8004e06:	401a      	ands	r2, r3
 8004e08:	687b      	ldr	r3, [r7, #4]
 8004e0a:	60da      	str	r2, [r3, #12]

      /* Configure the default value IO Output Type */
      GPIOx->OTYPER  &= ~(GPIO_OTYPER_OT_0 << position) ;
 8004e0c:	687b      	ldr	r3, [r7, #4]
 8004e0e:	685a      	ldr	r2, [r3, #4]
 8004e10:	2101      	movs	r1, #1
 8004e12:	697b      	ldr	r3, [r7, #20]
 8004e14:	fa01 f303 	lsl.w	r3, r1, r3
 8004e18:	43db      	mvns	r3, r3
 8004e1a:	401a      	ands	r2, r3
 8004e1c:	687b      	ldr	r3, [r7, #4]
 8004e1e:	605a      	str	r2, [r3, #4]

      /* Configure the default value for IO Speed */
      GPIOx->OSPEEDR &= ~(GPIO_OSPEEDER_OSPEEDR0 << (position * 2U));
 8004e20:	687b      	ldr	r3, [r7, #4]
 8004e22:	689a      	ldr	r2, [r3, #8]
 8004e24:	697b      	ldr	r3, [r7, #20]
 8004e26:	005b      	lsls	r3, r3, #1
 8004e28:	2103      	movs	r1, #3
 8004e2a:	fa01 f303 	lsl.w	r3, r1, r3
 8004e2e:	43db      	mvns	r3, r3
 8004e30:	401a      	ands	r2, r3
 8004e32:	687b      	ldr	r3, [r7, #4]
 8004e34:	609a      	str	r2, [r3, #8]
  for(position = 0U; position < GPIO_NUMBER; position++)
 8004e36:	697b      	ldr	r3, [r7, #20]
 8004e38:	3301      	adds	r3, #1
 8004e3a:	617b      	str	r3, [r7, #20]
 8004e3c:	697b      	ldr	r3, [r7, #20]
 8004e3e:	2b0f      	cmp	r3, #15
 8004e40:	f67f af34 	bls.w	8004cac <HAL_GPIO_DeInit+0x1c>
    }
  }
}
 8004e44:	bf00      	nop
 8004e46:	bf00      	nop
 8004e48:	371c      	adds	r7, #28
 8004e4a:	46bd      	mov	sp, r7
 8004e4c:	f85d 7b04 	ldr.w	r7, [sp], #4
 8004e50:	4770      	bx	lr
 8004e52:	bf00      	nop
 8004e54:	40013800 	.word	0x40013800
 8004e58:	40020000 	.word	0x40020000
 8004e5c:	40020400 	.word	0x40020400
 8004e60:	40020800 	.word	0x40020800
 8004e64:	40020c00 	.word	0x40020c00
 8004e68:	40021000 	.word	0x40021000
 8004e6c:	40021400 	.word	0x40021400
 8004e70:	40021800 	.word	0x40021800
 8004e74:	40013c00 	.word	0x40013c00

08004e78 <HAL_GPIO_ReadPin>:
  * @param  GPIO_Pin specifies the port bit to read.
  *         This parameter can be GPIO_PIN_x where x can be (0..15).
  * @retval The input port pin value.
  */
GPIO_PinState HAL_GPIO_ReadPin(GPIO_TypeDef* GPIOx, uint16_t GPIO_Pin)
{
 8004e78:	b480      	push	{r7}
 8004e7a:	b085      	sub	sp, #20
 8004e7c:	af00      	add	r7, sp, #0
 8004e7e:	6078      	str	r0, [r7, #4]
 8004e80:	460b      	mov	r3, r1
 8004e82:	807b      	strh	r3, [r7, #2]
  GPIO_PinState bitstatus;

  /* Check the parameters */
  assert_param(IS_GPIO_PIN(GPIO_Pin));

  if((GPIOx->IDR & GPIO_Pin) != (uint32_t)GPIO_PIN_RESET)
 8004e84:	687b      	ldr	r3, [r7, #4]
 8004e86:	691a      	ldr	r2, [r3, #16]
 8004e88:	887b      	ldrh	r3, [r7, #2]
 8004e8a:	4013      	ands	r3, r2
 8004e8c:	2b00      	cmp	r3, #0
 8004e8e:	d002      	beq.n	8004e96 <HAL_GPIO_ReadPin+0x1e>
  {
    bitstatus = GPIO_PIN_SET;
 8004e90:	2301      	movs	r3, #1
 8004e92:	73fb      	strb	r3, [r7, #15]
 8004e94:	e001      	b.n	8004e9a <HAL_GPIO_ReadPin+0x22>
  }
  else
  {
    bitstatus = GPIO_PIN_RESET;
 8004e96:	2300      	movs	r3, #0
 8004e98:	73fb      	strb	r3, [r7, #15]
  }
  return bitstatus;
 8004e9a:	7bfb      	ldrb	r3, [r7, #15]
}
 8004e9c:	4618      	mov	r0, r3
 8004e9e:	3714      	adds	r7, #20
 8004ea0:	46bd      	mov	sp, r7
 8004ea2:	f85d 7b04 	ldr.w	r7, [sp], #4
 8004ea6:	4770      	bx	lr

08004ea8 <HAL_GPIO_WritePin>:
  *            @arg GPIO_PIN_RESET: to clear the port pin
  *            @arg GPIO_PIN_SET: to set the port pin
  * @retval None
  */
void HAL_GPIO_WritePin(GPIO_TypeDef* GPIOx, uint16_t GPIO_Pin, GPIO_PinState PinState)
{
 8004ea8:	b480      	push	{r7}
 8004eaa:	b083      	sub	sp, #12
 8004eac:	af00      	add	r7, sp, #0
 8004eae:	6078      	str	r0, [r7, #4]
 8004eb0:	460b      	mov	r3, r1
 8004eb2:	807b      	strh	r3, [r7, #2]
 8004eb4:	4613      	mov	r3, r2
 8004eb6:	707b      	strb	r3, [r7, #1]
  /* Check the parameters */
  assert_param(IS_GPIO_PIN(GPIO_Pin));
  assert_param(IS_GPIO_PIN_ACTION(PinState));

  if(PinState != GPIO_PIN_RESET)
 8004eb8:	787b      	ldrb	r3, [r7, #1]
 8004eba:	2b00      	cmp	r3, #0
 8004ebc:	d003      	beq.n	8004ec6 <HAL_GPIO_WritePin+0x1e>
  {
    GPIOx->BSRR = GPIO_Pin;
 8004ebe:	887a      	ldrh	r2, [r7, #2]
 8004ec0:	687b      	ldr	r3, [r7, #4]
 8004ec2:	619a      	str	r2, [r3, #24]
  }
  else
  {
    GPIOx->BSRR = (uint32_t)GPIO_Pin << 16U;
  }
}
 8004ec4:	e003      	b.n	8004ece <HAL_GPIO_WritePin+0x26>
    GPIOx->BSRR = (uint32_t)GPIO_Pin << 16U;
 8004ec6:	887b      	ldrh	r3, [r7, #2]
 8004ec8:	041a      	lsls	r2, r3, #16
 8004eca:	687b      	ldr	r3, [r7, #4]
 8004ecc:	619a      	str	r2, [r3, #24]
}
 8004ece:	bf00      	nop
 8004ed0:	370c      	adds	r7, #12
 8004ed2:	46bd      	mov	sp, r7
 8004ed4:	f85d 7b04 	ldr.w	r7, [sp], #4
 8004ed8:	4770      	bx	lr

08004eda <HAL_GPIO_TogglePin>:
  *                      x can be (A..I) to select the GPIO peripheral for STM32F40XX and STM32F427X devices.
  * @param  GPIO_Pin Specifies the pins to be toggled.
  * @retval None
  */
void HAL_GPIO_TogglePin(GPIO_TypeDef* GPIOx, uint16_t GPIO_Pin)
{
 8004eda:	b480      	push	{r7}
 8004edc:	b085      	sub	sp, #20
 8004ede:	af00      	add	r7, sp, #0
 8004ee0:	6078      	str	r0, [r7, #4]
 8004ee2:	460b      	mov	r3, r1
 8004ee4:	807b      	strh	r3, [r7, #2]

  /* Check the parameters */
  assert_param(IS_GPIO_PIN(GPIO_Pin));

  /* get current Output Data Register value */
  odr = GPIOx->ODR;
 8004ee6:	687b      	ldr	r3, [r7, #4]
 8004ee8:	695b      	ldr	r3, [r3, #20]
 8004eea:	60fb      	str	r3, [r7, #12]

  /* Set selected pins that were at low level, and reset ones that were high */
  GPIOx->BSRR = ((odr & GPIO_Pin) << GPIO_NUMBER) | (~odr & GPIO_Pin);
 8004eec:	887a      	ldrh	r2, [r7, #2]
 8004eee:	68fb      	ldr	r3, [r7, #12]
 8004ef0:	4013      	ands	r3, r2
 8004ef2:	041a      	lsls	r2, r3, #16
 8004ef4:	68fb      	ldr	r3, [r7, #12]
 8004ef6:	43d9      	mvns	r1, r3
 8004ef8:	887b      	ldrh	r3, [r7, #2]
 8004efa:	400b      	ands	r3, r1
 8004efc:	431a      	orrs	r2, r3
 8004efe:	687b      	ldr	r3, [r7, #4]
 8004f00:	619a      	str	r2, [r3, #24]
}
 8004f02:	bf00      	nop
 8004f04:	3714      	adds	r7, #20
 8004f06:	46bd      	mov	sp, r7
 8004f08:	f85d 7b04 	ldr.w	r7, [sp], #4
 8004f0c:	4770      	bx	lr

08004f0e <HAL_IWDG_Init>:
  * @param  hiwdg  pointer to a IWDG_HandleTypeDef structure that contains
  *                the configuration information for the specified IWDG module.
  * @retval HAL status
  */
HAL_StatusTypeDef HAL_IWDG_Init(IWDG_HandleTypeDef *hiwdg)
{
 8004f0e:	b580      	push	{r7, lr}
 8004f10:	b084      	sub	sp, #16
 8004f12:	af00      	add	r7, sp, #0
 8004f14:	6078      	str	r0, [r7, #4]
  uint32_t tickstart;

  /* Check the IWDG handle allocation */
  if (hiwdg == NULL)
 8004f16:	687b      	ldr	r3, [r7, #4]
 8004f18:	2b00      	cmp	r3, #0
 8004f1a:	d101      	bne.n	8004f20 <HAL_IWDG_Init+0x12>
  {
    return HAL_ERROR;
 8004f1c:	2301      	movs	r3, #1
 8004f1e:	e036      	b.n	8004f8e <HAL_IWDG_Init+0x80>
  assert_param(IS_IWDG_ALL_INSTANCE(hiwdg->Instance));
  assert_param(IS_IWDG_PRESCALER(hiwdg->Init.Prescaler));
  assert_param(IS_IWDG_RELOAD(hiwdg->Init.Reload));

  /* Enable IWDG. LSI is turned on automatically */
  __HAL_IWDG_START(hiwdg);
 8004f20:	687b      	ldr	r3, [r7, #4]
 8004f22:	681b      	ldr	r3, [r3, #0]
 8004f24:	f64c 42cc 	movw	r2, #52428	@ 0xcccc
 8004f28:	601a      	str	r2, [r3, #0]

  /* Enable write access to IWDG_PR and IWDG_RLR registers by writing
  0x5555 in KR */
  IWDG_ENABLE_WRITE_ACCESS(hiwdg);
 8004f2a:	687b      	ldr	r3, [r7, #4]
 8004f2c:	681b      	ldr	r3, [r3, #0]
 8004f2e:	f245 5255 	movw	r2, #21845	@ 0x5555
 8004f32:	601a      	str	r2, [r3, #0]

  /* Write to IWDG registers the Prescaler & Reload values to work with */
  hiwdg->Instance->PR = hiwdg->Init.Prescaler;
 8004f34:	687b      	ldr	r3, [r7, #4]
 8004f36:	681b      	ldr	r3, [r3, #0]
 8004f38:	687a      	ldr	r2, [r7, #4]
 8004f3a:	6852      	ldr	r2, [r2, #4]
 8004f3c:	605a      	str	r2, [r3, #4]
  hiwdg->Instance->RLR = hiwdg->Init.Reload;
 8004f3e:	687b      	ldr	r3, [r7, #4]
 8004f40:	681b      	ldr	r3, [r3, #0]
 8004f42:	687a      	ldr	r2, [r7, #4]
 8004f44:	6892      	ldr	r2, [r2, #8]
 8004f46:	609a      	str	r2, [r3, #8]

  /* Check pending flag, if previous update not done, return timeout */
  tickstart = HAL_GetTick();
 8004f48:	f7fe ffbe 	bl	8003ec8 <HAL_GetTick>
 8004f4c:	60f8      	str	r0, [r7, #12]

  /* Wait for register to be updated */
  while ((hiwdg->Instance->SR & IWDG_KERNEL_UPDATE_FLAGS) != 0x00u)
 8004f4e:	e011      	b.n	8004f74 <HAL_IWDG_Init+0x66>
  {
    if ((HAL_GetTick() - tickstart) > HAL_IWDG_DEFAULT_TIMEOUT)
 8004f50:	f7fe ffba 	bl	8003ec8 <HAL_GetTick>
 8004f54:	4602      	mov	r2, r0
 8004f56:	68fb      	ldr	r3, [r7, #12]
 8004f58:	1ad3      	subs	r3, r2, r3
 8004f5a:	f641 0201 	movw	r2, #6145	@ 0x1801
 8004f5e:	4293      	cmp	r3, r2
 8004f60:	d908      	bls.n	8004f74 <HAL_IWDG_Init+0x66>
    {
      if ((hiwdg->Instance->SR & IWDG_KERNEL_UPDATE_FLAGS) != 0x00u)
 8004f62:	687b      	ldr	r3, [r7, #4]
 8004f64:	681b      	ldr	r3, [r3, #0]
 8004f66:	68db      	ldr	r3, [r3, #12]
 8004f68:	f003 0303 	and.w	r3, r3, #3
 8004f6c:	2b00      	cmp	r3, #0
 8004f6e:	d001      	beq.n	8004f74 <HAL_IWDG_Init+0x66>
      {
        return HAL_TIMEOUT;
 8004f70:	2303      	movs	r3, #3
 8004f72:	e00c      	b.n	8004f8e <HAL_IWDG_Init+0x80>
  while ((hiwdg->Instance->SR & IWDG_KERNEL_UPDATE_FLAGS) != 0x00u)
 8004f74:	687b      	ldr	r3, [r7, #4]
 8004f76:	681b      	ldr	r3, [r3, #0]
 8004f78:	68db      	ldr	r3, [r3, #12]
 8004f7a:	f003 0303 	and.w	r3, r3, #3
 8004f7e:	2b00      	cmp	r3, #0
 8004f80:	d1e6      	bne.n	8004f50 <HAL_IWDG_Init+0x42>
      }
    }
  }

  /* Reload IWDG counter with value defined in the reload register */
  __HAL_IWDG_RELOAD_COUNTER(hiwdg);
 8004f82:	687b      	ldr	r3, [r7, #4]
 8004f84:	681b      	ldr	r3, [r3, #0]
 8004f86:	f64a 22aa 	movw	r2, #43690	@ 0xaaaa
 8004f8a:	601a      	str	r2, [r3, #0]

  /* Return function status */
  return HAL_OK;
 8004f8c:	2300      	movs	r3, #0
}
 8004f8e:	4618      	mov	r0, r3
 8004f90:	3710      	adds	r7, #16
 8004f92:	46bd      	mov	sp, r7
 8004f94:	bd80      	pop	{r7, pc}

08004f96 <HAL_IWDG_Refresh>:
  * @param  hiwdg  pointer to a IWDG_HandleTypeDef structure that contains
  *                the configuration information for the specified IWDG module.
  * @retval HAL status
  */
HAL_StatusTypeDef HAL_IWDG_Refresh(IWDG_HandleTypeDef *hiwdg)
{
 8004f96:	b480      	push	{r7}
 8004f98:	b083      	sub	sp, #12
 8004f9a:	af00      	add	r7, sp, #0
 8004f9c:	6078      	str	r0, [r7, #4]
  /* Reload IWDG counter with value defined in the reload register */
  __HAL_IWDG_RELOAD_COUNTER(hiwdg);
 8004f9e:	687b      	ldr	r3, [r7, #4]
 8004fa0:	681b      	ldr	r3, [r3, #0]
 8004fa2:	f64a 22aa 	movw	r2, #43690	@ 0xaaaa
 8004fa6:	601a      	str	r2, [r3, #0]

  /* Return function status */
  return HAL_OK;
 8004fa8:	2300      	movs	r3, #0
}
 8004faa:	4618      	mov	r0, r3
 8004fac:	370c      	adds	r7, #12
 8004fae:	46bd      	mov	sp, r7
 8004fb0:	f85d 7b04 	ldr.w	r7, [sp], #4
 8004fb4:	4770      	bx	lr
	...

08004fb8 <HAL_RCC_ClockConfig>:
  *         HPRE[3:0] bits to ensure that HCLK not exceed the maximum allowed frequency
  *         (for more details refer to section above "Initialization/de-initialization functions")
  * @retval None
  */
HAL_StatusTypeDef HAL_RCC_ClockConfig(const RCC_ClkInitTypeDef  *RCC_ClkInitStruct, uint32_t FLatency)
{
 8004fb8:	b580      	push	{r7, lr}
 8004fba:	b084      	sub	sp, #16
 8004fbc:	af00      	add	r7, sp, #0
 8004fbe:	6078      	str	r0, [r7, #4]
 8004fc0:	6039      	str	r1, [r7, #0]
  uint32_t tickstart;

  /* Check Null pointer */
  if (RCC_ClkInitStruct == NULL)
 8004fc2:	687b      	ldr	r3, [r7, #4]
 8004fc4:	2b00      	cmp	r3, #0
 8004fc6:	d101      	bne.n	8004fcc <HAL_RCC_ClockConfig+0x14>
  {
    return HAL_ERROR;
 8004fc8:	2301      	movs	r3, #1
 8004fca:	e0cc      	b.n	8005166 <HAL_RCC_ClockConfig+0x1ae>
  /* To correctly read data from FLASH memory, the number of wait states (LATENCY)
    must be correctly programmed according to the frequency of the CPU clock
    (HCLK) and the supply voltage of the device. */

  /* Increasing the number of wait states because of higher CPU frequency */
  if (FLatency > __HAL_FLASH_GET_LATENCY())
 8004fcc:	4b68      	ldr	r3, [pc, #416]	@ (8005170 <HAL_RCC_ClockConfig+0x1b8>)
 8004fce:	681b      	ldr	r3, [r3, #0]
 8004fd0:	f003 030f 	and.w	r3, r3, #15
 8004fd4:	683a      	ldr	r2, [r7, #0]
 8004fd6:	429a      	cmp	r2, r3
 8004fd8:	d90c      	bls.n	8004ff4 <HAL_RCC_ClockConfig+0x3c>
  {
    /* Program the new number of wait states to the LATENCY bits in the FLASH_ACR register */
    __HAL_FLASH_SET_LATENCY(FLatency);
 8004fda:	4b65      	ldr	r3, [pc, #404]	@ (8005170 <HAL_RCC_ClockConfig+0x1b8>)
 8004fdc:	683a      	ldr	r2, [r7, #0]
 8004fde:	b2d2      	uxtb	r2, r2
 8004fe0:	701a      	strb	r2, [r3, #0]

    /* Check that the new number of wait states is taken into account to access the Flash
    memory by reading the FLASH_ACR register */
    if (__HAL_FLASH_GET_LATENCY() != FLatency)
 8004fe2:	4b63      	ldr	r3, [pc, #396]	@ (8005170 <HAL_RCC_ClockConfig+0x1b8>)
 8004fe4:	681b      	ldr	r3, [r3, #0]
 8004fe6:	f003 030f 	and.w	r3, r3, #15
 8004fea:	683a      	ldr	r2, [r7, #0]
 8004fec:	429a      	cmp	r2, r3
 8004fee:	d001      	beq.n	8004ff4 <HAL_RCC_ClockConfig+0x3c>
    {
      return HAL_ERROR;
 8004ff0:	2301      	movs	r3, #1
 8004ff2:	e0b8      	b.n	8005166 <HAL_RCC_ClockConfig+0x1ae>
    }
  }

  /*-------------------------- HCLK Configuration --------------------------*/
  if (((RCC_ClkInitStruct->ClockType) & RCC_CLOCKTYPE_HCLK) == RCC_CLOCKTYPE_HCLK)
 8004ff4:	687b      	ldr	r3, [r7, #4]
 8004ff6:	681b      	ldr	r3, [r3, #0]
 8004ff8:	f003 0302 	and.w	r3, r3, #2
 8004ffc:	2b00      	cmp	r3, #0
 8004ffe:	d020      	beq.n	8005042 <HAL_RCC_ClockConfig+0x8a>
  {
    /* Set the highest APBx dividers in order to ensure that we do not go through
       a non-spec phase whatever we decrease or increase HCLK. */
    if (((RCC_ClkInitStruct->ClockType) & RCC_CLOCKTYPE_PCLK1) == RCC_CLOCKTYPE_PCLK1)
 8005000:	687b      	ldr	r3, [r7, #4]
 8005002:	681b      	ldr	r3, [r3, #0]
 8005004:	f003 0304 	and.w	r3, r3, #4
 8005008:	2b00      	cmp	r3, #0
 800500a:	d005      	beq.n	8005018 <HAL_RCC_ClockConfig+0x60>
    {
      MODIFY_REG(RCC->CFGR, RCC_CFGR_PPRE1, RCC_HCLK_DIV16);
 800500c:	4b59      	ldr	r3, [pc, #356]	@ (8005174 <HAL_RCC_ClockConfig+0x1bc>)
 800500e:	689b      	ldr	r3, [r3, #8]
 8005010:	4a58      	ldr	r2, [pc, #352]	@ (8005174 <HAL_RCC_ClockConfig+0x1bc>)
 8005012:	f443 53e0 	orr.w	r3, r3, #7168	@ 0x1c00
 8005016:	6093      	str	r3, [r2, #8]
    }

    if (((RCC_ClkInitStruct->ClockType) & RCC_CLOCKTYPE_PCLK2) == RCC_CLOCKTYPE_PCLK2)
 8005018:	687b      	ldr	r3, [r7, #4]
 800501a:	681b      	ldr	r3, [r3, #0]
 800501c:	f003 0308 	and.w	r3, r3, #8
 8005020:	2b00      	cmp	r3, #0
 8005022:	d005      	beq.n	8005030 <HAL_RCC_ClockConfig+0x78>
    {
      MODIFY_REG(RCC->CFGR, RCC_CFGR_PPRE2, (RCC_HCLK_DIV16 << 3));
 8005024:	4b53      	ldr	r3, [pc, #332]	@ (8005174 <HAL_RCC_ClockConfig+0x1bc>)
 8005026:	689b      	ldr	r3, [r3, #8]
 8005028:	4a52      	ldr	r2, [pc, #328]	@ (8005174 <HAL_RCC_ClockConfig+0x1bc>)
 800502a:	f443 4360 	orr.w	r3, r3, #57344	@ 0xe000
 800502e:	6093      	str	r3, [r2, #8]
    }

    assert_param(IS_RCC_HCLK(RCC_ClkInitStruct->AHBCLKDivider));
    MODIFY_REG(RCC->CFGR, RCC_CFGR_HPRE, RCC_ClkInitStruct->AHBCLKDivider);
 8005030:	4b50      	ldr	r3, [pc, #320]	@ (8005174 <HAL_RCC_ClockConfig+0x1bc>)
 8005032:	689b      	ldr	r3, [r3, #8]
 8005034:	f023 02f0 	bic.w	r2, r3, #240	@ 0xf0
 8005038:	687b      	ldr	r3, [r7, #4]
 800503a:	689b      	ldr	r3, [r3, #8]
 800503c:	494d      	ldr	r1, [pc, #308]	@ (8005174 <HAL_RCC_ClockConfig+0x1bc>)
 800503e:	4313      	orrs	r3, r2
 8005040:	608b      	str	r3, [r1, #8]
  }

  /*------------------------- SYSCLK Configuration ---------------------------*/
  if (((RCC_ClkInitStruct->ClockType) & RCC_CLOCKTYPE_SYSCLK) == RCC_CLOCKTYPE_SYSCLK)
 8005042:	687b      	ldr	r3, [r7, #4]
 8005044:	681b      	ldr	r3, [r3, #0]
 8005046:	f003 0301 	and.w	r3, r3, #1
 800504a:	2b00      	cmp	r3, #0
 800504c:	d044      	beq.n	80050d8 <HAL_RCC_ClockConfig+0x120>
  {
    assert_param(IS_RCC_SYSCLKSOURCE(RCC_ClkInitStruct->SYSCLKSource));

    /* HSE is selected as System Clock Source */
    if (RCC_ClkInitStruct->SYSCLKSource == RCC_SYSCLKSOURCE_HSE)
 800504e:	687b      	ldr	r3, [r7, #4]
 8005050:	685b      	ldr	r3, [r3, #4]
 8005052:	2b01      	cmp	r3, #1
 8005054:	d107      	bne.n	8005066 <HAL_RCC_ClockConfig+0xae>
    {
      /* Check the HSE ready flag */
      if (__HAL_RCC_GET_FLAG(RCC_FLAG_HSERDY) == RESET)
 8005056:	4b47      	ldr	r3, [pc, #284]	@ (8005174 <HAL_RCC_ClockConfig+0x1bc>)
 8005058:	681b      	ldr	r3, [r3, #0]
 800505a:	f403 3300 	and.w	r3, r3, #131072	@ 0x20000
 800505e:	2b00      	cmp	r3, #0
 8005060:	d119      	bne.n	8005096 <HAL_RCC_ClockConfig+0xde>
      {
        return HAL_ERROR;
 8005062:	2301      	movs	r3, #1
 8005064:	e07f      	b.n	8005166 <HAL_RCC_ClockConfig+0x1ae>
      }
    }
    /* PLL is selected as System Clock Source */
    else if ((RCC_ClkInitStruct->SYSCLKSource == RCC_SYSCLKSOURCE_PLLCLK)   ||
 8005066:	687b      	ldr	r3, [r7, #4]
 8005068:	685b      	ldr	r3, [r3, #4]
 800506a:	2b02      	cmp	r3, #2
 800506c:	d003      	beq.n	8005076 <HAL_RCC_ClockConfig+0xbe>
             (RCC_ClkInitStruct->SYSCLKSource == RCC_SYSCLKSOURCE_PLLRCLK))
 800506e:	687b      	ldr	r3, [r7, #4]
 8005070:	685b      	ldr	r3, [r3, #4]
    else if ((RCC_ClkInitStruct->SYSCLKSource == RCC_SYSCLKSOURCE_PLLCLK)   ||
 8005072:	2b03      	cmp	r3, #3
 8005074:	d107      	bne.n	8005086 <HAL_RCC_ClockConfig+0xce>
    {
      /* Check the PLL ready flag */
      if (__HAL_RCC_GET_FLAG(RCC_FLAG_PLLRDY) == RESET)
 8005076:	4b3f      	ldr	r3, [pc, #252]	@ (8005174 <HAL_RCC_ClockConfig+0x1bc>)
 8005078:	681b      	ldr	r3, [r3, #0]
 800507a:	f003 7300 	and.w	r3, r3, #33554432	@ 0x2000000
 800507e:	2b00      	cmp	r3, #0
 8005080:	d109      	bne.n	8005096 <HAL_RCC_ClockConfig+0xde>
      {
        return HAL_ERROR;
 8005082:	2301      	movs	r3, #1
 8005084:	e06f      	b.n	8005166 <HAL_RCC_ClockConfig+0x1ae>
    }
    /* HSI is selected as System Clock Source */
    else
    {
      /* Check the HSI ready flag */
      if (__HAL_RCC_GET_FLAG(RCC_FLAG_HSIRDY) == RESET)
 8005086:	4b3b      	ldr	r3, [pc, #236]	@ (8005174 <HAL_RCC_ClockConfig+0x1bc>)
 8005088:	681b      	ldr	r3, [r3, #0]
 800508a:	f003 0302 	and.w	r3, r3, #2
 800508e:	2b00      	cmp	r3, #0
 8005090:	d101      	bne.n	8005096 <HAL_RCC_ClockConfig+0xde>
      {
        return HAL_ERROR;
 8005092:	2301      	movs	r3, #1
 8005094:	e067      	b.n	8005166 <HAL_RCC_ClockConfig+0x1ae>
      }
    }

    __HAL_RCC_SYSCLK_CONFIG(RCC_ClkInitStruct->SYSCLKSource);
 8005096:	4b37      	ldr	r3, [pc, #220]	@ (8005174 <HAL_RCC_ClockConfig+0x1bc>)
 8005098:	689b      	ldr	r3, [r3, #8]
 800509a:	f023 0203 	bic.w	r2, r3, #3
 800509e:	687b      	ldr	r3, [r7, #4]
 80050a0:	685b      	ldr	r3, [r3, #4]
 80050a2:	4934      	ldr	r1, [pc, #208]	@ (8005174 <HAL_RCC_ClockConfig+0x1bc>)
 80050a4:	4313      	orrs	r3, r2
 80050a6:	608b      	str	r3, [r1, #8]

    /* Get Start Tick */
    tickstart = HAL_GetTick();
 80050a8:	f7fe ff0e 	bl	8003ec8 <HAL_GetTick>
 80050ac:	60f8      	str	r0, [r7, #12]

    while (__HAL_RCC_GET_SYSCLK_SOURCE() != (RCC_ClkInitStruct->SYSCLKSource << RCC_CFGR_SWS_Pos))
 80050ae:	e00a      	b.n	80050c6 <HAL_RCC_ClockConfig+0x10e>
    {
      if ((HAL_GetTick() - tickstart) > CLOCKSWITCH_TIMEOUT_VALUE)
 80050b0:	f7fe ff0a 	bl	8003ec8 <HAL_GetTick>
 80050b4:	4602      	mov	r2, r0
 80050b6:	68fb      	ldr	r3, [r7, #12]
 80050b8:	1ad3      	subs	r3, r2, r3
 80050ba:	f241 3288 	movw	r2, #5000	@ 0x1388
 80050be:	4293      	cmp	r3, r2
 80050c0:	d901      	bls.n	80050c6 <HAL_RCC_ClockConfig+0x10e>
      {
        return HAL_TIMEOUT;
 80050c2:	2303      	movs	r3, #3
 80050c4:	e04f      	b.n	8005166 <HAL_RCC_ClockConfig+0x1ae>
    while (__HAL_RCC_GET_SYSCLK_SOURCE() != (RCC_ClkInitStruct->SYSCLKSource << RCC_CFGR_SWS_Pos))
 80050c6:	4b2b      	ldr	r3, [pc, #172]	@ (8005174 <HAL_RCC_ClockConfig+0x1bc>)
 80050c8:	689b      	ldr	r3, [r3, #8]
 80050ca:	f003 020c 	and.w	r2, r3, #12
 80050ce:	687b      	ldr	r3, [r7, #4]
 80050d0:	685b      	ldr	r3, [r3, #4]
 80050d2:	009b      	lsls	r3, r3, #2
 80050d4:	429a      	cmp	r2, r3
 80050d6:	d1eb      	bne.n	80050b0 <HAL_RCC_ClockConfig+0xf8>
      }
    }
  }

  /* Decreasing the number of wait states because of lower CPU frequency */
  if (FLatency < __HAL_FLASH_GET_LATENCY())
 80050d8:	4b25      	ldr	r3, [pc, #148]	@ (8005170 <HAL_RCC_ClockConfig+0x1b8>)
 80050da:	681b      	ldr	r3, [r3, #0]
 80050dc:	f003 030f 	and.w	r3, r3, #15
 80050e0:	683a      	ldr	r2, [r7, #0]
 80050e2:	429a      	cmp	r2, r3
 80050e4:	d20c      	bcs.n	8005100 <HAL_RCC_ClockConfig+0x148>
  {
    /* Program the new number of wait states to the LATENCY bits in the FLASH_ACR register */
    __HAL_FLASH_SET_LATENCY(FLatency);
 80050e6:	4b22      	ldr	r3, [pc, #136]	@ (8005170 <HAL_RCC_ClockConfig+0x1b8>)
 80050e8:	683a      	ldr	r2, [r7, #0]
 80050ea:	b2d2      	uxtb	r2, r2
 80050ec:	701a      	strb	r2, [r3, #0]

    /* Check that the new number of wait states is taken into account to access the Flash
    memory by reading the FLASH_ACR register */
    if (__HAL_FLASH_GET_LATENCY() != FLatency)
 80050ee:	4b20      	ldr	r3, [pc, #128]	@ (8005170 <HAL_RCC_ClockConfig+0x1b8>)
 80050f0:	681b      	ldr	r3, [r3, #0]
 80050f2:	f003 030f 	and.w	r3, r3, #15
 80050f6:	683a      	ldr	r2, [r7, #0]
 80050f8:	429a      	cmp	r2, r3
 80050fa:	d001      	beq.n	8005100 <HAL_RCC_ClockConfig+0x148>
    {
      return HAL_ERROR;
 80050fc:	2301      	movs	r3, #1
 80050fe:	e032      	b.n	8005166 <HAL_RCC_ClockConfig+0x1ae>
    }
  }

  /*-------------------------- PCLK1 Configuration ---------------------------*/
  if (((RCC_ClkInitStruct->ClockType) & RCC_CLOCKTYPE_PCLK1) == RCC_CLOCKTYPE_PCLK1)
 8005100:	687b      	ldr	r3, [r7, #4]
 8005102:	681b      	ldr	r3, [r3, #0]
 8005104:	f003 0304 	and.w	r3, r3, #4
 8005108:	2b00      	cmp	r3, #0
 800510a:	d008      	beq.n	800511e <HAL_RCC_ClockConfig+0x166>
  {
    assert_param(IS_RCC_PCLK(RCC_ClkInitStruct->APB1CLKDivider));
    MODIFY_REG(RCC->CFGR, RCC_CFGR_PPRE1, RCC_ClkInitStruct->APB1CLKDivider);
 800510c:	4b19      	ldr	r3, [pc, #100]	@ (8005174 <HAL_RCC_ClockConfig+0x1bc>)
 800510e:	689b      	ldr	r3, [r3, #8]
 8005110:	f423 52e0 	bic.w	r2, r3, #7168	@ 0x1c00
 8005114:	687b      	ldr	r3, [r7, #4]
 8005116:	68db      	ldr	r3, [r3, #12]
 8005118:	4916      	ldr	r1, [pc, #88]	@ (8005174 <HAL_RCC_ClockConfig+0x1bc>)
 800511a:	4313      	orrs	r3, r2
 800511c:	608b      	str	r3, [r1, #8]
  }

  /*-------------------------- PCLK2 Configuration ---------------------------*/
  if (((RCC_ClkInitStruct->ClockType) & RCC_CLOCKTYPE_PCLK2) == RCC_CLOCKTYPE_PCLK2)
 800511e:	687b      	ldr	r3, [r7, #4]
 8005120:	681b      	ldr	r3, [r3, #0]
 8005122:	f003 0308 	and.w	r3, r3, #8
 8005126:	2b00      	cmp	r3, #0
 8005128:	d009      	beq.n	800513e <HAL_RCC_ClockConfig+0x186>
  {
    assert_param(IS_RCC_PCLK(RCC_ClkInitStruct->APB2CLKDivider));
    MODIFY_REG(RCC->CFGR, RCC_CFGR_PPRE2, ((RCC_ClkInitStruct->APB2CLKDivider) << 3U));
 800512a:	4b12      	ldr	r3, [pc, #72]	@ (8005174 <HAL_RCC_ClockConfig+0x1bc>)
 800512c:	689b      	ldr	r3, [r3, #8]
 800512e:	f423 4260 	bic.w	r2, r3, #57344	@ 0xe000
 8005132:	687b      	ldr	r3, [r7, #4]
 8005134:	691b      	ldr	r3, [r3, #16]
 8005136:	00db      	lsls	r3, r3, #3
 8005138:	490e      	ldr	r1, [pc, #56]	@ (8005174 <HAL_RCC_ClockConfig+0x1bc>)
 800513a:	4313      	orrs	r3, r2
 800513c:	608b      	str	r3, [r1, #8]
  }

  /* Update the SystemCoreClock global variable */
  SystemCoreClock = HAL_RCC_GetSysClockFreq() >> AHBPrescTable[(RCC->CFGR & RCC_CFGR_HPRE) >> RCC_CFGR_HPRE_Pos];
 800513e:	f000 f887 	bl	8005250 <HAL_RCC_GetSysClockFreq>
 8005142:	4602      	mov	r2, r0
 8005144:	4b0b      	ldr	r3, [pc, #44]	@ (8005174 <HAL_RCC_ClockConfig+0x1bc>)
 8005146:	689b      	ldr	r3, [r3, #8]
 8005148:	091b      	lsrs	r3, r3, #4
 800514a:	f003 030f 	and.w	r3, r3, #15
 800514e:	490a      	ldr	r1, [pc, #40]	@ (8005178 <HAL_RCC_ClockConfig+0x1c0>)
 8005150:	5ccb      	ldrb	r3, [r1, r3]
 8005152:	fa22 f303 	lsr.w	r3, r2, r3
 8005156:	4a09      	ldr	r2, [pc, #36]	@ (800517c <HAL_RCC_ClockConfig+0x1c4>)
 8005158:	6013      	str	r3, [r2, #0]

  /* Configure the source of time base considering new system clocks settings */
  HAL_InitTick(uwTickPrio);
 800515a:	4b09      	ldr	r3, [pc, #36]	@ (8005180 <HAL_RCC_ClockConfig+0x1c8>)
 800515c:	681b      	ldr	r3, [r3, #0]
 800515e:	4618      	mov	r0, r3
 8005160:	f7fe fcd2 	bl	8003b08 <HAL_InitTick>

  return HAL_OK;
 8005164:	2300      	movs	r3, #0
}
 8005166:	4618      	mov	r0, r3
 8005168:	3710      	adds	r7, #16
 800516a:	46bd      	mov	sp, r7
 800516c:	bd80      	pop	{r7, pc}
 800516e:	bf00      	nop
 8005170:	40023c00 	.word	0x40023c00
 8005174:	40023800 	.word	0x40023800
 8005178:	0800879c 	.word	0x0800879c
 800517c:	20000000 	.word	0x20000000
 8005180:	20000004 	.word	0x20000004

08005184 <HAL_RCC_GetHCLKFreq>:
  * @note   The SystemCoreClock CMSIS variable is used to store System Clock Frequency
  *         and updated within this function
  * @retval HCLK frequency
  */
uint32_t HAL_RCC_GetHCLKFreq(void)
{
 8005184:	b480      	push	{r7}
 8005186:	af00      	add	r7, sp, #0
  return SystemCoreClock;
 8005188:	4b03      	ldr	r3, [pc, #12]	@ (8005198 <HAL_RCC_GetHCLKFreq+0x14>)
 800518a:	681b      	ldr	r3, [r3, #0]
}
 800518c:	4618      	mov	r0, r3
 800518e:	46bd      	mov	sp, r7
 8005190:	f85d 7b04 	ldr.w	r7, [sp], #4
 8005194:	4770      	bx	lr
 8005196:	bf00      	nop
 8005198:	20000000 	.word	0x20000000

0800519c <HAL_RCC_GetPCLK1Freq>:
  * @note   Each time PCLK1 changes, this function must be called to update the
  *         right PCLK1 value. Otherwise, any configuration based on this function will be incorrect.
  * @retval PCLK1 frequency
  */
uint32_t HAL_RCC_GetPCLK1Freq(void)
{
 800519c:	b580      	push	{r7, lr}
 800519e:	af00      	add	r7, sp, #0
  /* Get HCLK source and Compute PCLK1 frequency ---------------------------*/
  return (HAL_RCC_GetHCLKFreq() >> APBPrescTable[(RCC->CFGR & RCC_CFGR_PPRE1) >> RCC_CFGR_PPRE1_Pos]);
 80051a0:	f7ff fff0 	bl	8005184 <HAL_RCC_GetHCLKFreq>
 80051a4:	4602      	mov	r2, r0
 80051a6:	4b05      	ldr	r3, [pc, #20]	@ (80051bc <HAL_RCC_GetPCLK1Freq+0x20>)
 80051a8:	689b      	ldr	r3, [r3, #8]
 80051aa:	0a9b      	lsrs	r3, r3, #10
 80051ac:	f003 0307 	and.w	r3, r3, #7
 80051b0:	4903      	ldr	r1, [pc, #12]	@ (80051c0 <HAL_RCC_GetPCLK1Freq+0x24>)
 80051b2:	5ccb      	ldrb	r3, [r1, r3]
 80051b4:	fa22 f303 	lsr.w	r3, r2, r3
}
 80051b8:	4618      	mov	r0, r3
 80051ba:	bd80      	pop	{r7, pc}
 80051bc:	40023800 	.word	0x40023800
 80051c0:	080087ac 	.word	0x080087ac

080051c4 <HAL_RCC_GetPCLK2Freq>:
  * @note   Each time PCLK2 changes, this function must be called to update the
  *         right PCLK2 value. Otherwise, any configuration based on this function will be incorrect.
  * @retval PCLK2 frequency
  */
uint32_t HAL_RCC_GetPCLK2Freq(void)
{
 80051c4:	b580      	push	{r7, lr}
 80051c6:	af00      	add	r7, sp, #0
  /* Get HCLK source and Compute PCLK2 frequency ---------------------------*/
  return (HAL_RCC_GetHCLKFreq() >> APBPrescTable[(RCC->CFGR & RCC_CFGR_PPRE2) >> RCC_CFGR_PPRE2_Pos]);
 80051c8:	f7ff ffdc 	bl	8005184 <HAL_RCC_GetHCLKFreq>
 80051cc:	4602      	mov	r2, r0
 80051ce:	4b05      	ldr	r3, [pc, #20]	@ (80051e4 <HAL_RCC_GetPCLK2Freq+0x20>)
 80051d0:	689b      	ldr	r3, [r3, #8]
 80051d2:	0b5b      	lsrs	r3, r3, #13
 80051d4:	f003 0307 	and.w	r3, r3, #7
 80051d8:	4903      	ldr	r1, [pc, #12]	@ (80051e8 <HAL_RCC_GetPCLK2Freq+0x24>)
 80051da:	5ccb      	ldrb	r3, [r1, r3]
 80051dc:	fa22 f303 	lsr.w	r3, r2, r3
}
 80051e0:	4618      	mov	r0, r3
 80051e2:	bd80      	pop	{r7, pc}
 80051e4:	40023800 	.word	0x40023800
 80051e8:	080087ac 	.word	0x080087ac

080051ec <HAL_RCC_GetClockConfig>:
  * will be configured.
  * @param  pFLatency Pointer on the Flash Latency.
  * @retval None
  */
void HAL_RCC_GetClockConfig(RCC_ClkInitTypeDef  *RCC_ClkInitStruct, uint32_t *pFLatency)
{
 80051ec:	b480      	push	{r7}
 80051ee:	b083      	sub	sp, #12
 80051f0:	af00      	add	r7, sp, #0
 80051f2:	6078      	str	r0, [r7, #4]
 80051f4:	6039      	str	r1, [r7, #0]
  /* Set all possible values for the Clock type parameter --------------------*/
  RCC_ClkInitStruct->ClockType = RCC_CLOCKTYPE_SYSCLK | RCC_CLOCKTYPE_HCLK | RCC_CLOCKTYPE_PCLK1 | RCC_CLOCKTYPE_PCLK2;
 80051f6:	687b      	ldr	r3, [r7, #4]
 80051f8:	220f      	movs	r2, #15
 80051fa:	601a      	str	r2, [r3, #0]

  /* Get the SYSCLK configuration --------------------------------------------*/
  RCC_ClkInitStruct->SYSCLKSource = (uint32_t)(RCC->CFGR & RCC_CFGR_SW);
 80051fc:	4b12      	ldr	r3, [pc, #72]	@ (8005248 <HAL_RCC_GetClockConfig+0x5c>)
 80051fe:	689b      	ldr	r3, [r3, #8]
 8005200:	f003 0203 	and.w	r2, r3, #3
 8005204:	687b      	ldr	r3, [r7, #4]
 8005206:	605a      	str	r2, [r3, #4]

  /* Get the HCLK configuration ----------------------------------------------*/
  RCC_ClkInitStruct->AHBCLKDivider = (uint32_t)(RCC->CFGR & RCC_CFGR_HPRE);
 8005208:	4b0f      	ldr	r3, [pc, #60]	@ (8005248 <HAL_RCC_GetClockConfig+0x5c>)
 800520a:	689b      	ldr	r3, [r3, #8]
 800520c:	f003 02f0 	and.w	r2, r3, #240	@ 0xf0
 8005210:	687b      	ldr	r3, [r7, #4]
 8005212:	609a      	str	r2, [r3, #8]

  /* Get the APB1 configuration ----------------------------------------------*/
  RCC_ClkInitStruct->APB1CLKDivider = (uint32_t)(RCC->CFGR & RCC_CFGR_PPRE1);
 8005214:	4b0c      	ldr	r3, [pc, #48]	@ (8005248 <HAL_RCC_GetClockConfig+0x5c>)
 8005216:	689b      	ldr	r3, [r3, #8]
 8005218:	f403 52e0 	and.w	r2, r3, #7168	@ 0x1c00
 800521c:	687b      	ldr	r3, [r7, #4]
 800521e:	60da      	str	r2, [r3, #12]

  /* Get the APB2 configuration ----------------------------------------------*/
  RCC_ClkInitStruct->APB2CLKDivider = (uint32_t)((RCC->CFGR & RCC_CFGR_PPRE2) >> 3U);
 8005220:	4b09      	ldr	r3, [pc, #36]	@ (8005248 <HAL_RCC_GetClockConfig+0x5c>)
 8005222:	689b      	ldr	r3, [r3, #8]
 8005224:	08db      	lsrs	r3, r3, #3
 8005226:	f403 52e0 	and.w	r2, r3, #7168	@ 0x1c00
 800522a:	687b      	ldr	r3, [r7, #4]
 800522c:	611a      	str	r2, [r3, #16]

  /* Get the Flash Wait State (Latency) configuration ------------------------*/
  *pFLatency = (uint32_t)(FLASH->ACR & FLASH_ACR_LATENCY);
 800522e:	4b07      	ldr	r3, [pc, #28]	@ (800524c <HAL_RCC_GetClockConfig+0x60>)
 8005230:	681b      	ldr	r3, [r3, #0]
 8005232:	f003 020f 	and.w	r2, r3, #15
 8005236:	683b      	ldr	r3, [r7, #0]
 8005238:	601a      	str	r2, [r3, #0]
}
 800523a:	bf00      	nop
 800523c:	370c      	adds	r7, #12
 800523e:	46bd      	mov	sp, r7
 8005240:	f85d 7b04 	ldr.w	r7, [sp], #4
 8005244:	4770      	bx	lr
 8005246:	bf00      	nop
 8005248:	40023800 	.word	0x40023800
 800524c:	40023c00 	.word	0x40023c00

08005250 <HAL_RCC_GetSysClockFreq>:
  *
  *
  * @retval SYSCLK frequency
  */
uint32_t HAL_RCC_GetSysClockFreq(void)
{
 8005250:	e92d 4fb0 	stmdb	sp!, {r4, r5, r7, r8, r9, sl, fp, lr}
 8005254:	b0a6      	sub	sp, #152	@ 0x98
 8005256:	af00      	add	r7, sp, #0
  uint32_t pllm = 0U;
 8005258:	2300      	movs	r3, #0
 800525a:	f8c7 308c 	str.w	r3, [r7, #140]	@ 0x8c
  uint32_t pllvco = 0U;
 800525e:	2300      	movs	r3, #0
 8005260:	f8c7 3094 	str.w	r3, [r7, #148]	@ 0x94
  uint32_t pllp = 0U;
 8005264:	2300      	movs	r3, #0
 8005266:	f8c7 3088 	str.w	r3, [r7, #136]	@ 0x88
  uint32_t pllr = 0U;
 800526a:	2300      	movs	r3, #0
 800526c:	f8c7 3084 	str.w	r3, [r7, #132]	@ 0x84
  uint32_t sysclockfreq = 0U;
 8005270:	2300      	movs	r3, #0
 8005272:	f8c7 3090 	str.w	r3, [r7, #144]	@ 0x90

  /* Get SYSCLK source -------------------------------------------------------*/
  switch (RCC->CFGR & RCC_CFGR_SWS)
 8005276:	4bc8      	ldr	r3, [pc, #800]	@ (8005598 <HAL_RCC_GetSysClockFreq+0x348>)
 8005278:	689b      	ldr	r3, [r3, #8]
 800527a:	f003 030c 	and.w	r3, r3, #12
 800527e:	2b0c      	cmp	r3, #12
 8005280:	f200 817e 	bhi.w	8005580 <HAL_RCC_GetSysClockFreq+0x330>
 8005284:	a201      	add	r2, pc, #4	@ (adr r2, 800528c <HAL_RCC_GetSysClockFreq+0x3c>)
 8005286:	f852 f023 	ldr.w	pc, [r2, r3, lsl #2]
 800528a:	bf00      	nop
 800528c:	080052c1 	.word	0x080052c1
 8005290:	08005581 	.word	0x08005581
 8005294:	08005581 	.word	0x08005581
 8005298:	08005581 	.word	0x08005581
 800529c:	080052c9 	.word	0x080052c9
 80052a0:	08005581 	.word	0x08005581
 80052a4:	08005581 	.word	0x08005581
 80052a8:	08005581 	.word	0x08005581
 80052ac:	080052d1 	.word	0x080052d1
 80052b0:	08005581 	.word	0x08005581
 80052b4:	08005581 	.word	0x08005581
 80052b8:	08005581 	.word	0x08005581
 80052bc:	0800543b 	.word	0x0800543b
  {
    case RCC_CFGR_SWS_HSI:  /* HSI used as system clock source */
    {
      sysclockfreq = HSI_VALUE;
 80052c0:	4bb6      	ldr	r3, [pc, #728]	@ (800559c <HAL_RCC_GetSysClockFreq+0x34c>)
 80052c2:	f8c7 3090 	str.w	r3, [r7, #144]	@ 0x90
      break;
 80052c6:	e15f      	b.n	8005588 <HAL_RCC_GetSysClockFreq+0x338>
    }
    case RCC_CFGR_SWS_HSE:  /* HSE used as system clock  source */
    {
      sysclockfreq = HSE_VALUE;
 80052c8:	4bb5      	ldr	r3, [pc, #724]	@ (80055a0 <HAL_RCC_GetSysClockFreq+0x350>)
 80052ca:	f8c7 3090 	str.w	r3, [r7, #144]	@ 0x90
      break;
 80052ce:	e15b      	b.n	8005588 <HAL_RCC_GetSysClockFreq+0x338>
    }
    case RCC_CFGR_SWS_PLL:  /* PLL/PLLP used as system clock  source */
    {
      /* PLL_VCO = (HSE_VALUE or HSI_VALUE / PLLM) * PLLN
      SYSCLK = PLL_VCO / PLLP */
      pllm = RCC->PLLCFGR & RCC_PLLCFGR_PLLM;
 80052d0:	4bb1      	ldr	r3, [pc, #708]	@ (8005598 <HAL_RCC_GetSysClockFreq+0x348>)
 80052d2:	685b      	ldr	r3, [r3, #4]
 80052d4:	f003 033f 	and.w	r3, r3, #63	@ 0x3f
 80052d8:	f8c7 308c 	str.w	r3, [r7, #140]	@ 0x8c
      if (__HAL_RCC_GET_PLL_OSCSOURCE() != RCC_PLLSOURCE_HSI)
 80052dc:	4bae      	ldr	r3, [pc, #696]	@ (8005598 <HAL_RCC_GetSysClockFreq+0x348>)
 80052de:	685b      	ldr	r3, [r3, #4]
 80052e0:	f403 0380 	and.w	r3, r3, #4194304	@ 0x400000
 80052e4:	2b00      	cmp	r3, #0
 80052e6:	d031      	beq.n	800534c <HAL_RCC_GetSysClockFreq+0xfc>
      {
        /* HSE used as PLL clock source */
        pllvco = (uint32_t)((((uint64_t) HSE_VALUE * ((uint64_t)((RCC->PLLCFGR & RCC_PLLCFGR_PLLN) >> RCC_PLLCFGR_PLLN_Pos)))) / (uint64_t)pllm);
 80052e8:	4bab      	ldr	r3, [pc, #684]	@ (8005598 <HAL_RCC_GetSysClockFreq+0x348>)
 80052ea:	685b      	ldr	r3, [r3, #4]
 80052ec:	099b      	lsrs	r3, r3, #6
 80052ee:	2200      	movs	r2, #0
 80052f0:	66bb      	str	r3, [r7, #104]	@ 0x68
 80052f2:	66fa      	str	r2, [r7, #108]	@ 0x6c
 80052f4:	6ebb      	ldr	r3, [r7, #104]	@ 0x68
 80052f6:	f3c3 0308 	ubfx	r3, r3, #0, #9
 80052fa:	663b      	str	r3, [r7, #96]	@ 0x60
 80052fc:	2300      	movs	r3, #0
 80052fe:	667b      	str	r3, [r7, #100]	@ 0x64
 8005300:	4ba7      	ldr	r3, [pc, #668]	@ (80055a0 <HAL_RCC_GetSysClockFreq+0x350>)
 8005302:	e9d7 4518 	ldrd	r4, r5, [r7, #96]	@ 0x60
 8005306:	462a      	mov	r2, r5
 8005308:	fb03 f202 	mul.w	r2, r3, r2
 800530c:	2300      	movs	r3, #0
 800530e:	4621      	mov	r1, r4
 8005310:	fb01 f303 	mul.w	r3, r1, r3
 8005314:	4413      	add	r3, r2
 8005316:	4aa2      	ldr	r2, [pc, #648]	@ (80055a0 <HAL_RCC_GetSysClockFreq+0x350>)
 8005318:	4621      	mov	r1, r4
 800531a:	fba1 1202 	umull	r1, r2, r1, r2
 800531e:	67fa      	str	r2, [r7, #124]	@ 0x7c
 8005320:	460a      	mov	r2, r1
 8005322:	67ba      	str	r2, [r7, #120]	@ 0x78
 8005324:	6ffa      	ldr	r2, [r7, #124]	@ 0x7c
 8005326:	4413      	add	r3, r2
 8005328:	67fb      	str	r3, [r7, #124]	@ 0x7c
 800532a:	f8d7 308c 	ldr.w	r3, [r7, #140]	@ 0x8c
 800532e:	2200      	movs	r2, #0
 8005330:	65bb      	str	r3, [r7, #88]	@ 0x58
 8005332:	65fa      	str	r2, [r7, #92]	@ 0x5c
 8005334:	e9d7 2316 	ldrd	r2, r3, [r7, #88]	@ 0x58
 8005338:	e9d7 011e 	ldrd	r0, r1, [r7, #120]	@ 0x78
 800533c:	f7fa ffb8 	bl	80002b0 <__aeabi_uldivmod>
 8005340:	4602      	mov	r2, r0
 8005342:	460b      	mov	r3, r1
 8005344:	4613      	mov	r3, r2
 8005346:	f8c7 3094 	str.w	r3, [r7, #148]	@ 0x94
 800534a:	e064      	b.n	8005416 <HAL_RCC_GetSysClockFreq+0x1c6>
      }
      else
      {
        /* HSI used as PLL clock source */
        pllvco = (uint32_t)((((uint64_t) HSI_VALUE * ((uint64_t)((RCC->PLLCFGR & RCC_PLLCFGR_PLLN) >> RCC_PLLCFGR_PLLN_Pos)))) / (uint64_t)pllm);
 800534c:	4b92      	ldr	r3, [pc, #584]	@ (8005598 <HAL_RCC_GetSysClockFreq+0x348>)
 800534e:	685b      	ldr	r3, [r3, #4]
 8005350:	099b      	lsrs	r3, r3, #6
 8005352:	2200      	movs	r2, #0
 8005354:	653b      	str	r3, [r7, #80]	@ 0x50
 8005356:	657a      	str	r2, [r7, #84]	@ 0x54
 8005358:	6d3b      	ldr	r3, [r7, #80]	@ 0x50
 800535a:	f3c3 0308 	ubfx	r3, r3, #0, #9
 800535e:	64bb      	str	r3, [r7, #72]	@ 0x48
 8005360:	2300      	movs	r3, #0
 8005362:	64fb      	str	r3, [r7, #76]	@ 0x4c
 8005364:	e9d7 4512 	ldrd	r4, r5, [r7, #72]	@ 0x48
 8005368:	4622      	mov	r2, r4
 800536a:	462b      	mov	r3, r5
 800536c:	f04f 0000 	mov.w	r0, #0
 8005370:	f04f 0100 	mov.w	r1, #0
 8005374:	0159      	lsls	r1, r3, #5
 8005376:	ea41 61d2 	orr.w	r1, r1, r2, lsr #27
 800537a:	0150      	lsls	r0, r2, #5
 800537c:	4602      	mov	r2, r0
 800537e:	460b      	mov	r3, r1
 8005380:	4621      	mov	r1, r4
 8005382:	1a51      	subs	r1, r2, r1
 8005384:	6139      	str	r1, [r7, #16]
 8005386:	4629      	mov	r1, r5
 8005388:	eb63 0301 	sbc.w	r3, r3, r1
 800538c:	617b      	str	r3, [r7, #20]
 800538e:	f04f 0200 	mov.w	r2, #0
 8005392:	f04f 0300 	mov.w	r3, #0
 8005396:	e9d7 ab04 	ldrd	sl, fp, [r7, #16]
 800539a:	4659      	mov	r1, fp
 800539c:	018b      	lsls	r3, r1, #6
 800539e:	4651      	mov	r1, sl
 80053a0:	ea43 6391 	orr.w	r3, r3, r1, lsr #26
 80053a4:	4651      	mov	r1, sl
 80053a6:	018a      	lsls	r2, r1, #6
 80053a8:	4651      	mov	r1, sl
 80053aa:	ebb2 0801 	subs.w	r8, r2, r1
 80053ae:	4659      	mov	r1, fp
 80053b0:	eb63 0901 	sbc.w	r9, r3, r1
 80053b4:	f04f 0200 	mov.w	r2, #0
 80053b8:	f04f 0300 	mov.w	r3, #0
 80053bc:	ea4f 03c9 	mov.w	r3, r9, lsl #3
 80053c0:	ea43 7358 	orr.w	r3, r3, r8, lsr #29
 80053c4:	ea4f 02c8 	mov.w	r2, r8, lsl #3
 80053c8:	4690      	mov	r8, r2
 80053ca:	4699      	mov	r9, r3
 80053cc:	4623      	mov	r3, r4
 80053ce:	eb18 0303 	adds.w	r3, r8, r3
 80053d2:	60bb      	str	r3, [r7, #8]
 80053d4:	462b      	mov	r3, r5
 80053d6:	eb49 0303 	adc.w	r3, r9, r3
 80053da:	60fb      	str	r3, [r7, #12]
 80053dc:	f04f 0200 	mov.w	r2, #0
 80053e0:	f04f 0300 	mov.w	r3, #0
 80053e4:	e9d7 4502 	ldrd	r4, r5, [r7, #8]
 80053e8:	4629      	mov	r1, r5
 80053ea:	028b      	lsls	r3, r1, #10
 80053ec:	4621      	mov	r1, r4
 80053ee:	ea43 5391 	orr.w	r3, r3, r1, lsr #22
 80053f2:	4621      	mov	r1, r4
 80053f4:	028a      	lsls	r2, r1, #10
 80053f6:	4610      	mov	r0, r2
 80053f8:	4619      	mov	r1, r3
 80053fa:	f8d7 308c 	ldr.w	r3, [r7, #140]	@ 0x8c
 80053fe:	2200      	movs	r2, #0
 8005400:	643b      	str	r3, [r7, #64]	@ 0x40
 8005402:	647a      	str	r2, [r7, #68]	@ 0x44
 8005404:	e9d7 2310 	ldrd	r2, r3, [r7, #64]	@ 0x40
 8005408:	f7fa ff52 	bl	80002b0 <__aeabi_uldivmod>
 800540c:	4602      	mov	r2, r0
 800540e:	460b      	mov	r3, r1
 8005410:	4613      	mov	r3, r2
 8005412:	f8c7 3094 	str.w	r3, [r7, #148]	@ 0x94
      }
      pllp = ((((RCC->PLLCFGR & RCC_PLLCFGR_PLLP) >> RCC_PLLCFGR_PLLP_Pos) + 1U) * 2U);
 8005416:	4b60      	ldr	r3, [pc, #384]	@ (8005598 <HAL_RCC_GetSysClockFreq+0x348>)
 8005418:	685b      	ldr	r3, [r3, #4]
 800541a:	0c1b      	lsrs	r3, r3, #16
 800541c:	f003 0303 	and.w	r3, r3, #3
 8005420:	3301      	adds	r3, #1
 8005422:	005b      	lsls	r3, r3, #1
 8005424:	f8c7 3088 	str.w	r3, [r7, #136]	@ 0x88

      sysclockfreq = pllvco / pllp;
 8005428:	f8d7 2094 	ldr.w	r2, [r7, #148]	@ 0x94
 800542c:	f8d7 3088 	ldr.w	r3, [r7, #136]	@ 0x88
 8005430:	fbb2 f3f3 	udiv	r3, r2, r3
 8005434:	f8c7 3090 	str.w	r3, [r7, #144]	@ 0x90
      break;
 8005438:	e0a6      	b.n	8005588 <HAL_RCC_GetSysClockFreq+0x338>
    }
    case RCC_CFGR_SWS_PLLR:  /* PLL/PLLR used as system clock  source */
    {
      /* PLL_VCO = (HSE_VALUE or HSI_VALUE / PLLM) * PLLN
      SYSCLK = PLL_VCO / PLLR */
      pllm = RCC->PLLCFGR & RCC_PLLCFGR_PLLM;
 800543a:	4b57      	ldr	r3, [pc, #348]	@ (8005598 <HAL_RCC_GetSysClockFreq+0x348>)
 800543c:	685b      	ldr	r3, [r3, #4]
 800543e:	f003 033f 	and.w	r3, r3, #63	@ 0x3f
 8005442:	f8c7 308c 	str.w	r3, [r7, #140]	@ 0x8c
      if (__HAL_RCC_GET_PLL_OSCSOURCE() != RCC_PLLSOURCE_HSI)
 8005446:	4b54      	ldr	r3, [pc, #336]	@ (8005598 <HAL_RCC_GetSysClockFreq+0x348>)
 8005448:	685b      	ldr	r3, [r3, #4]
 800544a:	f403 0380 	and.w	r3, r3, #4194304	@ 0x400000
 800544e:	2b00      	cmp	r3, #0
 8005450:	d02a      	beq.n	80054a8 <HAL_RCC_GetSysClockFreq+0x258>
      {
        /* HSE used as PLL clock source */
        pllvco = (uint32_t)((((uint64_t) HSE_VALUE * ((uint64_t)((RCC->PLLCFGR & RCC_PLLCFGR_PLLN) >> RCC_PLLCFGR_PLLN_Pos)))) / (uint64_t)pllm);
 8005452:	4b51      	ldr	r3, [pc, #324]	@ (8005598 <HAL_RCC_GetSysClockFreq+0x348>)
 8005454:	685b      	ldr	r3, [r3, #4]
 8005456:	099b      	lsrs	r3, r3, #6
 8005458:	2200      	movs	r2, #0
 800545a:	63bb      	str	r3, [r7, #56]	@ 0x38
 800545c:	63fa      	str	r2, [r7, #60]	@ 0x3c
 800545e:	6bbb      	ldr	r3, [r7, #56]	@ 0x38
 8005460:	f3c3 0008 	ubfx	r0, r3, #0, #9
 8005464:	2100      	movs	r1, #0
 8005466:	4b4e      	ldr	r3, [pc, #312]	@ (80055a0 <HAL_RCC_GetSysClockFreq+0x350>)
 8005468:	fb03 f201 	mul.w	r2, r3, r1
 800546c:	2300      	movs	r3, #0
 800546e:	fb00 f303 	mul.w	r3, r0, r3
 8005472:	4413      	add	r3, r2
 8005474:	4a4a      	ldr	r2, [pc, #296]	@ (80055a0 <HAL_RCC_GetSysClockFreq+0x350>)
 8005476:	fba0 1202 	umull	r1, r2, r0, r2
 800547a:	677a      	str	r2, [r7, #116]	@ 0x74
 800547c:	460a      	mov	r2, r1
 800547e:	673a      	str	r2, [r7, #112]	@ 0x70
 8005480:	6f7a      	ldr	r2, [r7, #116]	@ 0x74
 8005482:	4413      	add	r3, r2
 8005484:	677b      	str	r3, [r7, #116]	@ 0x74
 8005486:	f8d7 308c 	ldr.w	r3, [r7, #140]	@ 0x8c
 800548a:	2200      	movs	r2, #0
 800548c:	633b      	str	r3, [r7, #48]	@ 0x30
 800548e:	637a      	str	r2, [r7, #52]	@ 0x34
 8005490:	e9d7 230c 	ldrd	r2, r3, [r7, #48]	@ 0x30
 8005494:	e9d7 011c 	ldrd	r0, r1, [r7, #112]	@ 0x70
 8005498:	f7fa ff0a 	bl	80002b0 <__aeabi_uldivmod>
 800549c:	4602      	mov	r2, r0
 800549e:	460b      	mov	r3, r1
 80054a0:	4613      	mov	r3, r2
 80054a2:	f8c7 3094 	str.w	r3, [r7, #148]	@ 0x94
 80054a6:	e05b      	b.n	8005560 <HAL_RCC_GetSysClockFreq+0x310>
      }
      else
      {
        /* HSI used as PLL clock source */
        pllvco = (uint32_t)((((uint64_t) HSI_VALUE * ((uint64_t)((RCC->PLLCFGR & RCC_PLLCFGR_PLLN) >> RCC_PLLCFGR_PLLN_Pos)))) / (uint64_t)pllm);
 80054a8:	4b3b      	ldr	r3, [pc, #236]	@ (8005598 <HAL_RCC_GetSysClockFreq+0x348>)
 80054aa:	685b      	ldr	r3, [r3, #4]
 80054ac:	099b      	lsrs	r3, r3, #6
 80054ae:	2200      	movs	r2, #0
 80054b0:	62bb      	str	r3, [r7, #40]	@ 0x28
 80054b2:	62fa      	str	r2, [r7, #44]	@ 0x2c
 80054b4:	6abb      	ldr	r3, [r7, #40]	@ 0x28
 80054b6:	f3c3 0308 	ubfx	r3, r3, #0, #9
 80054ba:	623b      	str	r3, [r7, #32]
 80054bc:	2300      	movs	r3, #0
 80054be:	627b      	str	r3, [r7, #36]	@ 0x24
 80054c0:	e9d7 8908 	ldrd	r8, r9, [r7, #32]
 80054c4:	4642      	mov	r2, r8
 80054c6:	464b      	mov	r3, r9
 80054c8:	f04f 0000 	mov.w	r0, #0
 80054cc:	f04f 0100 	mov.w	r1, #0
 80054d0:	0159      	lsls	r1, r3, #5
 80054d2:	ea41 61d2 	orr.w	r1, r1, r2, lsr #27
 80054d6:	0150      	lsls	r0, r2, #5
 80054d8:	4602      	mov	r2, r0
 80054da:	460b      	mov	r3, r1
 80054dc:	4641      	mov	r1, r8
 80054de:	ebb2 0a01 	subs.w	sl, r2, r1
 80054e2:	4649      	mov	r1, r9
 80054e4:	eb63 0b01 	sbc.w	fp, r3, r1
 80054e8:	f04f 0200 	mov.w	r2, #0
 80054ec:	f04f 0300 	mov.w	r3, #0
 80054f0:	ea4f 138b 	mov.w	r3, fp, lsl #6
 80054f4:	ea43 639a 	orr.w	r3, r3, sl, lsr #26
 80054f8:	ea4f 128a 	mov.w	r2, sl, lsl #6
 80054fc:	ebb2 040a 	subs.w	r4, r2, sl
 8005500:	eb63 050b 	sbc.w	r5, r3, fp
 8005504:	f04f 0200 	mov.w	r2, #0
 8005508:	f04f 0300 	mov.w	r3, #0
 800550c:	00eb      	lsls	r3, r5, #3
 800550e:	ea43 7354 	orr.w	r3, r3, r4, lsr #29
 8005512:	00e2      	lsls	r2, r4, #3
 8005514:	4614      	mov	r4, r2
 8005516:	461d      	mov	r5, r3
 8005518:	4643      	mov	r3, r8
 800551a:	18e3      	adds	r3, r4, r3
 800551c:	603b      	str	r3, [r7, #0]
 800551e:	464b      	mov	r3, r9
 8005520:	eb45 0303 	adc.w	r3, r5, r3
 8005524:	607b      	str	r3, [r7, #4]
 8005526:	f04f 0200 	mov.w	r2, #0
 800552a:	f04f 0300 	mov.w	r3, #0
 800552e:	e9d7 4500 	ldrd	r4, r5, [r7]
 8005532:	4629      	mov	r1, r5
 8005534:	028b      	lsls	r3, r1, #10
 8005536:	4621      	mov	r1, r4
 8005538:	ea43 5391 	orr.w	r3, r3, r1, lsr #22
 800553c:	4621      	mov	r1, r4
 800553e:	028a      	lsls	r2, r1, #10
 8005540:	4610      	mov	r0, r2
 8005542:	4619      	mov	r1, r3
 8005544:	f8d7 308c 	ldr.w	r3, [r7, #140]	@ 0x8c
 8005548:	2200      	movs	r2, #0
 800554a:	61bb      	str	r3, [r7, #24]
 800554c:	61fa      	str	r2, [r7, #28]
 800554e:	e9d7 2306 	ldrd	r2, r3, [r7, #24]
 8005552:	f7fa fead 	bl	80002b0 <__aeabi_uldivmod>
 8005556:	4602      	mov	r2, r0
 8005558:	460b      	mov	r3, r1
 800555a:	4613      	mov	r3, r2
 800555c:	f8c7 3094 	str.w	r3, [r7, #148]	@ 0x94
      }
      pllr = ((RCC->PLLCFGR & RCC_PLLCFGR_PLLR) >> RCC_PLLCFGR_PLLR_Pos);
 8005560:	4b0d      	ldr	r3, [pc, #52]	@ (8005598 <HAL_RCC_GetSysClockFreq+0x348>)
 8005562:	685b      	ldr	r3, [r3, #4]
 8005564:	0f1b      	lsrs	r3, r3, #28
 8005566:	f003 0307 	and.w	r3, r3, #7
 800556a:	f8c7 3084 	str.w	r3, [r7, #132]	@ 0x84

      sysclockfreq = pllvco / pllr;
 800556e:	f8d7 2094 	ldr.w	r2, [r7, #148]	@ 0x94
 8005572:	f8d7 3084 	ldr.w	r3, [r7, #132]	@ 0x84
 8005576:	fbb2 f3f3 	udiv	r3, r2, r3
 800557a:	f8c7 3090 	str.w	r3, [r7, #144]	@ 0x90
      break;
 800557e:	e003      	b.n	8005588 <HAL_RCC_GetSysClockFreq+0x338>
    }
    default:
    {
      sysclockfreq = HSI_VALUE;
 8005580:	4b06      	ldr	r3, [pc, #24]	@ (800559c <HAL_RCC_GetSysClockFreq+0x34c>)
 8005582:	f8c7 3090 	str.w	r3, [r7, #144]	@ 0x90
      break;
 8005586:	bf00      	nop
    }
  }
  return sysclockfreq;
 8005588:	f8d7 3090 	ldr.w	r3, [r7, #144]	@ 0x90
}
 800558c:	4618      	mov	r0, r3
 800558e:	3798      	adds	r7, #152	@ 0x98
 8005590:	46bd      	mov	sp, r7
 8005592:	e8bd 8fb0 	ldmia.w	sp!, {r4, r5, r7, r8, r9, sl, fp, pc}
 8005596:	bf00      	nop
 8005598:	40023800 	.word	0x40023800
 800559c:	00f42400 	.word	0x00f42400
 80055a0:	017d7840 	.word	0x017d7840

080055a4 <HAL_RCC_OscConfig>:
  * @note   This function add the PLL/PLLR factor management during PLL configuration this feature
  *         is only available in STM32F410xx/STM32F446xx/STM32F469xx/STM32F479xx/STM32F412Zx/STM32F412Vx/STM32F412Rx/STM32F412Cx devices
  * @retval HAL status
  */
HAL_StatusTypeDef HAL_RCC_OscConfig(const RCC_OscInitTypeDef  *RCC_OscInitStruct)
{
 80055a4:	b580      	push	{r7, lr}
 80055a6:	b086      	sub	sp, #24
 80055a8:	af00      	add	r7, sp, #0
 80055aa:	6078      	str	r0, [r7, #4]
  uint32_t tickstart;
  uint32_t pll_config;

  /* Check Null pointer */
  if (RCC_OscInitStruct == NULL)
 80055ac:	687b      	ldr	r3, [r7, #4]
 80055ae:	2b00      	cmp	r3, #0
 80055b0:	d101      	bne.n	80055b6 <HAL_RCC_OscConfig+0x12>
  {
    return HAL_ERROR;
 80055b2:	2301      	movs	r3, #1
 80055b4:	e28d      	b.n	8005ad2 <HAL_RCC_OscConfig+0x52e>
  }

  /* Check the parameters */
  assert_param(IS_RCC_OSCILLATORTYPE(RCC_OscInitStruct->OscillatorType));
  /*------------------------------- HSE Configuration ------------------------*/
  if (((RCC_OscInitStruct->OscillatorType) & RCC_OSCILLATORTYPE_HSE) == RCC_OSCILLATORTYPE_HSE)
 80055b6:	687b      	ldr	r3, [r7, #4]
 80055b8:	681b      	ldr	r3, [r3, #0]
 80055ba:	f003 0301 	and.w	r3, r3, #1
 80055be:	2b00      	cmp	r3, #0
 80055c0:	f000 8083 	beq.w	80056ca <HAL_RCC_OscConfig+0x126>
  {
    /* Check the parameters */
    assert_param(IS_RCC_HSE(RCC_OscInitStruct->HSEState));
    /* When the HSE is used as system clock or clock source for PLL in these cases HSE will not disabled */
#if defined(STM32F446xx)
    if ((__HAL_RCC_GET_SYSCLK_SOURCE() == RCC_CFGR_SWS_HSE)
 80055c4:	4b94      	ldr	r3, [pc, #592]	@ (8005818 <HAL_RCC_OscConfig+0x274>)
 80055c6:	689b      	ldr	r3, [r3, #8]
 80055c8:	f003 030c 	and.w	r3, r3, #12
 80055cc:	2b04      	cmp	r3, #4
 80055ce:	d019      	beq.n	8005604 <HAL_RCC_OscConfig+0x60>
        || \
        ((__HAL_RCC_GET_SYSCLK_SOURCE() == RCC_CFGR_SWS_PLL) && ((RCC->PLLCFGR & RCC_PLLCFGR_PLLSRC) == RCC_PLLCFGR_PLLSRC_HSE)) || \
 80055d0:	4b91      	ldr	r3, [pc, #580]	@ (8005818 <HAL_RCC_OscConfig+0x274>)
 80055d2:	689b      	ldr	r3, [r3, #8]
 80055d4:	f003 030c 	and.w	r3, r3, #12
        || \
 80055d8:	2b08      	cmp	r3, #8
 80055da:	d106      	bne.n	80055ea <HAL_RCC_OscConfig+0x46>
        ((__HAL_RCC_GET_SYSCLK_SOURCE() == RCC_CFGR_SWS_PLL) && ((RCC->PLLCFGR & RCC_PLLCFGR_PLLSRC) == RCC_PLLCFGR_PLLSRC_HSE)) || \
 80055dc:	4b8e      	ldr	r3, [pc, #568]	@ (8005818 <HAL_RCC_OscConfig+0x274>)
 80055de:	685b      	ldr	r3, [r3, #4]
 80055e0:	f403 0380 	and.w	r3, r3, #4194304	@ 0x400000
 80055e4:	f5b3 0f80 	cmp.w	r3, #4194304	@ 0x400000
 80055e8:	d00c      	beq.n	8005604 <HAL_RCC_OscConfig+0x60>
        ((__HAL_RCC_GET_SYSCLK_SOURCE() == RCC_CFGR_SWS_PLLR) && ((RCC->PLLCFGR & RCC_PLLCFGR_PLLSRC) == RCC_PLLCFGR_PLLSRC_HSE)))
 80055ea:	4b8b      	ldr	r3, [pc, #556]	@ (8005818 <HAL_RCC_OscConfig+0x274>)
 80055ec:	689b      	ldr	r3, [r3, #8]
 80055ee:	f003 030c 	and.w	r3, r3, #12
        ((__HAL_RCC_GET_SYSCLK_SOURCE() == RCC_CFGR_SWS_PLL) && ((RCC->PLLCFGR & RCC_PLLCFGR_PLLSRC) == RCC_PLLCFGR_PLLSRC_HSE)) || \
 80055f2:	2b0c      	cmp	r3, #12
 80055f4:	d112      	bne.n	800561c <HAL_RCC_OscConfig+0x78>
        ((__HAL_RCC_GET_SYSCLK_SOURCE() == RCC_CFGR_SWS_PLLR) && ((RCC->PLLCFGR & RCC_PLLCFGR_PLLSRC) == RCC_PLLCFGR_PLLSRC_HSE)))
 80055f6:	4b88      	ldr	r3, [pc, #544]	@ (8005818 <HAL_RCC_OscConfig+0x274>)
 80055f8:	685b      	ldr	r3, [r3, #4]
 80055fa:	f403 0380 	and.w	r3, r3, #4194304	@ 0x400000
 80055fe:	f5b3 0f80 	cmp.w	r3, #4194304	@ 0x400000
 8005602:	d10b      	bne.n	800561c <HAL_RCC_OscConfig+0x78>
    if ((__HAL_RCC_GET_SYSCLK_SOURCE() == RCC_CFGR_SWS_HSE)
        || \
        ((__HAL_RCC_GET_SYSCLK_SOURCE() == RCC_CFGR_SWS_PLL) && ((RCC->PLLCFGR & RCC_PLLCFGR_PLLSRC) == RCC_PLLCFGR_PLLSRC_HSE)))
#endif /* STM32F446xx */
    {
      if ((__HAL_RCC_GET_FLAG(RCC_FLAG_HSERDY) != RESET) && (RCC_OscInitStruct->HSEState == RCC_HSE_OFF))
 8005604:	4b84      	ldr	r3, [pc, #528]	@ (8005818 <HAL_RCC_OscConfig+0x274>)
 8005606:	681b      	ldr	r3, [r3, #0]
 8005608:	f403 3300 	and.w	r3, r3, #131072	@ 0x20000
 800560c:	2b00      	cmp	r3, #0
 800560e:	d05b      	beq.n	80056c8 <HAL_RCC_OscConfig+0x124>
 8005610:	687b      	ldr	r3, [r7, #4]
 8005612:	685b      	ldr	r3, [r3, #4]
 8005614:	2b00      	cmp	r3, #0
 8005616:	d157      	bne.n	80056c8 <HAL_RCC_OscConfig+0x124>
      {
        return HAL_ERROR;
 8005618:	2301      	movs	r3, #1
 800561a:	e25a      	b.n	8005ad2 <HAL_RCC_OscConfig+0x52e>
      }
    }
    else
    {
      /* Set the new HSE configuration ---------------------------------------*/
      __HAL_RCC_HSE_CONFIG(RCC_OscInitStruct->HSEState);
 800561c:	687b      	ldr	r3, [r7, #4]
 800561e:	685b      	ldr	r3, [r3, #4]
 8005620:	f5b3 3f80 	cmp.w	r3, #65536	@ 0x10000
 8005624:	d106      	bne.n	8005634 <HAL_RCC_OscConfig+0x90>
 8005626:	4b7c      	ldr	r3, [pc, #496]	@ (8005818 <HAL_RCC_OscConfig+0x274>)
 8005628:	681b      	ldr	r3, [r3, #0]
 800562a:	4a7b      	ldr	r2, [pc, #492]	@ (8005818 <HAL_RCC_OscConfig+0x274>)
 800562c:	f443 3380 	orr.w	r3, r3, #65536	@ 0x10000
 8005630:	6013      	str	r3, [r2, #0]
 8005632:	e01d      	b.n	8005670 <HAL_RCC_OscConfig+0xcc>
 8005634:	687b      	ldr	r3, [r7, #4]
 8005636:	685b      	ldr	r3, [r3, #4]
 8005638:	f5b3 2fa0 	cmp.w	r3, #327680	@ 0x50000
 800563c:	d10c      	bne.n	8005658 <HAL_RCC_OscConfig+0xb4>
 800563e:	4b76      	ldr	r3, [pc, #472]	@ (8005818 <HAL_RCC_OscConfig+0x274>)
 8005640:	681b      	ldr	r3, [r3, #0]
 8005642:	4a75      	ldr	r2, [pc, #468]	@ (8005818 <HAL_RCC_OscConfig+0x274>)
 8005644:	f443 2380 	orr.w	r3, r3, #262144	@ 0x40000
 8005648:	6013      	str	r3, [r2, #0]
 800564a:	4b73      	ldr	r3, [pc, #460]	@ (8005818 <HAL_RCC_OscConfig+0x274>)
 800564c:	681b      	ldr	r3, [r3, #0]
 800564e:	4a72      	ldr	r2, [pc, #456]	@ (8005818 <HAL_RCC_OscConfig+0x274>)
 8005650:	f443 3380 	orr.w	r3, r3, #65536	@ 0x10000
 8005654:	6013      	str	r3, [r2, #0]
 8005656:	e00b      	b.n	8005670 <HAL_RCC_OscConfig+0xcc>
 8005658:	4b6f      	ldr	r3, [pc, #444]	@ (8005818 <HAL_RCC_OscConfig+0x274>)
 800565a:	681b      	ldr	r3, [r3, #0]
 800565c:	4a6e      	ldr	r2, [pc, #440]	@ (8005818 <HAL_RCC_OscConfig+0x274>)
 800565e:	f423 3380 	bic.w	r3, r3, #65536	@ 0x10000
 8005662:	6013      	str	r3, [r2, #0]
 8005664:	4b6c      	ldr	r3, [pc, #432]	@ (8005818 <HAL_RCC_OscConfig+0x274>)
 8005666:	681b      	ldr	r3, [r3, #0]
 8005668:	4a6b      	ldr	r2, [pc, #428]	@ (8005818 <HAL_RCC_OscConfig+0x274>)
 800566a:	f423 2380 	bic.w	r3, r3, #262144	@ 0x40000
 800566e:	6013      	str	r3, [r2, #0]

      /* Check the HSE State */
      if ((RCC_OscInitStruct->HSEState) != RCC_HSE_OFF)
 8005670:	687b      	ldr	r3, [r7, #4]
 8005672:	685b      	ldr	r3, [r3, #4]
 8005674:	2b00      	cmp	r3, #0
 8005676:	d013      	beq.n	80056a0 <HAL_RCC_OscConfig+0xfc>
      {
        /* Get Start Tick*/
        tickstart = HAL_GetTick();
 8005678:	f7fe fc26 	bl	8003ec8 <HAL_GetTick>
 800567c:	6138      	str	r0, [r7, #16]

        /* Wait till HSE is ready */
        while (__HAL_RCC_GET_FLAG(RCC_FLAG_HSERDY) == RESET)
 800567e:	e008      	b.n	8005692 <HAL_RCC_OscConfig+0xee>
        {
          if ((HAL_GetTick() - tickstart) > HSE_TIMEOUT_VALUE)
 8005680:	f7fe fc22 	bl	8003ec8 <HAL_GetTick>
 8005684:	4602      	mov	r2, r0
 8005686:	693b      	ldr	r3, [r7, #16]
 8005688:	1ad3      	subs	r3, r2, r3
 800568a:	2b64      	cmp	r3, #100	@ 0x64
 800568c:	d901      	bls.n	8005692 <HAL_RCC_OscConfig+0xee>
          {
            return HAL_TIMEOUT;
 800568e:	2303      	movs	r3, #3
 8005690:	e21f      	b.n	8005ad2 <HAL_RCC_OscConfig+0x52e>
        while (__HAL_RCC_GET_FLAG(RCC_FLAG_HSERDY) == RESET)
 8005692:	4b61      	ldr	r3, [pc, #388]	@ (8005818 <HAL_RCC_OscConfig+0x274>)
 8005694:	681b      	ldr	r3, [r3, #0]
 8005696:	f403 3300 	and.w	r3, r3, #131072	@ 0x20000
 800569a:	2b00      	cmp	r3, #0
 800569c:	d0f0      	beq.n	8005680 <HAL_RCC_OscConfig+0xdc>
 800569e:	e014      	b.n	80056ca <HAL_RCC_OscConfig+0x126>
        }
      }
      else
      {
        /* Get Start Tick*/
        tickstart = HAL_GetTick();
 80056a0:	f7fe fc12 	bl	8003ec8 <HAL_GetTick>
 80056a4:	6138      	str	r0, [r7, #16]

        /* Wait till HSE is bypassed or disabled */
        while (__HAL_RCC_GET_FLAG(RCC_FLAG_HSERDY) != RESET)
 80056a6:	e008      	b.n	80056ba <HAL_RCC_OscConfig+0x116>
        {
          if ((HAL_GetTick() - tickstart) > HSE_TIMEOUT_VALUE)
 80056a8:	f7fe fc0e 	bl	8003ec8 <HAL_GetTick>
 80056ac:	4602      	mov	r2, r0
 80056ae:	693b      	ldr	r3, [r7, #16]
 80056b0:	1ad3      	subs	r3, r2, r3
 80056b2:	2b64      	cmp	r3, #100	@ 0x64
 80056b4:	d901      	bls.n	80056ba <HAL_RCC_OscConfig+0x116>
          {
            return HAL_TIMEOUT;
 80056b6:	2303      	movs	r3, #3
 80056b8:	e20b      	b.n	8005ad2 <HAL_RCC_OscConfig+0x52e>
        while (__HAL_RCC_GET_FLAG(RCC_FLAG_HSERDY) != RESET)
 80056ba:	4b57      	ldr	r3, [pc, #348]	@ (8005818 <HAL_RCC_OscConfig+0x274>)
 80056bc:	681b      	ldr	r3, [r3, #0]
 80056be:	f403 3300 	and.w	r3, r3, #131072	@ 0x20000
 80056c2:	2b00      	cmp	r3, #0
 80056c4:	d1f0      	bne.n	80056a8 <HAL_RCC_OscConfig+0x104>
 80056c6:	e000      	b.n	80056ca <HAL_RCC_OscConfig+0x126>
      if ((__HAL_RCC_GET_FLAG(RCC_FLAG_HSERDY) != RESET) && (RCC_OscInitStruct->HSEState == RCC_HSE_OFF))
 80056c8:	bf00      	nop
        }
      }
    }
  }
  /*----------------------------- HSI Configuration --------------------------*/
  if (((RCC_OscInitStruct->OscillatorType) & RCC_OSCILLATORTYPE_HSI) == RCC_OSCILLATORTYPE_HSI)
 80056ca:	687b      	ldr	r3, [r7, #4]
 80056cc:	681b      	ldr	r3, [r3, #0]
 80056ce:	f003 0302 	and.w	r3, r3, #2
 80056d2:	2b00      	cmp	r3, #0
 80056d4:	d06f      	beq.n	80057b6 <HAL_RCC_OscConfig+0x212>
    assert_param(IS_RCC_HSI(RCC_OscInitStruct->HSIState));
    assert_param(IS_RCC_CALIBRATION_VALUE(RCC_OscInitStruct->HSICalibrationValue));

    /* Check if HSI is used as system clock or as PLL source when PLL is selected as system clock */
#if defined(STM32F446xx)
    if ((__HAL_RCC_GET_SYSCLK_SOURCE() == RCC_CFGR_SWS_HSI)
 80056d6:	4b50      	ldr	r3, [pc, #320]	@ (8005818 <HAL_RCC_OscConfig+0x274>)
 80056d8:	689b      	ldr	r3, [r3, #8]
 80056da:	f003 030c 	and.w	r3, r3, #12
 80056de:	2b00      	cmp	r3, #0
 80056e0:	d017      	beq.n	8005712 <HAL_RCC_OscConfig+0x16e>
        || \
        ((__HAL_RCC_GET_SYSCLK_SOURCE() == RCC_CFGR_SWS_PLL) && ((RCC->PLLCFGR & RCC_PLLCFGR_PLLSRC) == RCC_PLLCFGR_PLLSRC_HSI)) || \
 80056e2:	4b4d      	ldr	r3, [pc, #308]	@ (8005818 <HAL_RCC_OscConfig+0x274>)
 80056e4:	689b      	ldr	r3, [r3, #8]
 80056e6:	f003 030c 	and.w	r3, r3, #12
        || \
 80056ea:	2b08      	cmp	r3, #8
 80056ec:	d105      	bne.n	80056fa <HAL_RCC_OscConfig+0x156>
        ((__HAL_RCC_GET_SYSCLK_SOURCE() == RCC_CFGR_SWS_PLL) && ((RCC->PLLCFGR & RCC_PLLCFGR_PLLSRC) == RCC_PLLCFGR_PLLSRC_HSI)) || \
 80056ee:	4b4a      	ldr	r3, [pc, #296]	@ (8005818 <HAL_RCC_OscConfig+0x274>)
 80056f0:	685b      	ldr	r3, [r3, #4]
 80056f2:	f403 0380 	and.w	r3, r3, #4194304	@ 0x400000
 80056f6:	2b00      	cmp	r3, #0
 80056f8:	d00b      	beq.n	8005712 <HAL_RCC_OscConfig+0x16e>
        ((__HAL_RCC_GET_SYSCLK_SOURCE() == RCC_CFGR_SWS_PLLR) && ((RCC->PLLCFGR & RCC_PLLCFGR_PLLSRC) == RCC_PLLCFGR_PLLSRC_HSI)))
 80056fa:	4b47      	ldr	r3, [pc, #284]	@ (8005818 <HAL_RCC_OscConfig+0x274>)
 80056fc:	689b      	ldr	r3, [r3, #8]
 80056fe:	f003 030c 	and.w	r3, r3, #12
        ((__HAL_RCC_GET_SYSCLK_SOURCE() == RCC_CFGR_SWS_PLL) && ((RCC->PLLCFGR & RCC_PLLCFGR_PLLSRC) == RCC_PLLCFGR_PLLSRC_HSI)) || \
 8005702:	2b0c      	cmp	r3, #12
 8005704:	d11c      	bne.n	8005740 <HAL_RCC_OscConfig+0x19c>
        ((__HAL_RCC_GET_SYSCLK_SOURCE() == RCC_CFGR_SWS_PLLR) && ((RCC->PLLCFGR & RCC_PLLCFGR_PLLSRC) == RCC_PLLCFGR_PLLSRC_HSI)))
 8005706:	4b44      	ldr	r3, [pc, #272]	@ (8005818 <HAL_RCC_OscConfig+0x274>)
 8005708:	685b      	ldr	r3, [r3, #4]
 800570a:	f403 0380 	and.w	r3, r3, #4194304	@ 0x400000
 800570e:	2b00      	cmp	r3, #0
 8005710:	d116      	bne.n	8005740 <HAL_RCC_OscConfig+0x19c>
        || \
        ((__HAL_RCC_GET_SYSCLK_SOURCE() == RCC_CFGR_SWS_PLL) && ((RCC->PLLCFGR & RCC_PLLCFGR_PLLSRC) == RCC_PLLCFGR_PLLSRC_HSI)))
#endif /* STM32F446xx */
    {
      /* When HSI is used as system clock it will not disabled */
      if ((__HAL_RCC_GET_FLAG(RCC_FLAG_HSIRDY) != RESET) && (RCC_OscInitStruct->HSIState != RCC_HSI_ON))
 8005712:	4b41      	ldr	r3, [pc, #260]	@ (8005818 <HAL_RCC_OscConfig+0x274>)
 8005714:	681b      	ldr	r3, [r3, #0]
 8005716:	f003 0302 	and.w	r3, r3, #2
 800571a:	2b00      	cmp	r3, #0
 800571c:	d005      	beq.n	800572a <HAL_RCC_OscConfig+0x186>
 800571e:	687b      	ldr	r3, [r7, #4]
 8005720:	68db      	ldr	r3, [r3, #12]
 8005722:	2b01      	cmp	r3, #1
 8005724:	d001      	beq.n	800572a <HAL_RCC_OscConfig+0x186>
      {
        return HAL_ERROR;
 8005726:	2301      	movs	r3, #1
 8005728:	e1d3      	b.n	8005ad2 <HAL_RCC_OscConfig+0x52e>
      }
      /* Otherwise, just the calibration is allowed */
      else
      {
        /* Adjusts the Internal High Speed oscillator (HSI) calibration value.*/
        __HAL_RCC_HSI_CALIBRATIONVALUE_ADJUST(RCC_OscInitStruct->HSICalibrationValue);
 800572a:	4b3b      	ldr	r3, [pc, #236]	@ (8005818 <HAL_RCC_OscConfig+0x274>)
 800572c:	681b      	ldr	r3, [r3, #0]
 800572e:	f023 02f8 	bic.w	r2, r3, #248	@ 0xf8
 8005732:	687b      	ldr	r3, [r7, #4]
 8005734:	691b      	ldr	r3, [r3, #16]
 8005736:	00db      	lsls	r3, r3, #3
 8005738:	4937      	ldr	r1, [pc, #220]	@ (8005818 <HAL_RCC_OscConfig+0x274>)
 800573a:	4313      	orrs	r3, r2
 800573c:	600b      	str	r3, [r1, #0]
      if ((__HAL_RCC_GET_FLAG(RCC_FLAG_HSIRDY) != RESET) && (RCC_OscInitStruct->HSIState != RCC_HSI_ON))
 800573e:	e03a      	b.n	80057b6 <HAL_RCC_OscConfig+0x212>
      }
    }
    else
    {
      /* Check the HSI State */
      if ((RCC_OscInitStruct->HSIState) != RCC_HSI_OFF)
 8005740:	687b      	ldr	r3, [r7, #4]
 8005742:	68db      	ldr	r3, [r3, #12]
 8005744:	2b00      	cmp	r3, #0
 8005746:	d020      	beq.n	800578a <HAL_RCC_OscConfig+0x1e6>
      {
        /* Enable the Internal High Speed oscillator (HSI). */
        __HAL_RCC_HSI_ENABLE();
 8005748:	4b34      	ldr	r3, [pc, #208]	@ (800581c <HAL_RCC_OscConfig+0x278>)
 800574a:	2201      	movs	r2, #1
 800574c:	601a      	str	r2, [r3, #0]

        /* Get Start Tick*/
        tickstart = HAL_GetTick();
 800574e:	f7fe fbbb 	bl	8003ec8 <HAL_GetTick>
 8005752:	6138      	str	r0, [r7, #16]

        /* Wait till HSI is ready */
        while (__HAL_RCC_GET_FLAG(RCC_FLAG_HSIRDY) == RESET)
 8005754:	e008      	b.n	8005768 <HAL_RCC_OscConfig+0x1c4>
        {
          if ((HAL_GetTick() - tickstart) > HSI_TIMEOUT_VALUE)
 8005756:	f7fe fbb7 	bl	8003ec8 <HAL_GetTick>
 800575a:	4602      	mov	r2, r0
 800575c:	693b      	ldr	r3, [r7, #16]
 800575e:	1ad3      	subs	r3, r2, r3
 8005760:	2b02      	cmp	r3, #2
 8005762:	d901      	bls.n	8005768 <HAL_RCC_OscConfig+0x1c4>
          {
            return HAL_TIMEOUT;
 8005764:	2303      	movs	r3, #3
 8005766:	e1b4      	b.n	8005ad2 <HAL_RCC_OscConfig+0x52e>
        while (__HAL_RCC_GET_FLAG(RCC_FLAG_HSIRDY) == RESET)
 8005768:	4b2b      	ldr	r3, [pc, #172]	@ (8005818 <HAL_RCC_OscConfig+0x274>)
 800576a:	681b      	ldr	r3, [r3, #0]
 800576c:	f003 0302 	and.w	r3, r3, #2
 8005770:	2b00      	cmp	r3, #0
 8005772:	d0f0      	beq.n	8005756 <HAL_RCC_OscConfig+0x1b2>
          }
        }

        /* Adjusts the Internal High Speed oscillator (HSI) calibration value.*/
        __HAL_RCC_HSI_CALIBRATIONVALUE_ADJUST(RCC_OscInitStruct->HSICalibrationValue);
 8005774:	4b28      	ldr	r3, [pc, #160]	@ (8005818 <HAL_RCC_OscConfig+0x274>)
 8005776:	681b      	ldr	r3, [r3, #0]
 8005778:	f023 02f8 	bic.w	r2, r3, #248	@ 0xf8
 800577c:	687b      	ldr	r3, [r7, #4]
 800577e:	691b      	ldr	r3, [r3, #16]
 8005780:	00db      	lsls	r3, r3, #3
 8005782:	4925      	ldr	r1, [pc, #148]	@ (8005818 <HAL_RCC_OscConfig+0x274>)
 8005784:	4313      	orrs	r3, r2
 8005786:	600b      	str	r3, [r1, #0]
 8005788:	e015      	b.n	80057b6 <HAL_RCC_OscConfig+0x212>
      }
      else
      {
        /* Disable the Internal High Speed oscillator (HSI). */
        __HAL_RCC_HSI_DISABLE();
 800578a:	4b24      	ldr	r3, [pc, #144]	@ (800581c <HAL_RCC_OscConfig+0x278>)
 800578c:	2200      	movs	r2, #0
 800578e:	601a      	str	r2, [r3, #0]

        /* Get Start Tick*/
        tickstart = HAL_GetTick();
 8005790:	f7fe fb9a 	bl	8003ec8 <HAL_GetTick>
 8005794:	6138      	str	r0, [r7, #16]

        /* Wait till HSI is ready */
        while (__HAL_RCC_GET_FLAG(RCC_FLAG_HSIRDY) != RESET)
 8005796:	e008      	b.n	80057aa <HAL_RCC_OscConfig+0x206>
        {
          if ((HAL_GetTick() - tickstart) > HSI_TIMEOUT_VALUE)
 8005798:	f7fe fb96 	bl	8003ec8 <HAL_GetTick>
 800579c:	4602      	mov	r2, r0
 800579e:	693b      	ldr	r3, [r7, #16]
 80057a0:	1ad3      	subs	r3, r2, r3
 80057a2:	2b02      	cmp	r3, #2
 80057a4:	d901      	bls.n	80057aa <HAL_RCC_OscConfig+0x206>
          {
            return HAL_TIMEOUT;
 80057a6:	2303      	movs	r3, #3
 80057a8:	e193      	b.n	8005ad2 <HAL_RCC_OscConfig+0x52e>
        while (__HAL_RCC_GET_FLAG(RCC_FLAG_HSIRDY) != RESET)
 80057aa:	4b1b      	ldr	r3, [pc, #108]	@ (8005818 <HAL_RCC_OscConfig+0x274>)
 80057ac:	681b      	ldr	r3, [r3, #0]
 80057ae:	f003 0302 	and.w	r3, r3, #2
 80057b2:	2b00      	cmp	r3, #0
 80057b4:	d1f0      	bne.n	8005798 <HAL_RCC_OscConfig+0x1f4>
        }
      }
    }
  }
  /*------------------------------ LSI Configuration -------------------------*/
  if (((RCC_OscInitStruct->OscillatorType) & RCC_OSCILLATORTYPE_LSI) == RCC_OSCILLATORTYPE_LSI)
 80057b6:	687b      	ldr	r3, [r7, #4]
 80057b8:	681b      	ldr	r3, [r3, #0]
 80057ba:	f003 0308 	and.w	r3, r3, #8
 80057be:	2b00      	cmp	r3, #0
 80057c0:	d036      	beq.n	8005830 <HAL_RCC_OscConfig+0x28c>
  {
    /* Check the parameters */
    assert_param(IS_RCC_LSI(RCC_OscInitStruct->LSIState));

    /* Check the LSI State */
    if ((RCC_OscInitStruct->LSIState) != RCC_LSI_OFF)
 80057c2:	687b      	ldr	r3, [r7, #4]
 80057c4:	695b      	ldr	r3, [r3, #20]
 80057c6:	2b00      	cmp	r3, #0
 80057c8:	d016      	beq.n	80057f8 <HAL_RCC_OscConfig+0x254>
    {
      /* Enable the Internal Low Speed oscillator (LSI). */
      __HAL_RCC_LSI_ENABLE();
 80057ca:	4b15      	ldr	r3, [pc, #84]	@ (8005820 <HAL_RCC_OscConfig+0x27c>)
 80057cc:	2201      	movs	r2, #1
 80057ce:	601a      	str	r2, [r3, #0]

      /* Get Start Tick*/
      tickstart = HAL_GetTick();
 80057d0:	f7fe fb7a 	bl	8003ec8 <HAL_GetTick>
 80057d4:	6138      	str	r0, [r7, #16]

      /* Wait till LSI is ready */
      while (__HAL_RCC_GET_FLAG(RCC_FLAG_LSIRDY) == RESET)
 80057d6:	e008      	b.n	80057ea <HAL_RCC_OscConfig+0x246>
      {
        if ((HAL_GetTick() - tickstart) > LSI_TIMEOUT_VALUE)
 80057d8:	f7fe fb76 	bl	8003ec8 <HAL_GetTick>
 80057dc:	4602      	mov	r2, r0
 80057de:	693b      	ldr	r3, [r7, #16]
 80057e0:	1ad3      	subs	r3, r2, r3
 80057e2:	2b02      	cmp	r3, #2
 80057e4:	d901      	bls.n	80057ea <HAL_RCC_OscConfig+0x246>
        {
          return HAL_TIMEOUT;
 80057e6:	2303      	movs	r3, #3
 80057e8:	e173      	b.n	8005ad2 <HAL_RCC_OscConfig+0x52e>
      while (__HAL_RCC_GET_FLAG(RCC_FLAG_LSIRDY) == RESET)
 80057ea:	4b0b      	ldr	r3, [pc, #44]	@ (8005818 <HAL_RCC_OscConfig+0x274>)
 80057ec:	6f5b      	ldr	r3, [r3, #116]	@ 0x74
 80057ee:	f003 0302 	and.w	r3, r3, #2
 80057f2:	2b00      	cmp	r3, #0
 80057f4:	d0f0      	beq.n	80057d8 <HAL_RCC_OscConfig+0x234>
 80057f6:	e01b      	b.n	8005830 <HAL_RCC_OscConfig+0x28c>
      }
    }
    else
    {
      /* Disable the Internal Low Speed oscillator (LSI). */
      __HAL_RCC_LSI_DISABLE();
 80057f8:	4b09      	ldr	r3, [pc, #36]	@ (8005820 <HAL_RCC_OscConfig+0x27c>)
 80057fa:	2200      	movs	r2, #0
 80057fc:	601a      	str	r2, [r3, #0]

      /* Get Start Tick*/
      tickstart = HAL_GetTick();
 80057fe:	f7fe fb63 	bl	8003ec8 <HAL_GetTick>
 8005802:	6138      	str	r0, [r7, #16]

      /* Wait till LSI is ready */
      while (__HAL_RCC_GET_FLAG(RCC_FLAG_LSIRDY) != RESET)
 8005804:	e00e      	b.n	8005824 <HAL_RCC_OscConfig+0x280>
      {
        if ((HAL_GetTick() - tickstart) > LSI_TIMEOUT_VALUE)
 8005806:	f7fe fb5f 	bl	8003ec8 <HAL_GetTick>
 800580a:	4602      	mov	r2, r0
 800580c:	693b      	ldr	r3, [r7, #16]
 800580e:	1ad3      	subs	r3, r2, r3
 8005810:	2b02      	cmp	r3, #2
 8005812:	d907      	bls.n	8005824 <HAL_RCC_OscConfig+0x280>
        {
          return HAL_TIMEOUT;
 8005814:	2303      	movs	r3, #3
 8005816:	e15c      	b.n	8005ad2 <HAL_RCC_OscConfig+0x52e>
 8005818:	40023800 	.word	0x40023800
 800581c:	42470000 	.word	0x42470000
 8005820:	42470e80 	.word	0x42470e80
      while (__HAL_RCC_GET_FLAG(RCC_FLAG_LSIRDY) != RESET)
 8005824:	4b8a      	ldr	r3, [pc, #552]	@ (8005a50 <HAL_RCC_OscConfig+0x4ac>)
 8005826:	6f5b      	ldr	r3, [r3, #116]	@ 0x74
 8005828:	f003 0302 	and.w	r3, r3, #2
 800582c:	2b00      	cmp	r3, #0
 800582e:	d1ea      	bne.n	8005806 <HAL_RCC_OscConfig+0x262>
        }
      }
    }
  }
  /*------------------------------ LSE Configuration -------------------------*/
  if (((RCC_OscInitStruct->OscillatorType) & RCC_OSCILLATORTYPE_LSE) == RCC_OSCILLATORTYPE_LSE)
 8005830:	687b      	ldr	r3, [r7, #4]
 8005832:	681b      	ldr	r3, [r3, #0]
 8005834:	f003 0304 	and.w	r3, r3, #4
 8005838:	2b00      	cmp	r3, #0
 800583a:	f000 8097 	beq.w	800596c <HAL_RCC_OscConfig+0x3c8>
  {
    FlagStatus       pwrclkchanged = RESET;
 800583e:	2300      	movs	r3, #0
 8005840:	75fb      	strb	r3, [r7, #23]
    /* Check the parameters */
    assert_param(IS_RCC_LSE(RCC_OscInitStruct->LSEState));

    /* Update LSE configuration in Backup Domain control register    */
    /* Requires to enable write access to Backup Domain of necessary */
    if (__HAL_RCC_PWR_IS_CLK_DISABLED())
 8005842:	4b83      	ldr	r3, [pc, #524]	@ (8005a50 <HAL_RCC_OscConfig+0x4ac>)
 8005844:	6c1b      	ldr	r3, [r3, #64]	@ 0x40
 8005846:	f003 5380 	and.w	r3, r3, #268435456	@ 0x10000000
 800584a:	2b00      	cmp	r3, #0
 800584c:	d10f      	bne.n	800586e <HAL_RCC_OscConfig+0x2ca>
    {
      __HAL_RCC_PWR_CLK_ENABLE();
 800584e:	2300      	movs	r3, #0
 8005850:	60bb      	str	r3, [r7, #8]
 8005852:	4b7f      	ldr	r3, [pc, #508]	@ (8005a50 <HAL_RCC_OscConfig+0x4ac>)
 8005854:	6c1b      	ldr	r3, [r3, #64]	@ 0x40
 8005856:	4a7e      	ldr	r2, [pc, #504]	@ (8005a50 <HAL_RCC_OscConfig+0x4ac>)
 8005858:	f043 5380 	orr.w	r3, r3, #268435456	@ 0x10000000
 800585c:	6413      	str	r3, [r2, #64]	@ 0x40
 800585e:	4b7c      	ldr	r3, [pc, #496]	@ (8005a50 <HAL_RCC_OscConfig+0x4ac>)
 8005860:	6c1b      	ldr	r3, [r3, #64]	@ 0x40
 8005862:	f003 5380 	and.w	r3, r3, #268435456	@ 0x10000000
 8005866:	60bb      	str	r3, [r7, #8]
 8005868:	68bb      	ldr	r3, [r7, #8]
      pwrclkchanged = SET;
 800586a:	2301      	movs	r3, #1
 800586c:	75fb      	strb	r3, [r7, #23]
    }

    if (HAL_IS_BIT_CLR(PWR->CR, PWR_CR_DBP))
 800586e:	4b79      	ldr	r3, [pc, #484]	@ (8005a54 <HAL_RCC_OscConfig+0x4b0>)
 8005870:	681b      	ldr	r3, [r3, #0]
 8005872:	f403 7380 	and.w	r3, r3, #256	@ 0x100
 8005876:	2b00      	cmp	r3, #0
 8005878:	d118      	bne.n	80058ac <HAL_RCC_OscConfig+0x308>
    {
      /* Enable write access to Backup domain */
      SET_BIT(PWR->CR, PWR_CR_DBP);
 800587a:	4b76      	ldr	r3, [pc, #472]	@ (8005a54 <HAL_RCC_OscConfig+0x4b0>)
 800587c:	681b      	ldr	r3, [r3, #0]
 800587e:	4a75      	ldr	r2, [pc, #468]	@ (8005a54 <HAL_RCC_OscConfig+0x4b0>)
 8005880:	f443 7380 	orr.w	r3, r3, #256	@ 0x100
 8005884:	6013      	str	r3, [r2, #0]

      /* Wait for Backup domain Write protection disable */
      tickstart = HAL_GetTick();
 8005886:	f7fe fb1f 	bl	8003ec8 <HAL_GetTick>
 800588a:	6138      	str	r0, [r7, #16]

      while (HAL_IS_BIT_CLR(PWR->CR, PWR_CR_DBP))
 800588c:	e008      	b.n	80058a0 <HAL_RCC_OscConfig+0x2fc>
      {
        if ((HAL_GetTick() - tickstart) > RCC_DBP_TIMEOUT_VALUE)
 800588e:	f7fe fb1b 	bl	8003ec8 <HAL_GetTick>
 8005892:	4602      	mov	r2, r0
 8005894:	693b      	ldr	r3, [r7, #16]
 8005896:	1ad3      	subs	r3, r2, r3
 8005898:	2b02      	cmp	r3, #2
 800589a:	d901      	bls.n	80058a0 <HAL_RCC_OscConfig+0x2fc>
        {
          return HAL_TIMEOUT;
 800589c:	2303      	movs	r3, #3
 800589e:	e118      	b.n	8005ad2 <HAL_RCC_OscConfig+0x52e>
      while (HAL_IS_BIT_CLR(PWR->CR, PWR_CR_DBP))
 80058a0:	4b6c      	ldr	r3, [pc, #432]	@ (8005a54 <HAL_RCC_OscConfig+0x4b0>)
 80058a2:	681b      	ldr	r3, [r3, #0]
 80058a4:	f403 7380 	and.w	r3, r3, #256	@ 0x100
 80058a8:	2b00      	cmp	r3, #0
 80058aa:	d0f0      	beq.n	800588e <HAL_RCC_OscConfig+0x2ea>
        }
      }
    }

    /* Set the new LSE configuration -----------------------------------------*/
    __HAL_RCC_LSE_CONFIG(RCC_OscInitStruct->LSEState);
 80058ac:	687b      	ldr	r3, [r7, #4]
 80058ae:	689b      	ldr	r3, [r3, #8]
 80058b0:	2b01      	cmp	r3, #1
 80058b2:	d106      	bne.n	80058c2 <HAL_RCC_OscConfig+0x31e>
 80058b4:	4b66      	ldr	r3, [pc, #408]	@ (8005a50 <HAL_RCC_OscConfig+0x4ac>)
 80058b6:	6f1b      	ldr	r3, [r3, #112]	@ 0x70
 80058b8:	4a65      	ldr	r2, [pc, #404]	@ (8005a50 <HAL_RCC_OscConfig+0x4ac>)
 80058ba:	f043 0301 	orr.w	r3, r3, #1
 80058be:	6713      	str	r3, [r2, #112]	@ 0x70
 80058c0:	e01c      	b.n	80058fc <HAL_RCC_OscConfig+0x358>
 80058c2:	687b      	ldr	r3, [r7, #4]
 80058c4:	689b      	ldr	r3, [r3, #8]
 80058c6:	2b05      	cmp	r3, #5
 80058c8:	d10c      	bne.n	80058e4 <HAL_RCC_OscConfig+0x340>
 80058ca:	4b61      	ldr	r3, [pc, #388]	@ (8005a50 <HAL_RCC_OscConfig+0x4ac>)
 80058cc:	6f1b      	ldr	r3, [r3, #112]	@ 0x70
 80058ce:	4a60      	ldr	r2, [pc, #384]	@ (8005a50 <HAL_RCC_OscConfig+0x4ac>)
 80058d0:	f043 0304 	orr.w	r3, r3, #4
 80058d4:	6713      	str	r3, [r2, #112]	@ 0x70
 80058d6:	4b5e      	ldr	r3, [pc, #376]	@ (8005a50 <HAL_RCC_OscConfig+0x4ac>)
 80058d8:	6f1b      	ldr	r3, [r3, #112]	@ 0x70
 80058da:	4a5d      	ldr	r2, [pc, #372]	@ (8005a50 <HAL_RCC_OscConfig+0x4ac>)
 80058dc:	f043 0301 	orr.w	r3, r3, #1
 80058e0:	6713      	str	r3, [r2, #112]	@ 0x70
 80058e2:	e00b      	b.n	80058fc <HAL_RCC_OscConfig+0x358>
 80058e4:	4b5a      	ldr	r3, [pc, #360]	@ (8005a50 <HAL_RCC_OscConfig+0x4ac>)
 80058e6:	6f1b      	ldr	r3, [r3, #112]	@ 0x70
 80058e8:	4a59      	ldr	r2, [pc, #356]	@ (8005a50 <HAL_RCC_OscConfig+0x4ac>)
 80058ea:	f023 0301 	bic.w	r3, r3, #1
 80058ee:	6713      	str	r3, [r2, #112]	@ 0x70
 80058f0:	4b57      	ldr	r3, [pc, #348]	@ (8005a50 <HAL_RCC_OscConfig+0x4ac>)
 80058f2:	6f1b      	ldr	r3, [r3, #112]	@ 0x70
 80058f4:	4a56      	ldr	r2, [pc, #344]	@ (8005a50 <HAL_RCC_OscConfig+0x4ac>)
 80058f6:	f023 0304 	bic.w	r3, r3, #4
 80058fa:	6713      	str	r3, [r2, #112]	@ 0x70
    /* Check the LSE State */
    if ((RCC_OscInitStruct->LSEState) != RCC_LSE_OFF)
 80058fc:	687b      	ldr	r3, [r7, #4]
 80058fe:	689b      	ldr	r3, [r3, #8]
 8005900:	2b00      	cmp	r3, #0
 8005902:	d015      	beq.n	8005930 <HAL_RCC_OscConfig+0x38c>
    {
      /* Get Start Tick*/
      tickstart = HAL_GetTick();
 8005904:	f7fe fae0 	bl	8003ec8 <HAL_GetTick>
 8005908:	6138      	str	r0, [r7, #16]

      /* Wait till LSE is ready */
      while (__HAL_RCC_GET_FLAG(RCC_FLAG_LSERDY) == RESET)
 800590a:	e00a      	b.n	8005922 <HAL_RCC_OscConfig+0x37e>
      {
        if ((HAL_GetTick() - tickstart) > RCC_LSE_TIMEOUT_VALUE)
 800590c:	f7fe fadc 	bl	8003ec8 <HAL_GetTick>
 8005910:	4602      	mov	r2, r0
 8005912:	693b      	ldr	r3, [r7, #16]
 8005914:	1ad3      	subs	r3, r2, r3
 8005916:	f241 3288 	movw	r2, #5000	@ 0x1388
 800591a:	4293      	cmp	r3, r2
 800591c:	d901      	bls.n	8005922 <HAL_RCC_OscConfig+0x37e>
        {
          return HAL_TIMEOUT;
 800591e:	2303      	movs	r3, #3
 8005920:	e0d7      	b.n	8005ad2 <HAL_RCC_OscConfig+0x52e>
      while (__HAL_RCC_GET_FLAG(RCC_FLAG_LSERDY) == RESET)
 8005922:	4b4b      	ldr	r3, [pc, #300]	@ (8005a50 <HAL_RCC_OscConfig+0x4ac>)
 8005924:	6f1b      	ldr	r3, [r3, #112]	@ 0x70
 8005926:	f003 0302 	and.w	r3, r3, #2
 800592a:	2b00      	cmp	r3, #0
 800592c:	d0ee      	beq.n	800590c <HAL_RCC_OscConfig+0x368>
 800592e:	e014      	b.n	800595a <HAL_RCC_OscConfig+0x3b6>
      }
    }
    else
    {
      /* Get Start Tick*/
      tickstart = HAL_GetTick();
 8005930:	f7fe faca 	bl	8003ec8 <HAL_GetTick>
 8005934:	6138      	str	r0, [r7, #16]

      /* Wait till LSE is ready */
      while (__HAL_RCC_GET_FLAG(RCC_FLAG_LSERDY) != RESET)
 8005936:	e00a      	b.n	800594e <HAL_RCC_OscConfig+0x3aa>
      {
        if ((HAL_GetTick() - tickstart) > RCC_LSE_TIMEOUT_VALUE)
 8005938:	f7fe fac6 	bl	8003ec8 <HAL_GetTick>
 800593c:	4602      	mov	r2, r0
 800593e:	693b      	ldr	r3, [r7, #16]
 8005940:	1ad3      	subs	r3, r2, r3
 8005942:	f241 3288 	movw	r2, #5000	@ 0x1388
 8005946:	4293      	cmp	r3, r2
 8005948:	d901      	bls.n	800594e <HAL_RCC_OscConfig+0x3aa>
        {
          return HAL_TIMEOUT;
 800594a:	2303      	movs	r3, #3
 800594c:	e0c1      	b.n	8005ad2 <HAL_RCC_OscConfig+0x52e>
      while (__HAL_RCC_GET_FLAG(RCC_FLAG_LSERDY) != RESET)
 800594e:	4b40      	ldr	r3, [pc, #256]	@ (8005a50 <HAL_RCC_OscConfig+0x4ac>)
 8005950:	6f1b      	ldr	r3, [r3, #112]	@ 0x70
 8005952:	f003 0302 	and.w	r3, r3, #2
 8005956:	2b00      	cmp	r3, #0
 8005958:	d1ee      	bne.n	8005938 <HAL_RCC_OscConfig+0x394>
        }
      }
    }

    /* Restore clock configuration if changed */
    if (pwrclkchanged == SET)
 800595a:	7dfb      	ldrb	r3, [r7, #23]
 800595c:	2b01      	cmp	r3, #1
 800595e:	d105      	bne.n	800596c <HAL_RCC_OscConfig+0x3c8>
    {
      __HAL_RCC_PWR_CLK_DISABLE();
 8005960:	4b3b      	ldr	r3, [pc, #236]	@ (8005a50 <HAL_RCC_OscConfig+0x4ac>)
 8005962:	6c1b      	ldr	r3, [r3, #64]	@ 0x40
 8005964:	4a3a      	ldr	r2, [pc, #232]	@ (8005a50 <HAL_RCC_OscConfig+0x4ac>)
 8005966:	f023 5380 	bic.w	r3, r3, #268435456	@ 0x10000000
 800596a:	6413      	str	r3, [r2, #64]	@ 0x40
    }
  }
  /*-------------------------------- PLL Configuration -----------------------*/
  /* Check the parameters */
  assert_param(IS_RCC_PLL(RCC_OscInitStruct->PLL.PLLState));
  if ((RCC_OscInitStruct->PLL.PLLState) != RCC_PLL_NONE)
 800596c:	687b      	ldr	r3, [r7, #4]
 800596e:	699b      	ldr	r3, [r3, #24]
 8005970:	2b00      	cmp	r3, #0
 8005972:	f000 80ad 	beq.w	8005ad0 <HAL_RCC_OscConfig+0x52c>
  {
    /* Check if the PLL is used as system clock or not */
    if (__HAL_RCC_GET_SYSCLK_SOURCE() != RCC_CFGR_SWS_PLL)
 8005976:	4b36      	ldr	r3, [pc, #216]	@ (8005a50 <HAL_RCC_OscConfig+0x4ac>)
 8005978:	689b      	ldr	r3, [r3, #8]
 800597a:	f003 030c 	and.w	r3, r3, #12
 800597e:	2b08      	cmp	r3, #8
 8005980:	d060      	beq.n	8005a44 <HAL_RCC_OscConfig+0x4a0>
    {
      if ((RCC_OscInitStruct->PLL.PLLState) == RCC_PLL_ON)
 8005982:	687b      	ldr	r3, [r7, #4]
 8005984:	699b      	ldr	r3, [r3, #24]
 8005986:	2b02      	cmp	r3, #2
 8005988:	d145      	bne.n	8005a16 <HAL_RCC_OscConfig+0x472>
        assert_param(IS_RCC_PLLP_VALUE(RCC_OscInitStruct->PLL.PLLP));
        assert_param(IS_RCC_PLLQ_VALUE(RCC_OscInitStruct->PLL.PLLQ));
        assert_param(IS_RCC_PLLR_VALUE(RCC_OscInitStruct->PLL.PLLR));

        /* Disable the main PLL. */
        __HAL_RCC_PLL_DISABLE();
 800598a:	4b33      	ldr	r3, [pc, #204]	@ (8005a58 <HAL_RCC_OscConfig+0x4b4>)
 800598c:	2200      	movs	r2, #0
 800598e:	601a      	str	r2, [r3, #0]

        /* Get Start Tick*/
        tickstart = HAL_GetTick();
 8005990:	f7fe fa9a 	bl	8003ec8 <HAL_GetTick>
 8005994:	6138      	str	r0, [r7, #16]

        /* Wait till PLL is ready */
        while (__HAL_RCC_GET_FLAG(RCC_FLAG_PLLRDY) != RESET)
 8005996:	e008      	b.n	80059aa <HAL_RCC_OscConfig+0x406>
        {
          if ((HAL_GetTick() - tickstart) > PLL_TIMEOUT_VALUE)
 8005998:	f7fe fa96 	bl	8003ec8 <HAL_GetTick>
 800599c:	4602      	mov	r2, r0
 800599e:	693b      	ldr	r3, [r7, #16]
 80059a0:	1ad3      	subs	r3, r2, r3
 80059a2:	2b02      	cmp	r3, #2
 80059a4:	d901      	bls.n	80059aa <HAL_RCC_OscConfig+0x406>
          {
            return HAL_TIMEOUT;
 80059a6:	2303      	movs	r3, #3
 80059a8:	e093      	b.n	8005ad2 <HAL_RCC_OscConfig+0x52e>
        while (__HAL_RCC_GET_FLAG(RCC_FLAG_PLLRDY) != RESET)
 80059aa:	4b29      	ldr	r3, [pc, #164]	@ (8005a50 <HAL_RCC_OscConfig+0x4ac>)
 80059ac:	681b      	ldr	r3, [r3, #0]
 80059ae:	f003 7300 	and.w	r3, r3, #33554432	@ 0x2000000
 80059b2:	2b00      	cmp	r3, #0
 80059b4:	d1f0      	bne.n	8005998 <HAL_RCC_OscConfig+0x3f4>
          }
        }

        /* Configure the main PLL clock source, multiplication and division factors. */
        WRITE_REG(RCC->PLLCFGR, (RCC_OscInitStruct->PLL.PLLSource                                            | \
 80059b6:	687b      	ldr	r3, [r7, #4]
 80059b8:	69da      	ldr	r2, [r3, #28]
 80059ba:	687b      	ldr	r3, [r7, #4]
 80059bc:	6a1b      	ldr	r3, [r3, #32]
 80059be:	431a      	orrs	r2, r3
 80059c0:	687b      	ldr	r3, [r7, #4]
 80059c2:	6a5b      	ldr	r3, [r3, #36]	@ 0x24
 80059c4:	019b      	lsls	r3, r3, #6
 80059c6:	431a      	orrs	r2, r3
 80059c8:	687b      	ldr	r3, [r7, #4]
 80059ca:	6a9b      	ldr	r3, [r3, #40]	@ 0x28
 80059cc:	085b      	lsrs	r3, r3, #1
 80059ce:	3b01      	subs	r3, #1
 80059d0:	041b      	lsls	r3, r3, #16
 80059d2:	431a      	orrs	r2, r3
 80059d4:	687b      	ldr	r3, [r7, #4]
 80059d6:	6adb      	ldr	r3, [r3, #44]	@ 0x2c
 80059d8:	061b      	lsls	r3, r3, #24
 80059da:	431a      	orrs	r2, r3
 80059dc:	687b      	ldr	r3, [r7, #4]
 80059de:	6b1b      	ldr	r3, [r3, #48]	@ 0x30
 80059e0:	071b      	lsls	r3, r3, #28
 80059e2:	491b      	ldr	r1, [pc, #108]	@ (8005a50 <HAL_RCC_OscConfig+0x4ac>)
 80059e4:	4313      	orrs	r3, r2
 80059e6:	604b      	str	r3, [r1, #4]
                                 (RCC_OscInitStruct->PLL.PLLN << RCC_PLLCFGR_PLLN_Pos)                       | \
                                 (((RCC_OscInitStruct->PLL.PLLP >> 1U) - 1U) << RCC_PLLCFGR_PLLP_Pos)        | \
                                 (RCC_OscInitStruct->PLL.PLLQ << RCC_PLLCFGR_PLLQ_Pos)                       | \
                                 (RCC_OscInitStruct->PLL.PLLR << RCC_PLLCFGR_PLLR_Pos)));
        /* Enable the main PLL. */
        __HAL_RCC_PLL_ENABLE();
 80059e8:	4b1b      	ldr	r3, [pc, #108]	@ (8005a58 <HAL_RCC_OscConfig+0x4b4>)
 80059ea:	2201      	movs	r2, #1
 80059ec:	601a      	str	r2, [r3, #0]

        /* Get Start Tick*/
        tickstart = HAL_GetTick();
 80059ee:	f7fe fa6b 	bl	8003ec8 <HAL_GetTick>
 80059f2:	6138      	str	r0, [r7, #16]

        /* Wait till PLL is ready */
        while (__HAL_RCC_GET_FLAG(RCC_FLAG_PLLRDY) == RESET)
 80059f4:	e008      	b.n	8005a08 <HAL_RCC_OscConfig+0x464>
        {
          if ((HAL_GetTick() - tickstart) > PLL_TIMEOUT_VALUE)
 80059f6:	f7fe fa67 	bl	8003ec8 <HAL_GetTick>
 80059fa:	4602      	mov	r2, r0
 80059fc:	693b      	ldr	r3, [r7, #16]
 80059fe:	1ad3      	subs	r3, r2, r3
 8005a00:	2b02      	cmp	r3, #2
 8005a02:	d901      	bls.n	8005a08 <HAL_RCC_OscConfig+0x464>
          {
            return HAL_TIMEOUT;
 8005a04:	2303      	movs	r3, #3
 8005a06:	e064      	b.n	8005ad2 <HAL_RCC_OscConfig+0x52e>
        while (__HAL_RCC_GET_FLAG(RCC_FLAG_PLLRDY) == RESET)
 8005a08:	4b11      	ldr	r3, [pc, #68]	@ (8005a50 <HAL_RCC_OscConfig+0x4ac>)
 8005a0a:	681b      	ldr	r3, [r3, #0]
 8005a0c:	f003 7300 	and.w	r3, r3, #33554432	@ 0x2000000
 8005a10:	2b00      	cmp	r3, #0
 8005a12:	d0f0      	beq.n	80059f6 <HAL_RCC_OscConfig+0x452>
 8005a14:	e05c      	b.n	8005ad0 <HAL_RCC_OscConfig+0x52c>
        }
      }
      else
      {
        /* Disable the main PLL. */
        __HAL_RCC_PLL_DISABLE();
 8005a16:	4b10      	ldr	r3, [pc, #64]	@ (8005a58 <HAL_RCC_OscConfig+0x4b4>)
 8005a18:	2200      	movs	r2, #0
 8005a1a:	601a      	str	r2, [r3, #0]

        /* Get Start Tick*/
        tickstart = HAL_GetTick();
 8005a1c:	f7fe fa54 	bl	8003ec8 <HAL_GetTick>
 8005a20:	6138      	str	r0, [r7, #16]

        /* Wait till PLL is ready */
        while (__HAL_RCC_GET_FLAG(RCC_FLAG_PLLRDY) != RESET)
 8005a22:	e008      	b.n	8005a36 <HAL_RCC_OscConfig+0x492>
        {
          if ((HAL_GetTick() - tickstart) > PLL_TIMEOUT_VALUE)
 8005a24:	f7fe fa50 	bl	8003ec8 <HAL_GetTick>
 8005a28:	4602      	mov	r2, r0
 8005a2a:	693b      	ldr	r3, [r7, #16]
 8005a2c:	1ad3      	subs	r3, r2, r3
 8005a2e:	2b02      	cmp	r3, #2
 8005a30:	d901      	bls.n	8005a36 <HAL_RCC_OscConfig+0x492>
          {
            return HAL_TIMEOUT;
 8005a32:	2303      	movs	r3, #3
 8005a34:	e04d      	b.n	8005ad2 <HAL_RCC_OscConfig+0x52e>
        while (__HAL_RCC_GET_FLAG(RCC_FLAG_PLLRDY) != RESET)
 8005a36:	4b06      	ldr	r3, [pc, #24]	@ (8005a50 <HAL_RCC_OscConfig+0x4ac>)
 8005a38:	681b      	ldr	r3, [r3, #0]
 8005a3a:	f003 7300 	and.w	r3, r3, #33554432	@ 0x2000000
 8005a3e:	2b00      	cmp	r3, #0
 8005a40:	d1f0      	bne.n	8005a24 <HAL_RCC_OscConfig+0x480>
 8005a42:	e045      	b.n	8005ad0 <HAL_RCC_OscConfig+0x52c>
      }
    }
    else
    {
      /* Check if there is a request to disable the PLL used as System clock source */
      if ((RCC_OscInitStruct->PLL.PLLState) == RCC_PLL_OFF)
 8005a44:	687b      	ldr	r3, [r7, #4]
 8005a46:	699b      	ldr	r3, [r3, #24]
 8005a48:	2b01      	cmp	r3, #1
 8005a4a:	d107      	bne.n	8005a5c <HAL_RCC_OscConfig+0x4b8>
      {
        return HAL_ERROR;
 8005a4c:	2301      	movs	r3, #1
 8005a4e:	e040      	b.n	8005ad2 <HAL_RCC_OscConfig+0x52e>
 8005a50:	40023800 	.word	0x40023800
 8005a54:	40007000 	.word	0x40007000
 8005a58:	42470060 	.word	0x42470060
      }
      else
      {
        /* Do not return HAL_ERROR if request repeats the current configuration */
        pll_config = RCC->PLLCFGR;
 8005a5c:	4b1f      	ldr	r3, [pc, #124]	@ (8005adc <HAL_RCC_OscConfig+0x538>)
 8005a5e:	685b      	ldr	r3, [r3, #4]
 8005a60:	60fb      	str	r3, [r7, #12]
#if defined (RCC_PLLCFGR_PLLR)
        if (((RCC_OscInitStruct->PLL.PLLState) == RCC_PLL_OFF) ||
 8005a62:	687b      	ldr	r3, [r7, #4]
 8005a64:	699b      	ldr	r3, [r3, #24]
 8005a66:	2b01      	cmp	r3, #1
 8005a68:	d030      	beq.n	8005acc <HAL_RCC_OscConfig+0x528>
            (READ_BIT(pll_config, RCC_PLLCFGR_PLLSRC) != RCC_OscInitStruct->PLL.PLLSource) ||
 8005a6a:	68fb      	ldr	r3, [r7, #12]
 8005a6c:	f403 0280 	and.w	r2, r3, #4194304	@ 0x400000
 8005a70:	687b      	ldr	r3, [r7, #4]
 8005a72:	69db      	ldr	r3, [r3, #28]
        if (((RCC_OscInitStruct->PLL.PLLState) == RCC_PLL_OFF) ||
 8005a74:	429a      	cmp	r2, r3
 8005a76:	d129      	bne.n	8005acc <HAL_RCC_OscConfig+0x528>
            (READ_BIT(pll_config, RCC_PLLCFGR_PLLM) != (RCC_OscInitStruct->PLL.PLLM) << RCC_PLLCFGR_PLLM_Pos) ||
 8005a78:	68fb      	ldr	r3, [r7, #12]
 8005a7a:	f003 023f 	and.w	r2, r3, #63	@ 0x3f
 8005a7e:	687b      	ldr	r3, [r7, #4]
 8005a80:	6a1b      	ldr	r3, [r3, #32]
            (READ_BIT(pll_config, RCC_PLLCFGR_PLLSRC) != RCC_OscInitStruct->PLL.PLLSource) ||
 8005a82:	429a      	cmp	r2, r3
 8005a84:	d122      	bne.n	8005acc <HAL_RCC_OscConfig+0x528>
            (READ_BIT(pll_config, RCC_PLLCFGR_PLLN) != (RCC_OscInitStruct->PLL.PLLN) << RCC_PLLCFGR_PLLN_Pos) ||
 8005a86:	68fa      	ldr	r2, [r7, #12]
 8005a88:	f647 73c0 	movw	r3, #32704	@ 0x7fc0
 8005a8c:	4013      	ands	r3, r2
 8005a8e:	687a      	ldr	r2, [r7, #4]
 8005a90:	6a52      	ldr	r2, [r2, #36]	@ 0x24
 8005a92:	0192      	lsls	r2, r2, #6
            (READ_BIT(pll_config, RCC_PLLCFGR_PLLM) != (RCC_OscInitStruct->PLL.PLLM) << RCC_PLLCFGR_PLLM_Pos) ||
 8005a94:	4293      	cmp	r3, r2
 8005a96:	d119      	bne.n	8005acc <HAL_RCC_OscConfig+0x528>
            (READ_BIT(pll_config, RCC_PLLCFGR_PLLP) != (((RCC_OscInitStruct->PLL.PLLP >> 1U) - 1U)) << RCC_PLLCFGR_PLLP_Pos) ||
 8005a98:	68fb      	ldr	r3, [r7, #12]
 8005a9a:	f403 3240 	and.w	r2, r3, #196608	@ 0x30000
 8005a9e:	687b      	ldr	r3, [r7, #4]
 8005aa0:	6a9b      	ldr	r3, [r3, #40]	@ 0x28
 8005aa2:	085b      	lsrs	r3, r3, #1
 8005aa4:	3b01      	subs	r3, #1
 8005aa6:	041b      	lsls	r3, r3, #16
            (READ_BIT(pll_config, RCC_PLLCFGR_PLLN) != (RCC_OscInitStruct->PLL.PLLN) << RCC_PLLCFGR_PLLN_Pos) ||
 8005aa8:	429a      	cmp	r2, r3
 8005aaa:	d10f      	bne.n	8005acc <HAL_RCC_OscConfig+0x528>
            (READ_BIT(pll_config, RCC_PLLCFGR_PLLQ) != (RCC_OscInitStruct->PLL.PLLQ << RCC_PLLCFGR_PLLQ_Pos)) ||
 8005aac:	68fb      	ldr	r3, [r7, #12]
 8005aae:	f003 6270 	and.w	r2, r3, #251658240	@ 0xf000000
 8005ab2:	687b      	ldr	r3, [r7, #4]
 8005ab4:	6adb      	ldr	r3, [r3, #44]	@ 0x2c
 8005ab6:	061b      	lsls	r3, r3, #24
            (READ_BIT(pll_config, RCC_PLLCFGR_PLLP) != (((RCC_OscInitStruct->PLL.PLLP >> 1U) - 1U)) << RCC_PLLCFGR_PLLP_Pos) ||
 8005ab8:	429a      	cmp	r2, r3
 8005aba:	d107      	bne.n	8005acc <HAL_RCC_OscConfig+0x528>
            (READ_BIT(pll_config, RCC_PLLCFGR_PLLR) != (RCC_OscInitStruct->PLL.PLLR << RCC_PLLCFGR_PLLR_Pos)))
 8005abc:	68fb      	ldr	r3, [r7, #12]
 8005abe:	f003 42e0 	and.w	r2, r3, #1879048192	@ 0x70000000
 8005ac2:	687b      	ldr	r3, [r7, #4]
 8005ac4:	6b1b      	ldr	r3, [r3, #48]	@ 0x30
 8005ac6:	071b      	lsls	r3, r3, #28
            (READ_BIT(pll_config, RCC_PLLCFGR_PLLQ) != (RCC_OscInitStruct->PLL.PLLQ << RCC_PLLCFGR_PLLQ_Pos)) ||
 8005ac8:	429a      	cmp	r2, r3
 8005aca:	d001      	beq.n	8005ad0 <HAL_RCC_OscConfig+0x52c>
            (READ_BIT(pll_config, RCC_PLLCFGR_PLLN) != (RCC_OscInitStruct->PLL.PLLN) << RCC_PLLCFGR_PLLN_Pos) ||
            (READ_BIT(pll_config, RCC_PLLCFGR_PLLP) != (((RCC_OscInitStruct->PLL.PLLP >> 1U) - 1U)) << RCC_PLLCFGR_PLLP_Pos) ||
            (READ_BIT(pll_config, RCC_PLLCFGR_PLLQ) != (RCC_OscInitStruct->PLL.PLLQ << RCC_PLLCFGR_PLLQ_Pos)))
#endif /* RCC_PLLCFGR_PLLR */
        {
          return HAL_ERROR;
 8005acc:	2301      	movs	r3, #1
 8005ace:	e000      	b.n	8005ad2 <HAL_RCC_OscConfig+0x52e>
        }
      }
    }
  }
  return HAL_OK;
 8005ad0:	2300      	movs	r3, #0
}
 8005ad2:	4618      	mov	r0, r3
 8005ad4:	3718      	adds	r7, #24
 8005ad6:	46bd      	mov	sp, r7
 8005ad8:	bd80      	pop	{r7, pc}
 8005ada:	bf00      	nop
 8005adc:	40023800 	.word	0x40023800

08005ae0 <HAL_TIM_Base_Init>:
  *         Ex: call @ref HAL_TIM_Base_DeInit() before HAL_TIM_Base_Init()
  * @param  htim TIM Base handle
  * @retval HAL status
  */
HAL_StatusTypeDef HAL_TIM_Base_Init(TIM_HandleTypeDef *htim)
{
 8005ae0:	b580      	push	{r7, lr}
 8005ae2:	b082      	sub	sp, #8
 8005ae4:	af00      	add	r7, sp, #0
 8005ae6:	6078      	str	r0, [r7, #4]
  /* Check the TIM handle allocation */
  if (htim == NULL)
 8005ae8:	687b      	ldr	r3, [r7, #4]
 8005aea:	2b00      	cmp	r3, #0
 8005aec:	d101      	bne.n	8005af2 <HAL_TIM_Base_Init+0x12>
  {
    return HAL_ERROR;
 8005aee:	2301      	movs	r3, #1
 8005af0:	e041      	b.n	8005b76 <HAL_TIM_Base_Init+0x96>
  assert_param(IS_TIM_COUNTER_MODE(htim->Init.CounterMode));
  assert_param(IS_TIM_CLOCKDIVISION_DIV(htim->Init.ClockDivision));
  assert_param(IS_TIM_PERIOD(htim, htim->Init.Period));
  assert_param(IS_TIM_AUTORELOAD_PRELOAD(htim->Init.AutoReloadPreload));

  if (htim->State == HAL_TIM_STATE_RESET)
 8005af2:	687b      	ldr	r3, [r7, #4]
 8005af4:	f893 303d 	ldrb.w	r3, [r3, #61]	@ 0x3d
 8005af8:	b2db      	uxtb	r3, r3
 8005afa:	2b00      	cmp	r3, #0
 8005afc:	d106      	bne.n	8005b0c <HAL_TIM_Base_Init+0x2c>
  {
    /* Allocate lock resource and initialize it */
    htim->Lock = HAL_UNLOCKED;
 8005afe:	687b      	ldr	r3, [r7, #4]
 8005b00:	2200      	movs	r2, #0
 8005b02:	f883 203c 	strb.w	r2, [r3, #60]	@ 0x3c
    }
    /* Init the low level hardware : GPIO, CLOCK, NVIC */
    htim->Base_MspInitCallback(htim);
#else
    /* Init the low level hardware : GPIO, CLOCK, NVIC */
    HAL_TIM_Base_MspInit(htim);
 8005b06:	6878      	ldr	r0, [r7, #4]
 8005b08:	f7fd fe98 	bl	800383c <HAL_TIM_Base_MspInit>
#endif /* USE_HAL_TIM_REGISTER_CALLBACKS */
  }

  /* Set the TIM state */
  htim->State = HAL_TIM_STATE_BUSY;
 8005b0c:	687b      	ldr	r3, [r7, #4]
 8005b0e:	2202      	movs	r2, #2
 8005b10:	f883 203d 	strb.w	r2, [r3, #61]	@ 0x3d

  /* Set the Time Base configuration */
  TIM_Base_SetConfig(htim->Instance, &htim->Init);
 8005b14:	687b      	ldr	r3, [r7, #4]
 8005b16:	681a      	ldr	r2, [r3, #0]
 8005b18:	687b      	ldr	r3, [r7, #4]
 8005b1a:	3304      	adds	r3, #4
 8005b1c:	4619      	mov	r1, r3
 8005b1e:	4610      	mov	r0, r2
 8005b20:	f000 fae6 	bl	80060f0 <TIM_Base_SetConfig>

  /* Initialize the DMA burst operation state */
  htim->DMABurstState = HAL_DMA_BURST_STATE_READY;
 8005b24:	687b      	ldr	r3, [r7, #4]
 8005b26:	2201      	movs	r2, #1
 8005b28:	f883 2046 	strb.w	r2, [r3, #70]	@ 0x46

  /* Initialize the TIM channels state */
  TIM_CHANNEL_STATE_SET_ALL(htim, HAL_TIM_CHANNEL_STATE_READY);
 8005b2c:	687b      	ldr	r3, [r7, #4]
 8005b2e:	2201      	movs	r2, #1
 8005b30:	f883 203e 	strb.w	r2, [r3, #62]	@ 0x3e
 8005b34:	687b      	ldr	r3, [r7, #4]
 8005b36:	2201      	movs	r2, #1
 8005b38:	f883 203f 	strb.w	r2, [r3, #63]	@ 0x3f
 8005b3c:	687b      	ldr	r3, [r7, #4]
 8005b3e:	2201      	movs	r2, #1
 8005b40:	f883 2040 	strb.w	r2, [r3, #64]	@ 0x40
 8005b44:	687b      	ldr	r3, [r7, #4]
 8005b46:	2201      	movs	r2, #1
 8005b48:	f883 2041 	strb.w	r2, [r3, #65]	@ 0x41
  TIM_CHANNEL_N_STATE_SET_ALL(htim, HAL_TIM_CHANNEL_STATE_READY);
 8005b4c:	687b      	ldr	r3, [r7, #4]
 8005b4e:	2201      	movs	r2, #1
 8005b50:	f883 2042 	strb.w	r2, [r3, #66]	@ 0x42
 8005b54:	687b      	ldr	r3, [r7, #4]
 8005b56:	2201      	movs	r2, #1
 8005b58:	f883 2043 	strb.w	r2, [r3, #67]	@ 0x43
 8005b5c:	687b      	ldr	r3, [r7, #4]
 8005b5e:	2201      	movs	r2, #1
 8005b60:	f883 2044 	strb.w	r2, [r3, #68]	@ 0x44
 8005b64:	687b      	ldr	r3, [r7, #4]
 8005b66:	2201      	movs	r2, #1
 8005b68:	f883 2045 	strb.w	r2, [r3, #69]	@ 0x45

  /* Initialize the TIM state*/
  htim->State = HAL_TIM_STATE_READY;
 8005b6c:	687b      	ldr	r3, [r7, #4]
 8005b6e:	2201      	movs	r2, #1
 8005b70:	f883 203d 	strb.w	r2, [r3, #61]	@ 0x3d

  return HAL_OK;
 8005b74:	2300      	movs	r3, #0
}
 8005b76:	4618      	mov	r0, r3
 8005b78:	3708      	adds	r7, #8
 8005b7a:	46bd      	mov	sp, r7
 8005b7c:	bd80      	pop	{r7, pc}
	...

08005b80 <HAL_TIM_Base_Start>:
  * @brief  Starts the TIM Base generation.
  * @param  htim TIM Base handle
  * @retval HAL status
  */
HAL_StatusTypeDef HAL_TIM_Base_Start(TIM_HandleTypeDef *htim)
{
 8005b80:	b480      	push	{r7}
 8005b82:	b085      	sub	sp, #20
 8005b84:	af00      	add	r7, sp, #0
 8005b86:	6078      	str	r0, [r7, #4]

  /* Check the parameters */
  assert_param(IS_TIM_INSTANCE(htim->Instance));

  /* Check the TIM state */
  if (htim->State != HAL_TIM_STATE_READY)
 8005b88:	687b      	ldr	r3, [r7, #4]
 8005b8a:	f893 303d 	ldrb.w	r3, [r3, #61]	@ 0x3d
 8005b8e:	b2db      	uxtb	r3, r3
 8005b90:	2b01      	cmp	r3, #1
 8005b92:	d001      	beq.n	8005b98 <HAL_TIM_Base_Start+0x18>
  {
    return HAL_ERROR;
 8005b94:	2301      	movs	r3, #1
 8005b96:	e046      	b.n	8005c26 <HAL_TIM_Base_Start+0xa6>
  }

  /* Set the TIM state */
  htim->State = HAL_TIM_STATE_BUSY;
 8005b98:	687b      	ldr	r3, [r7, #4]
 8005b9a:	2202      	movs	r2, #2
 8005b9c:	f883 203d 	strb.w	r2, [r3, #61]	@ 0x3d

  /* Enable the Peripheral, except in trigger mode where enable is automatically done with trigger */
  if (IS_TIM_SLAVE_INSTANCE(htim->Instance))
 8005ba0:	687b      	ldr	r3, [r7, #4]
 8005ba2:	681b      	ldr	r3, [r3, #0]
 8005ba4:	4a23      	ldr	r2, [pc, #140]	@ (8005c34 <HAL_TIM_Base_Start+0xb4>)
 8005ba6:	4293      	cmp	r3, r2
 8005ba8:	d022      	beq.n	8005bf0 <HAL_TIM_Base_Start+0x70>
 8005baa:	687b      	ldr	r3, [r7, #4]
 8005bac:	681b      	ldr	r3, [r3, #0]
 8005bae:	f1b3 4f80 	cmp.w	r3, #1073741824	@ 0x40000000
 8005bb2:	d01d      	beq.n	8005bf0 <HAL_TIM_Base_Start+0x70>
 8005bb4:	687b      	ldr	r3, [r7, #4]
 8005bb6:	681b      	ldr	r3, [r3, #0]
 8005bb8:	4a1f      	ldr	r2, [pc, #124]	@ (8005c38 <HAL_TIM_Base_Start+0xb8>)
 8005bba:	4293      	cmp	r3, r2
 8005bbc:	d018      	beq.n	8005bf0 <HAL_TIM_Base_Start+0x70>
 8005bbe:	687b      	ldr	r3, [r7, #4]
 8005bc0:	681b      	ldr	r3, [r3, #0]
 8005bc2:	4a1e      	ldr	r2, [pc, #120]	@ (8005c3c <HAL_TIM_Base_Start+0xbc>)
 8005bc4:	4293      	cmp	r3, r2
 8005bc6:	d013      	beq.n	8005bf0 <HAL_TIM_Base_Start+0x70>
 8005bc8:	687b      	ldr	r3, [r7, #4]
 8005bca:	681b      	ldr	r3, [r3, #0]
 8005bcc:	4a1c      	ldr	r2, [pc, #112]	@ (8005c40 <HAL_TIM_Base_Start+0xc0>)
 8005bce:	4293      	cmp	r3, r2
 8005bd0:	d00e      	beq.n	8005bf0 <HAL_TIM_Base_Start+0x70>
 8005bd2:	687b      	ldr	r3, [r7, #4]
 8005bd4:	681b      	ldr	r3, [r3, #0]
 8005bd6:	4a1b      	ldr	r2, [pc, #108]	@ (8005c44 <HAL_TIM_Base_Start+0xc4>)
 8005bd8:	4293      	cmp	r3, r2
 8005bda:	d009      	beq.n	8005bf0 <HAL_TIM_Base_Start+0x70>
 8005bdc:	687b      	ldr	r3, [r7, #4]
 8005bde:	681b      	ldr	r3, [r3, #0]
 8005be0:	4a19      	ldr	r2, [pc, #100]	@ (8005c48 <HAL_TIM_Base_Start+0xc8>)
 8005be2:	4293      	cmp	r3, r2
 8005be4:	d004      	beq.n	8005bf0 <HAL_TIM_Base_Start+0x70>
 8005be6:	687b      	ldr	r3, [r7, #4]
 8005be8:	681b      	ldr	r3, [r3, #0]
 8005bea:	4a18      	ldr	r2, [pc, #96]	@ (8005c4c <HAL_TIM_Base_Start+0xcc>)
 8005bec:	4293      	cmp	r3, r2
 8005bee:	d111      	bne.n	8005c14 <HAL_TIM_Base_Start+0x94>
  {
    tmpsmcr = htim->Instance->SMCR & TIM_SMCR_SMS;
 8005bf0:	687b      	ldr	r3, [r7, #4]
 8005bf2:	681b      	ldr	r3, [r3, #0]
 8005bf4:	689b      	ldr	r3, [r3, #8]
 8005bf6:	f003 0307 	and.w	r3, r3, #7
 8005bfa:	60fb      	str	r3, [r7, #12]
    if (!IS_TIM_SLAVEMODE_TRIGGER_ENABLED(tmpsmcr))
 8005bfc:	68fb      	ldr	r3, [r7, #12]
 8005bfe:	2b06      	cmp	r3, #6
 8005c00:	d010      	beq.n	8005c24 <HAL_TIM_Base_Start+0xa4>
    {
      __HAL_TIM_ENABLE(htim);
 8005c02:	687b      	ldr	r3, [r7, #4]
 8005c04:	681b      	ldr	r3, [r3, #0]
 8005c06:	681a      	ldr	r2, [r3, #0]
 8005c08:	687b      	ldr	r3, [r7, #4]
 8005c0a:	681b      	ldr	r3, [r3, #0]
 8005c0c:	f042 0201 	orr.w	r2, r2, #1
 8005c10:	601a      	str	r2, [r3, #0]
    if (!IS_TIM_SLAVEMODE_TRIGGER_ENABLED(tmpsmcr))
 8005c12:	e007      	b.n	8005c24 <HAL_TIM_Base_Start+0xa4>
    }
  }
  else
  {
    __HAL_TIM_ENABLE(htim);
 8005c14:	687b      	ldr	r3, [r7, #4]
 8005c16:	681b      	ldr	r3, [r3, #0]
 8005c18:	681a      	ldr	r2, [r3, #0]
 8005c1a:	687b      	ldr	r3, [r7, #4]
 8005c1c:	681b      	ldr	r3, [r3, #0]
 8005c1e:	f042 0201 	orr.w	r2, r2, #1
 8005c22:	601a      	str	r2, [r3, #0]
  }

  /* Return function status */
  return HAL_OK;
 8005c24:	2300      	movs	r3, #0
}
 8005c26:	4618      	mov	r0, r3
 8005c28:	3714      	adds	r7, #20
 8005c2a:	46bd      	mov	sp, r7
 8005c2c:	f85d 7b04 	ldr.w	r7, [sp], #4
 8005c30:	4770      	bx	lr
 8005c32:	bf00      	nop
 8005c34:	40010000 	.word	0x40010000
 8005c38:	40000400 	.word	0x40000400
 8005c3c:	40000800 	.word	0x40000800
 8005c40:	40000c00 	.word	0x40000c00
 8005c44:	40010400 	.word	0x40010400
 8005c48:	40014000 	.word	0x40014000
 8005c4c:	40001800 	.word	0x40001800

08005c50 <HAL_TIM_Base_Start_IT>:
  * @brief  Starts the TIM Base generation in interrupt mode.
  * @param  htim TIM Base handle
  * @retval HAL status
  */
HAL_StatusTypeDef HAL_TIM_Base_Start_IT(TIM_HandleTypeDef *htim)
{
 8005c50:	b480      	push	{r7}
 8005c52:	b085      	sub	sp, #20
 8005c54:	af00      	add	r7, sp, #0
 8005c56:	6078      	str	r0, [r7, #4]

  /* Check the parameters */
  assert_param(IS_TIM_INSTANCE(htim->Instance));

  /* Check the TIM state */
  if (htim->State != HAL_TIM_STATE_READY)
 8005c58:	687b      	ldr	r3, [r7, #4]
 8005c5a:	f893 303d 	ldrb.w	r3, [r3, #61]	@ 0x3d
 8005c5e:	b2db      	uxtb	r3, r3
 8005c60:	2b01      	cmp	r3, #1
 8005c62:	d001      	beq.n	8005c68 <HAL_TIM_Base_Start_IT+0x18>
  {
    return HAL_ERROR;
 8005c64:	2301      	movs	r3, #1
 8005c66:	e04e      	b.n	8005d06 <HAL_TIM_Base_Start_IT+0xb6>
  }

  /* Set the TIM state */
  htim->State = HAL_TIM_STATE_BUSY;
 8005c68:	687b      	ldr	r3, [r7, #4]
 8005c6a:	2202      	movs	r2, #2
 8005c6c:	f883 203d 	strb.w	r2, [r3, #61]	@ 0x3d

  /* Enable the TIM Update interrupt */
  __HAL_TIM_ENABLE_IT(htim, TIM_IT_UPDATE);
 8005c70:	687b      	ldr	r3, [r7, #4]
 8005c72:	681b      	ldr	r3, [r3, #0]
 8005c74:	68da      	ldr	r2, [r3, #12]
 8005c76:	687b      	ldr	r3, [r7, #4]
 8005c78:	681b      	ldr	r3, [r3, #0]
 8005c7a:	f042 0201 	orr.w	r2, r2, #1
 8005c7e:	60da      	str	r2, [r3, #12]

  /* Enable the Peripheral, except in trigger mode where enable is automatically done with trigger */
  if (IS_TIM_SLAVE_INSTANCE(htim->Instance))
 8005c80:	687b      	ldr	r3, [r7, #4]
 8005c82:	681b      	ldr	r3, [r3, #0]
 8005c84:	4a23      	ldr	r2, [pc, #140]	@ (8005d14 <HAL_TIM_Base_Start_IT+0xc4>)
 8005c86:	4293      	cmp	r3, r2
 8005c88:	d022      	beq.n	8005cd0 <HAL_TIM_Base_Start_IT+0x80>
 8005c8a:	687b      	ldr	r3, [r7, #4]
 8005c8c:	681b      	ldr	r3, [r3, #0]
 8005c8e:	f1b3 4f80 	cmp.w	r3, #1073741824	@ 0x40000000
 8005c92:	d01d      	beq.n	8005cd0 <HAL_TIM_Base_Start_IT+0x80>
 8005c94:	687b      	ldr	r3, [r7, #4]
 8005c96:	681b      	ldr	r3, [r3, #0]
 8005c98:	4a1f      	ldr	r2, [pc, #124]	@ (8005d18 <HAL_TIM_Base_Start_IT+0xc8>)
 8005c9a:	4293      	cmp	r3, r2
 8005c9c:	d018      	beq.n	8005cd0 <HAL_TIM_Base_Start_IT+0x80>
 8005c9e:	687b      	ldr	r3, [r7, #4]
 8005ca0:	681b      	ldr	r3, [r3, #0]
 8005ca2:	4a1e      	ldr	r2, [pc, #120]	@ (8005d1c <HAL_TIM_Base_Start_IT+0xcc>)
 8005ca4:	4293      	cmp	r3, r2
 8005ca6:	d013      	beq.n	8005cd0 <HAL_TIM_Base_Start_IT+0x80>
 8005ca8:	687b      	ldr	r3, [r7, #4]
 8005caa:	681b      	ldr	r3, [r3, #0]
 8005cac:	4a1c      	ldr	r2, [pc, #112]	@ (8005d20 <HAL_TIM_Base_Start_IT+0xd0>)
 8005cae:	4293      	cmp	r3, r2
 8005cb0:	d00e      	beq.n	8005cd0 <HAL_TIM_Base_Start_IT+0x80>
 8005cb2:	687b      	ldr	r3, [r7, #4]
 8005cb4:	681b      	ldr	r3, [r3, #0]
 8005cb6:	4a1b      	ldr	r2, [pc, #108]	@ (8005d24 <HAL_TIM_Base_Start_IT+0xd4>)
 8005cb8:	4293      	cmp	r3, r2
 8005cba:	d009      	beq.n	8005cd0 <HAL_TIM_Base_Start_IT+0x80>
 8005cbc:	687b      	ldr	r3, [r7, #4]
 8005cbe:	681b      	ldr	r3, [r3, #0]
 8005cc0:	4a19      	ldr	r2, [pc, #100]	@ (8005d28 <HAL_TIM_Base_Start_IT+0xd8>)
 8005cc2:	4293      	cmp	r3, r2
 8005cc4:	d004      	beq.n	8005cd0 <HAL_TIM_Base_Start_IT+0x80>
 8005cc6:	687b      	ldr	r3, [r7, #4]
 8005cc8:	681b      	ldr	r3, [r3, #0]
 8005cca:	4a18      	ldr	r2, [pc, #96]	@ (8005d2c <HAL_TIM_Base_Start_IT+0xdc>)
 8005ccc:	4293      	cmp	r3, r2
 8005cce:	d111      	bne.n	8005cf4 <HAL_TIM_Base_Start_IT+0xa4>
  {
    tmpsmcr = htim->Instance->SMCR & TIM_SMCR_SMS;
 8005cd0:	687b      	ldr	r3, [r7, #4]
 8005cd2:	681b      	ldr	r3, [r3, #0]
 8005cd4:	689b      	ldr	r3, [r3, #8]
 8005cd6:	f003 0307 	and.w	r3, r3, #7
 8005cda:	60fb      	str	r3, [r7, #12]
    if (!IS_TIM_SLAVEMODE_TRIGGER_ENABLED(tmpsmcr))
 8005cdc:	68fb      	ldr	r3, [r7, #12]
 8005cde:	2b06      	cmp	r3, #6
 8005ce0:	d010      	beq.n	8005d04 <HAL_TIM_Base_Start_IT+0xb4>
    {
      __HAL_TIM_ENABLE(htim);
 8005ce2:	687b      	ldr	r3, [r7, #4]
 8005ce4:	681b      	ldr	r3, [r3, #0]
 8005ce6:	681a      	ldr	r2, [r3, #0]
 8005ce8:	687b      	ldr	r3, [r7, #4]
 8005cea:	681b      	ldr	r3, [r3, #0]
 8005cec:	f042 0201 	orr.w	r2, r2, #1
 8005cf0:	601a      	str	r2, [r3, #0]
    if (!IS_TIM_SLAVEMODE_TRIGGER_ENABLED(tmpsmcr))
 8005cf2:	e007      	b.n	8005d04 <HAL_TIM_Base_Start_IT+0xb4>
    }
  }
  else
  {
    __HAL_TIM_ENABLE(htim);
 8005cf4:	687b      	ldr	r3, [r7, #4]
 8005cf6:	681b      	ldr	r3, [r3, #0]
 8005cf8:	681a      	ldr	r2, [r3, #0]
 8005cfa:	687b      	ldr	r3, [r7, #4]
 8005cfc:	681b      	ldr	r3, [r3, #0]
 8005cfe:	f042 0201 	orr.w	r2, r2, #1
 8005d02:	601a      	str	r2, [r3, #0]
  }

  /* Return function status */
  return HAL_OK;
 8005d04:	2300      	movs	r3, #0
}
 8005d06:	4618      	mov	r0, r3
 8005d08:	3714      	adds	r7, #20
 8005d0a:	46bd      	mov	sp, r7
 8005d0c:	f85d 7b04 	ldr.w	r7, [sp], #4
 8005d10:	4770      	bx	lr
 8005d12:	bf00      	nop
 8005d14:	40010000 	.word	0x40010000
 8005d18:	40000400 	.word	0x40000400
 8005d1c:	40000800 	.word	0x40000800
 8005d20:	40000c00 	.word	0x40000c00
 8005d24:	40010400 	.word	0x40010400
 8005d28:	40014000 	.word	0x40014000
 8005d2c:	40001800 	.word	0x40001800

08005d30 <HAL_TIM_IRQHandler>:
  * @brief  This function handles TIM interrupts requests.
  * @param  htim TIM  handle
  * @retval None
  */
void HAL_TIM_IRQHandler(TIM_HandleTypeDef *htim)
{
 8005d30:	b580      	push	{r7, lr}
 8005d32:	b084      	sub	sp, #16
 8005d34:	af00      	add	r7, sp, #0
 8005d36:	6078      	str	r0, [r7, #4]
  uint32_t itsource = htim->Instance->DIER;
 8005d38:	687b      	ldr	r3, [r7, #4]
 8005d3a:	681b      	ldr	r3, [r3, #0]
 8005d3c:	68db      	ldr	r3, [r3, #12]
 8005d3e:	60fb      	str	r3, [r7, #12]
  uint32_t itflag   = htim->Instance->SR;
 8005d40:	687b      	ldr	r3, [r7, #4]
 8005d42:	681b      	ldr	r3, [r3, #0]
 8005d44:	691b      	ldr	r3, [r3, #16]
 8005d46:	60bb      	str	r3, [r7, #8]

  /* Capture compare 1 event */
  if ((itflag & (TIM_FLAG_CC1)) == (TIM_FLAG_CC1))
 8005d48:	68bb      	ldr	r3, [r7, #8]
 8005d4a:	f003 0302 	and.w	r3, r3, #2
 8005d4e:	2b00      	cmp	r3, #0
 8005d50:	d020      	beq.n	8005d94 <HAL_TIM_IRQHandler+0x64>
  {
    if ((itsource & (TIM_IT_CC1)) == (TIM_IT_CC1))
 8005d52:	68fb      	ldr	r3, [r7, #12]
 8005d54:	f003 0302 	and.w	r3, r3, #2
 8005d58:	2b00      	cmp	r3, #0
 8005d5a:	d01b      	beq.n	8005d94 <HAL_TIM_IRQHandler+0x64>
    {
      {
        __HAL_TIM_CLEAR_FLAG(htim, TIM_FLAG_CC1);
 8005d5c:	687b      	ldr	r3, [r7, #4]
 8005d5e:	681b      	ldr	r3, [r3, #0]
 8005d60:	f06f 0202 	mvn.w	r2, #2
 8005d64:	611a      	str	r2, [r3, #16]
        htim->Channel = HAL_TIM_ACTIVE_CHANNEL_1;
 8005d66:	687b      	ldr	r3, [r7, #4]
 8005d68:	2201      	movs	r2, #1
 8005d6a:	771a      	strb	r2, [r3, #28]

        /* Input capture event */
        if ((htim->Instance->CCMR1 & TIM_CCMR1_CC1S) != 0x00U)
 8005d6c:	687b      	ldr	r3, [r7, #4]
 8005d6e:	681b      	ldr	r3, [r3, #0]
 8005d70:	699b      	ldr	r3, [r3, #24]
 8005d72:	f003 0303 	and.w	r3, r3, #3
 8005d76:	2b00      	cmp	r3, #0
 8005d78:	d003      	beq.n	8005d82 <HAL_TIM_IRQHandler+0x52>
        {
#if (USE_HAL_TIM_REGISTER_CALLBACKS == 1)
          htim->IC_CaptureCallback(htim);
#else
          HAL_TIM_IC_CaptureCallback(htim);
 8005d7a:	6878      	ldr	r0, [r7, #4]
 8005d7c:	f000 f999 	bl	80060b2 <HAL_TIM_IC_CaptureCallback>
 8005d80:	e005      	b.n	8005d8e <HAL_TIM_IRQHandler+0x5e>
        {
#if (USE_HAL_TIM_REGISTER_CALLBACKS == 1)
          htim->OC_DelayElapsedCallback(htim);
          htim->PWM_PulseFinishedCallback(htim);
#else
          HAL_TIM_OC_DelayElapsedCallback(htim);
 8005d82:	6878      	ldr	r0, [r7, #4]
 8005d84:	f000 f98b 	bl	800609e <HAL_TIM_OC_DelayElapsedCallback>
          HAL_TIM_PWM_PulseFinishedCallback(htim);
 8005d88:	6878      	ldr	r0, [r7, #4]
 8005d8a:	f000 f99c 	bl	80060c6 <HAL_TIM_PWM_PulseFinishedCallback>
#endif /* USE_HAL_TIM_REGISTER_CALLBACKS */
        }
        htim->Channel = HAL_TIM_ACTIVE_CHANNEL_CLEARED;
 8005d8e:	687b      	ldr	r3, [r7, #4]
 8005d90:	2200      	movs	r2, #0
 8005d92:	771a      	strb	r2, [r3, #28]
      }
    }
  }
  /* Capture compare 2 event */
  if ((itflag & (TIM_FLAG_CC2)) == (TIM_FLAG_CC2))
 8005d94:	68bb      	ldr	r3, [r7, #8]
 8005d96:	f003 0304 	and.w	r3, r3, #4
 8005d9a:	2b00      	cmp	r3, #0
 8005d9c:	d020      	beq.n	8005de0 <HAL_TIM_IRQHandler+0xb0>
  {
    if ((itsource & (TIM_IT_CC2)) == (TIM_IT_CC2))
 8005d9e:	68fb      	ldr	r3, [r7, #12]
 8005da0:	f003 0304 	and.w	r3, r3, #4
 8005da4:	2b00      	cmp	r3, #0
 8005da6:	d01b      	beq.n	8005de0 <HAL_TIM_IRQHandler+0xb0>
    {
      __HAL_TIM_CLEAR_FLAG(htim, TIM_FLAG_CC2);
 8005da8:	687b      	ldr	r3, [r7, #4]
 8005daa:	681b      	ldr	r3, [r3, #0]
 8005dac:	f06f 0204 	mvn.w	r2, #4
 8005db0:	611a      	str	r2, [r3, #16]
      htim->Channel = HAL_TIM_ACTIVE_CHANNEL_2;
 8005db2:	687b      	ldr	r3, [r7, #4]
 8005db4:	2202      	movs	r2, #2
 8005db6:	771a      	strb	r2, [r3, #28]
      /* Input capture event */
      if ((htim->Instance->CCMR1 & TIM_CCMR1_CC2S) != 0x00U)
 8005db8:	687b      	ldr	r3, [r7, #4]
 8005dba:	681b      	ldr	r3, [r3, #0]
 8005dbc:	699b      	ldr	r3, [r3, #24]
 8005dbe:	f403 7340 	and.w	r3, r3, #768	@ 0x300
 8005dc2:	2b00      	cmp	r3, #0
 8005dc4:	d003      	beq.n	8005dce <HAL_TIM_IRQHandler+0x9e>
      {
#if (USE_HAL_TIM_REGISTER_CALLBACKS == 1)
        htim->IC_CaptureCallback(htim);
#else
        HAL_TIM_IC_CaptureCallback(htim);
 8005dc6:	6878      	ldr	r0, [r7, #4]
 8005dc8:	f000 f973 	bl	80060b2 <HAL_TIM_IC_CaptureCallback>
 8005dcc:	e005      	b.n	8005dda <HAL_TIM_IRQHandler+0xaa>
      {
#if (USE_HAL_TIM_REGISTER_CALLBACKS == 1)
        htim->OC_DelayElapsedCallback(htim);
        htim->PWM_PulseFinishedCallback(htim);
#else
        HAL_TIM_OC_DelayElapsedCallback(htim);
 8005dce:	6878      	ldr	r0, [r7, #4]
 8005dd0:	f000 f965 	bl	800609e <HAL_TIM_OC_DelayElapsedCallback>
        HAL_TIM_PWM_PulseFinishedCallback(htim);
 8005dd4:	6878      	ldr	r0, [r7, #4]
 8005dd6:	f000 f976 	bl	80060c6 <HAL_TIM_PWM_PulseFinishedCallback>
#endif /* USE_HAL_TIM_REGISTER_CALLBACKS */
      }
      htim->Channel = HAL_TIM_ACTIVE_CHANNEL_CLEARED;
 8005dda:	687b      	ldr	r3, [r7, #4]
 8005ddc:	2200      	movs	r2, #0
 8005dde:	771a      	strb	r2, [r3, #28]
    }
  }
  /* Capture compare 3 event */
  if ((itflag & (TIM_FLAG_CC3)) == (TIM_FLAG_CC3))
 8005de0:	68bb      	ldr	r3, [r7, #8]
 8005de2:	f003 0308 	and.w	r3, r3, #8
 8005de6:	2b00      	cmp	r3, #0
 8005de8:	d020      	beq.n	8005e2c <HAL_TIM_IRQHandler+0xfc>
  {
    if ((itsource & (TIM_IT_CC3)) == (TIM_IT_CC3))
 8005dea:	68fb      	ldr	r3, [r7, #12]
 8005dec:	f003 0308 	and.w	r3, r3, #8
 8005df0:	2b00      	cmp	r3, #0
 8005df2:	d01b      	beq.n	8005e2c <HAL_TIM_IRQHandler+0xfc>
    {
      __HAL_TIM_CLEAR_FLAG(htim, TIM_FLAG_CC3);
 8005df4:	687b      	ldr	r3, [r7, #4]
 8005df6:	681b      	ldr	r3, [r3, #0]
 8005df8:	f06f 0208 	mvn.w	r2, #8
 8005dfc:	611a      	str	r2, [r3, #16]
      htim->Channel = HAL_TIM_ACTIVE_CHANNEL_3;
 8005dfe:	687b      	ldr	r3, [r7, #4]
 8005e00:	2204      	movs	r2, #4
 8005e02:	771a      	strb	r2, [r3, #28]
      /* Input capture event */
      if ((htim->Instance->CCMR2 & TIM_CCMR2_CC3S) != 0x00U)
 8005e04:	687b      	ldr	r3, [r7, #4]
 8005e06:	681b      	ldr	r3, [r3, #0]
 8005e08:	69db      	ldr	r3, [r3, #28]
 8005e0a:	f003 0303 	and.w	r3, r3, #3
 8005e0e:	2b00      	cmp	r3, #0
 8005e10:	d003      	beq.n	8005e1a <HAL_TIM_IRQHandler+0xea>
      {
#if (USE_HAL_TIM_REGISTER_CALLBACKS == 1)
        htim->IC_CaptureCallback(htim);
#else
        HAL_TIM_IC_CaptureCallback(htim);
 8005e12:	6878      	ldr	r0, [r7, #4]
 8005e14:	f000 f94d 	bl	80060b2 <HAL_TIM_IC_CaptureCallback>
 8005e18:	e005      	b.n	8005e26 <HAL_TIM_IRQHandler+0xf6>
      {
#if (USE_HAL_TIM_REGISTER_CALLBACKS == 1)
        htim->OC_DelayElapsedCallback(htim);
        htim->PWM_PulseFinishedCallback(htim);
#else
        HAL_TIM_OC_DelayElapsedCallback(htim);
 8005e1a:	6878      	ldr	r0, [r7, #4]
 8005e1c:	f000 f93f 	bl	800609e <HAL_TIM_OC_DelayElapsedCallback>
        HAL_TIM_PWM_PulseFinishedCallback(htim);
 8005e20:	6878      	ldr	r0, [r7, #4]
 8005e22:	f000 f950 	bl	80060c6 <HAL_TIM_PWM_PulseFinishedCallback>
#endif /* USE_HAL_TIM_REGISTER_CALLBACKS */
      }
      htim->Channel = HAL_TIM_ACTIVE_CHANNEL_CLEARED;
 8005e26:	687b      	ldr	r3, [r7, #4]
 8005e28:	2200      	movs	r2, #0
 8005e2a:	771a      	strb	r2, [r3, #28]
    }
  }
  /* Capture compare 4 event */
  if ((itflag & (TIM_FLAG_CC4)) == (TIM_FLAG_CC4))
 8005e2c:	68bb      	ldr	r3, [r7, #8]
 8005e2e:	f003 0310 	and.w	r3, r3, #16
 8005e32:	2b00      	cmp	r3, #0
 8005e34:	d020      	beq.n	8005e78 <HAL_TIM_IRQHandler+0x148>
  {
    if ((itsource & (TIM_IT_CC4)) == (TIM_IT_CC4))
 8005e36:	68fb      	ldr	r3, [r7, #12]
 8005e38:	f003 0310 	and.w	r3, r3, #16
 8005e3c:	2b00      	cmp	r3, #0
 8005e3e:	d01b      	beq.n	8005e78 <HAL_TIM_IRQHandler+0x148>
    {
      __HAL_TIM_CLEAR_FLAG(htim, TIM_FLAG_CC4);
 8005e40:	687b      	ldr	r3, [r7, #4]
 8005e42:	681b      	ldr	r3, [r3, #0]
 8005e44:	f06f 0210 	mvn.w	r2, #16
 8005e48:	611a      	str	r2, [r3, #16]
      htim->Channel = HAL_TIM_ACTIVE_CHANNEL_4;
 8005e4a:	687b      	ldr	r3, [r7, #4]
 8005e4c:	2208      	movs	r2, #8
 8005e4e:	771a      	strb	r2, [r3, #28]
      /* Input capture event */
      if ((htim->Instance->CCMR2 & TIM_CCMR2_CC4S) != 0x00U)
 8005e50:	687b      	ldr	r3, [r7, #4]
 8005e52:	681b      	ldr	r3, [r3, #0]
 8005e54:	69db      	ldr	r3, [r3, #28]
 8005e56:	f403 7340 	and.w	r3, r3, #768	@ 0x300
 8005e5a:	2b00      	cmp	r3, #0
 8005e5c:	d003      	beq.n	8005e66 <HAL_TIM_IRQHandler+0x136>
      {
#if (USE_HAL_TIM_REGISTER_CALLBACKS == 1)
        htim->IC_CaptureCallback(htim);
#else
        HAL_TIM_IC_CaptureCallback(htim);
 8005e5e:	6878      	ldr	r0, [r7, #4]
 8005e60:	f000 f927 	bl	80060b2 <HAL_TIM_IC_CaptureCallback>
 8005e64:	e005      	b.n	8005e72 <HAL_TIM_IRQHandler+0x142>
      {
#if (USE_HAL_TIM_REGISTER_CALLBACKS == 1)
        htim->OC_DelayElapsedCallback(htim);
        htim->PWM_PulseFinishedCallback(htim);
#else
        HAL_TIM_OC_DelayElapsedCallback(htim);
 8005e66:	6878      	ldr	r0, [r7, #4]
 8005e68:	f000 f919 	bl	800609e <HAL_TIM_OC_DelayElapsedCallback>
        HAL_TIM_PWM_PulseFinishedCallback(htim);
 8005e6c:	6878      	ldr	r0, [r7, #4]
 8005e6e:	f000 f92a 	bl	80060c6 <HAL_TIM_PWM_PulseFinishedCallback>
#endif /* USE_HAL_TIM_REGISTER_CALLBACKS */
      }
      htim->Channel = HAL_TIM_ACTIVE_CHANNEL_CLEARED;
 8005e72:	687b      	ldr	r3, [r7, #4]
 8005e74:	2200      	movs	r2, #0
 8005e76:	771a      	strb	r2, [r3, #28]
    }
  }
  /* TIM Update event */
  if ((itflag & (TIM_FLAG_UPDATE)) == (TIM_FLAG_UPDATE))
 8005e78:	68bb      	ldr	r3, [r7, #8]
 8005e7a:	f003 0301 	and.w	r3, r3, #1
 8005e7e:	2b00      	cmp	r3, #0
 8005e80:	d00c      	beq.n	8005e9c <HAL_TIM_IRQHandler+0x16c>
  {
    if ((itsource & (TIM_IT_UPDATE)) == (TIM_IT_UPDATE))
 8005e82:	68fb      	ldr	r3, [r7, #12]
 8005e84:	f003 0301 	and.w	r3, r3, #1
 8005e88:	2b00      	cmp	r3, #0
 8005e8a:	d007      	beq.n	8005e9c <HAL_TIM_IRQHandler+0x16c>
    {
      __HAL_TIM_CLEAR_FLAG(htim, TIM_FLAG_UPDATE);
 8005e8c:	687b      	ldr	r3, [r7, #4]
 8005e8e:	681b      	ldr	r3, [r3, #0]
 8005e90:	f06f 0201 	mvn.w	r2, #1
 8005e94:	611a      	str	r2, [r3, #16]
#if (USE_HAL_TIM_REGISTER_CALLBACKS == 1)
      htim->PeriodElapsedCallback(htim);
#else
      HAL_TIM_PeriodElapsedCallback(htim);
 8005e96:	6878      	ldr	r0, [r7, #4]
 8005e98:	f7fd f8ec 	bl	8003074 <HAL_TIM_PeriodElapsedCallback>
#endif /* USE_HAL_TIM_REGISTER_CALLBACKS */
    }
  }
  /* TIM Break input event */
  if ((itflag & (TIM_FLAG_BREAK)) == (TIM_FLAG_BREAK))
 8005e9c:	68bb      	ldr	r3, [r7, #8]
 8005e9e:	f003 0380 	and.w	r3, r3, #128	@ 0x80
 8005ea2:	2b00      	cmp	r3, #0
 8005ea4:	d00c      	beq.n	8005ec0 <HAL_TIM_IRQHandler+0x190>
  {
    if ((itsource & (TIM_IT_BREAK)) == (TIM_IT_BREAK))
 8005ea6:	68fb      	ldr	r3, [r7, #12]
 8005ea8:	f003 0380 	and.w	r3, r3, #128	@ 0x80
 8005eac:	2b00      	cmp	r3, #0
 8005eae:	d007      	beq.n	8005ec0 <HAL_TIM_IRQHandler+0x190>
    {
      __HAL_TIM_CLEAR_FLAG(htim, TIM_FLAG_BREAK);
 8005eb0:	687b      	ldr	r3, [r7, #4]
 8005eb2:	681b      	ldr	r3, [r3, #0]
 8005eb4:	f06f 0280 	mvn.w	r2, #128	@ 0x80
 8005eb8:	611a      	str	r2, [r3, #16]
#if (USE_HAL_TIM_REGISTER_CALLBACKS == 1)
      htim->BreakCallback(htim);
#else
      HAL_TIMEx_BreakCallback(htim);
 8005eba:	6878      	ldr	r0, [r7, #4]
 8005ebc:	f000 fade 	bl	800647c <HAL_TIMEx_BreakCallback>
#endif /* USE_HAL_TIM_REGISTER_CALLBACKS */
    }
  }
  /* TIM Trigger detection event */
  if ((itflag & (TIM_FLAG_TRIGGER)) == (TIM_FLAG_TRIGGER))
 8005ec0:	68bb      	ldr	r3, [r7, #8]
 8005ec2:	f003 0340 	and.w	r3, r3, #64	@ 0x40
 8005ec6:	2b00      	cmp	r3, #0
 8005ec8:	d00c      	beq.n	8005ee4 <HAL_TIM_IRQHandler+0x1b4>
  {
    if ((itsource & (TIM_IT_TRIGGER)) == (TIM_IT_TRIGGER))
 8005eca:	68fb      	ldr	r3, [r7, #12]
 8005ecc:	f003 0340 	and.w	r3, r3, #64	@ 0x40
 8005ed0:	2b00      	cmp	r3, #0
 8005ed2:	d007      	beq.n	8005ee4 <HAL_TIM_IRQHandler+0x1b4>
    {
      __HAL_TIM_CLEAR_FLAG(htim, TIM_FLAG_TRIGGER);
 8005ed4:	687b      	ldr	r3, [r7, #4]
 8005ed6:	681b      	ldr	r3, [r3, #0]
 8005ed8:	f06f 0240 	mvn.w	r2, #64	@ 0x40
 8005edc:	611a      	str	r2, [r3, #16]
#if (USE_HAL_TIM_REGISTER_CALLBACKS == 1)
      htim->TriggerCallback(htim);
#else
      HAL_TIM_TriggerCallback(htim);
 8005ede:	6878      	ldr	r0, [r7, #4]
 8005ee0:	f000 f8fb 	bl	80060da <HAL_TIM_TriggerCallback>
#endif /* USE_HAL_TIM_REGISTER_CALLBACKS */
    }
  }
  /* TIM commutation event */
  if ((itflag & (TIM_FLAG_COM)) == (TIM_FLAG_COM))
 8005ee4:	68bb      	ldr	r3, [r7, #8]
 8005ee6:	f003 0320 	and.w	r3, r3, #32
 8005eea:	2b00      	cmp	r3, #0
 8005eec:	d00c      	beq.n	8005f08 <HAL_TIM_IRQHandler+0x1d8>
  {
    if ((itsource & (TIM_IT_COM)) == (TIM_IT_COM))
 8005eee:	68fb      	ldr	r3, [r7, #12]
 8005ef0:	f003 0320 	and.w	r3, r3, #32
 8005ef4:	2b00      	cmp	r3, #0
 8005ef6:	d007      	beq.n	8005f08 <HAL_TIM_IRQHandler+0x1d8>
    {
      __HAL_TIM_CLEAR_FLAG(htim, TIM_FLAG_COM);
 8005ef8:	687b      	ldr	r3, [r7, #4]
 8005efa:	681b      	ldr	r3, [r3, #0]
 8005efc:	f06f 0220 	mvn.w	r2, #32
 8005f00:	611a      	str	r2, [r3, #16]
#if (USE_HAL_TIM_REGISTER_CALLBACKS == 1)
      htim->CommutationCallback(htim);
#else
      HAL_TIMEx_CommutCallback(htim);
 8005f02:	6878      	ldr	r0, [r7, #4]
 8005f04:	f000 fab0 	bl	8006468 <HAL_TIMEx_CommutCallback>
#endif /* USE_HAL_TIM_REGISTER_CALLBACKS */
    }
  }
}
 8005f08:	bf00      	nop
 8005f0a:	3710      	adds	r7, #16
 8005f0c:	46bd      	mov	sp, r7
 8005f0e:	bd80      	pop	{r7, pc}

08005f10 <HAL_TIM_ConfigClockSource>:
  * @param  sClockSourceConfig pointer to a TIM_ClockConfigTypeDef structure that
  *         contains the clock source information for the TIM peripheral.
  * @retval HAL status
  */
HAL_StatusTypeDef HAL_TIM_ConfigClockSource(TIM_HandleTypeDef *htim, const TIM_ClockConfigTypeDef *sClockSourceConfig)
{
 8005f10:	b580      	push	{r7, lr}
 8005f12:	b084      	sub	sp, #16
 8005f14:	af00      	add	r7, sp, #0
 8005f16:	6078      	str	r0, [r7, #4]
 8005f18:	6039      	str	r1, [r7, #0]
  HAL_StatusTypeDef status = HAL_OK;
 8005f1a:	2300      	movs	r3, #0
 8005f1c:	73fb      	strb	r3, [r7, #15]
  uint32_t tmpsmcr;

  /* Process Locked */
  __HAL_LOCK(htim);
 8005f1e:	687b      	ldr	r3, [r7, #4]
 8005f20:	f893 303c 	ldrb.w	r3, [r3, #60]	@ 0x3c
 8005f24:	2b01      	cmp	r3, #1
 8005f26:	d101      	bne.n	8005f2c <HAL_TIM_ConfigClockSource+0x1c>
 8005f28:	2302      	movs	r3, #2
 8005f2a:	e0b4      	b.n	8006096 <HAL_TIM_ConfigClockSource+0x186>
 8005f2c:	687b      	ldr	r3, [r7, #4]
 8005f2e:	2201      	movs	r2, #1
 8005f30:	f883 203c 	strb.w	r2, [r3, #60]	@ 0x3c

  htim->State = HAL_TIM_STATE_BUSY;
 8005f34:	687b      	ldr	r3, [r7, #4]
 8005f36:	2202      	movs	r2, #2
 8005f38:	f883 203d 	strb.w	r2, [r3, #61]	@ 0x3d

  /* Check the parameters */
  assert_param(IS_TIM_CLOCKSOURCE(sClockSourceConfig->ClockSource));

  /* Reset the SMS, TS, ECE, ETPS and ETRF bits */
  tmpsmcr = htim->Instance->SMCR;
 8005f3c:	687b      	ldr	r3, [r7, #4]
 8005f3e:	681b      	ldr	r3, [r3, #0]
 8005f40:	689b      	ldr	r3, [r3, #8]
 8005f42:	60bb      	str	r3, [r7, #8]
  tmpsmcr &= ~(TIM_SMCR_SMS | TIM_SMCR_TS);
 8005f44:	68bb      	ldr	r3, [r7, #8]
 8005f46:	f023 0377 	bic.w	r3, r3, #119	@ 0x77
 8005f4a:	60bb      	str	r3, [r7, #8]
  tmpsmcr &= ~(TIM_SMCR_ETF | TIM_SMCR_ETPS | TIM_SMCR_ECE | TIM_SMCR_ETP);
 8005f4c:	68bb      	ldr	r3, [r7, #8]
 8005f4e:	f423 437f 	bic.w	r3, r3, #65280	@ 0xff00
 8005f52:	60bb      	str	r3, [r7, #8]
  htim->Instance->SMCR = tmpsmcr;
 8005f54:	687b      	ldr	r3, [r7, #4]
 8005f56:	681b      	ldr	r3, [r3, #0]
 8005f58:	68ba      	ldr	r2, [r7, #8]
 8005f5a:	609a      	str	r2, [r3, #8]

  switch (sClockSourceConfig->ClockSource)
 8005f5c:	683b      	ldr	r3, [r7, #0]
 8005f5e:	681b      	ldr	r3, [r3, #0]
 8005f60:	f5b3 5f00 	cmp.w	r3, #8192	@ 0x2000
 8005f64:	d03e      	beq.n	8005fe4 <HAL_TIM_ConfigClockSource+0xd4>
 8005f66:	f5b3 5f00 	cmp.w	r3, #8192	@ 0x2000
 8005f6a:	f200 8087 	bhi.w	800607c <HAL_TIM_ConfigClockSource+0x16c>
 8005f6e:	f5b3 5f80 	cmp.w	r3, #4096	@ 0x1000
 8005f72:	f000 8086 	beq.w	8006082 <HAL_TIM_ConfigClockSource+0x172>
 8005f76:	f5b3 5f80 	cmp.w	r3, #4096	@ 0x1000
 8005f7a:	d87f      	bhi.n	800607c <HAL_TIM_ConfigClockSource+0x16c>
 8005f7c:	2b70      	cmp	r3, #112	@ 0x70
 8005f7e:	d01a      	beq.n	8005fb6 <HAL_TIM_ConfigClockSource+0xa6>
 8005f80:	2b70      	cmp	r3, #112	@ 0x70
 8005f82:	d87b      	bhi.n	800607c <HAL_TIM_ConfigClockSource+0x16c>
 8005f84:	2b60      	cmp	r3, #96	@ 0x60
 8005f86:	d050      	beq.n	800602a <HAL_TIM_ConfigClockSource+0x11a>
 8005f88:	2b60      	cmp	r3, #96	@ 0x60
 8005f8a:	d877      	bhi.n	800607c <HAL_TIM_ConfigClockSource+0x16c>
 8005f8c:	2b50      	cmp	r3, #80	@ 0x50
 8005f8e:	d03c      	beq.n	800600a <HAL_TIM_ConfigClockSource+0xfa>
 8005f90:	2b50      	cmp	r3, #80	@ 0x50
 8005f92:	d873      	bhi.n	800607c <HAL_TIM_ConfigClockSource+0x16c>
 8005f94:	2b40      	cmp	r3, #64	@ 0x40
 8005f96:	d058      	beq.n	800604a <HAL_TIM_ConfigClockSource+0x13a>
 8005f98:	2b40      	cmp	r3, #64	@ 0x40
 8005f9a:	d86f      	bhi.n	800607c <HAL_TIM_ConfigClockSource+0x16c>
 8005f9c:	2b30      	cmp	r3, #48	@ 0x30
 8005f9e:	d064      	beq.n	800606a <HAL_TIM_ConfigClockSource+0x15a>
 8005fa0:	2b30      	cmp	r3, #48	@ 0x30
 8005fa2:	d86b      	bhi.n	800607c <HAL_TIM_ConfigClockSource+0x16c>
 8005fa4:	2b20      	cmp	r3, #32
 8005fa6:	d060      	beq.n	800606a <HAL_TIM_ConfigClockSource+0x15a>
 8005fa8:	2b20      	cmp	r3, #32
 8005faa:	d867      	bhi.n	800607c <HAL_TIM_ConfigClockSource+0x16c>
 8005fac:	2b00      	cmp	r3, #0
 8005fae:	d05c      	beq.n	800606a <HAL_TIM_ConfigClockSource+0x15a>
 8005fb0:	2b10      	cmp	r3, #16
 8005fb2:	d05a      	beq.n	800606a <HAL_TIM_ConfigClockSource+0x15a>
 8005fb4:	e062      	b.n	800607c <HAL_TIM_ConfigClockSource+0x16c>
      assert_param(IS_TIM_CLOCKPRESCALER(sClockSourceConfig->ClockPrescaler));
      assert_param(IS_TIM_CLOCKPOLARITY(sClockSourceConfig->ClockPolarity));
      assert_param(IS_TIM_CLOCKFILTER(sClockSourceConfig->ClockFilter));

      /* Configure the ETR Clock source */
      TIM_ETR_SetConfig(htim->Instance,
 8005fb6:	687b      	ldr	r3, [r7, #4]
 8005fb8:	6818      	ldr	r0, [r3, #0]
                        sClockSourceConfig->ClockPrescaler,
 8005fba:	683b      	ldr	r3, [r7, #0]
 8005fbc:	6899      	ldr	r1, [r3, #8]
                        sClockSourceConfig->ClockPolarity,
 8005fbe:	683b      	ldr	r3, [r7, #0]
 8005fc0:	685a      	ldr	r2, [r3, #4]
                        sClockSourceConfig->ClockFilter);
 8005fc2:	683b      	ldr	r3, [r7, #0]
 8005fc4:	68db      	ldr	r3, [r3, #12]
      TIM_ETR_SetConfig(htim->Instance,
 8005fc6:	f000 f9b3 	bl	8006330 <TIM_ETR_SetConfig>

      /* Select the External clock mode1 and the ETRF trigger */
      tmpsmcr = htim->Instance->SMCR;
 8005fca:	687b      	ldr	r3, [r7, #4]
 8005fcc:	681b      	ldr	r3, [r3, #0]
 8005fce:	689b      	ldr	r3, [r3, #8]
 8005fd0:	60bb      	str	r3, [r7, #8]
      tmpsmcr |= (TIM_SLAVEMODE_EXTERNAL1 | TIM_CLOCKSOURCE_ETRMODE1);
 8005fd2:	68bb      	ldr	r3, [r7, #8]
 8005fd4:	f043 0377 	orr.w	r3, r3, #119	@ 0x77
 8005fd8:	60bb      	str	r3, [r7, #8]
      /* Write to TIMx SMCR */
      htim->Instance->SMCR = tmpsmcr;
 8005fda:	687b      	ldr	r3, [r7, #4]
 8005fdc:	681b      	ldr	r3, [r3, #0]
 8005fde:	68ba      	ldr	r2, [r7, #8]
 8005fe0:	609a      	str	r2, [r3, #8]
      break;
 8005fe2:	e04f      	b.n	8006084 <HAL_TIM_ConfigClockSource+0x174>
      assert_param(IS_TIM_CLOCKPRESCALER(sClockSourceConfig->ClockPrescaler));
      assert_param(IS_TIM_CLOCKPOLARITY(sClockSourceConfig->ClockPolarity));
      assert_param(IS_TIM_CLOCKFILTER(sClockSourceConfig->ClockFilter));

      /* Configure the ETR Clock source */
      TIM_ETR_SetConfig(htim->Instance,
 8005fe4:	687b      	ldr	r3, [r7, #4]
 8005fe6:	6818      	ldr	r0, [r3, #0]
                        sClockSourceConfig->ClockPrescaler,
 8005fe8:	683b      	ldr	r3, [r7, #0]
 8005fea:	6899      	ldr	r1, [r3, #8]
                        sClockSourceConfig->ClockPolarity,
 8005fec:	683b      	ldr	r3, [r7, #0]
 8005fee:	685a      	ldr	r2, [r3, #4]
                        sClockSourceConfig->ClockFilter);
 8005ff0:	683b      	ldr	r3, [r7, #0]
 8005ff2:	68db      	ldr	r3, [r3, #12]
      TIM_ETR_SetConfig(htim->Instance,
 8005ff4:	f000 f99c 	bl	8006330 <TIM_ETR_SetConfig>
      /* Enable the External clock mode2 */
      htim->Instance->SMCR |= TIM_SMCR_ECE;
 8005ff8:	687b      	ldr	r3, [r7, #4]
 8005ffa:	681b      	ldr	r3, [r3, #0]
 8005ffc:	689a      	ldr	r2, [r3, #8]
 8005ffe:	687b      	ldr	r3, [r7, #4]
 8006000:	681b      	ldr	r3, [r3, #0]
 8006002:	f442 4280 	orr.w	r2, r2, #16384	@ 0x4000
 8006006:	609a      	str	r2, [r3, #8]
      break;
 8006008:	e03c      	b.n	8006084 <HAL_TIM_ConfigClockSource+0x174>

      /* Check TI1 input conditioning related parameters */
      assert_param(IS_TIM_CLOCKPOLARITY(sClockSourceConfig->ClockPolarity));
      assert_param(IS_TIM_CLOCKFILTER(sClockSourceConfig->ClockFilter));

      TIM_TI1_ConfigInputStage(htim->Instance,
 800600a:	687b      	ldr	r3, [r7, #4]
 800600c:	6818      	ldr	r0, [r3, #0]
                               sClockSourceConfig->ClockPolarity,
 800600e:	683b      	ldr	r3, [r7, #0]
 8006010:	6859      	ldr	r1, [r3, #4]
                               sClockSourceConfig->ClockFilter);
 8006012:	683b      	ldr	r3, [r7, #0]
 8006014:	68db      	ldr	r3, [r3, #12]
      TIM_TI1_ConfigInputStage(htim->Instance,
 8006016:	461a      	mov	r2, r3
 8006018:	f000 f910 	bl	800623c <TIM_TI1_ConfigInputStage>
      TIM_ITRx_SetConfig(htim->Instance, TIM_CLOCKSOURCE_TI1);
 800601c:	687b      	ldr	r3, [r7, #4]
 800601e:	681b      	ldr	r3, [r3, #0]
 8006020:	2150      	movs	r1, #80	@ 0x50
 8006022:	4618      	mov	r0, r3
 8006024:	f000 f969 	bl	80062fa <TIM_ITRx_SetConfig>
      break;
 8006028:	e02c      	b.n	8006084 <HAL_TIM_ConfigClockSource+0x174>

      /* Check TI2 input conditioning related parameters */
      assert_param(IS_TIM_CLOCKPOLARITY(sClockSourceConfig->ClockPolarity));
      assert_param(IS_TIM_CLOCKFILTER(sClockSourceConfig->ClockFilter));

      TIM_TI2_ConfigInputStage(htim->Instance,
 800602a:	687b      	ldr	r3, [r7, #4]
 800602c:	6818      	ldr	r0, [r3, #0]
                               sClockSourceConfig->ClockPolarity,
 800602e:	683b      	ldr	r3, [r7, #0]
 8006030:	6859      	ldr	r1, [r3, #4]
                               sClockSourceConfig->ClockFilter);
 8006032:	683b      	ldr	r3, [r7, #0]
 8006034:	68db      	ldr	r3, [r3, #12]
      TIM_TI2_ConfigInputStage(htim->Instance,
 8006036:	461a      	mov	r2, r3
 8006038:	f000 f92f 	bl	800629a <TIM_TI2_ConfigInputStage>
      TIM_ITRx_SetConfig(htim->Instance, TIM_CLOCKSOURCE_TI2);
 800603c:	687b      	ldr	r3, [r7, #4]
 800603e:	681b      	ldr	r3, [r3, #0]
 8006040:	2160      	movs	r1, #96	@ 0x60
 8006042:	4618      	mov	r0, r3
 8006044:	f000 f959 	bl	80062fa <TIM_ITRx_SetConfig>
      break;
 8006048:	e01c      	b.n	8006084 <HAL_TIM_ConfigClockSource+0x174>

      /* Check TI1 input conditioning related parameters */
      assert_param(IS_TIM_CLOCKPOLARITY(sClockSourceConfig->ClockPolarity));
      assert_param(IS_TIM_CLOCKFILTER(sClockSourceConfig->ClockFilter));

      TIM_TI1_ConfigInputStage(htim->Instance,
 800604a:	687b      	ldr	r3, [r7, #4]
 800604c:	6818      	ldr	r0, [r3, #0]
                               sClockSourceConfig->ClockPolarity,
 800604e:	683b      	ldr	r3, [r7, #0]
 8006050:	6859      	ldr	r1, [r3, #4]
                               sClockSourceConfig->ClockFilter);
 8006052:	683b      	ldr	r3, [r7, #0]
 8006054:	68db      	ldr	r3, [r3, #12]
      TIM_TI1_ConfigInputStage(htim->Instance,
 8006056:	461a      	mov	r2, r3
 8006058:	f000 f8f0 	bl	800623c <TIM_TI1_ConfigInputStage>
      TIM_ITRx_SetConfig(htim->Instance, TIM_CLOCKSOURCE_TI1ED);
 800605c:	687b      	ldr	r3, [r7, #4]
 800605e:	681b      	ldr	r3, [r3, #0]
 8006060:	2140      	movs	r1, #64	@ 0x40
 8006062:	4618      	mov	r0, r3
 8006064:	f000 f949 	bl	80062fa <TIM_ITRx_SetConfig>
      break;
 8006068:	e00c      	b.n	8006084 <HAL_TIM_ConfigClockSource+0x174>
    case TIM_CLOCKSOURCE_ITR3:
    {
      /* Check whether or not the timer instance supports internal trigger input */
      assert_param(IS_TIM_CLOCKSOURCE_ITRX_INSTANCE(htim->Instance));

      TIM_ITRx_SetConfig(htim->Instance, sClockSourceConfig->ClockSource);
 800606a:	687b      	ldr	r3, [r7, #4]
 800606c:	681a      	ldr	r2, [r3, #0]
 800606e:	683b      	ldr	r3, [r7, #0]
 8006070:	681b      	ldr	r3, [r3, #0]
 8006072:	4619      	mov	r1, r3
 8006074:	4610      	mov	r0, r2
 8006076:	f000 f940 	bl	80062fa <TIM_ITRx_SetConfig>
      break;
 800607a:	e003      	b.n	8006084 <HAL_TIM_ConfigClockSource+0x174>
    }

    default:
      status = HAL_ERROR;
 800607c:	2301      	movs	r3, #1
 800607e:	73fb      	strb	r3, [r7, #15]
      break;
 8006080:	e000      	b.n	8006084 <HAL_TIM_ConfigClockSource+0x174>
      break;
 8006082:	bf00      	nop
  }
  htim->State = HAL_TIM_STATE_READY;
 8006084:	687b      	ldr	r3, [r7, #4]
 8006086:	2201      	movs	r2, #1
 8006088:	f883 203d 	strb.w	r2, [r3, #61]	@ 0x3d

  __HAL_UNLOCK(htim);
 800608c:	687b      	ldr	r3, [r7, #4]
 800608e:	2200      	movs	r2, #0
 8006090:	f883 203c 	strb.w	r2, [r3, #60]	@ 0x3c

  return status;
 8006094:	7bfb      	ldrb	r3, [r7, #15]
}
 8006096:	4618      	mov	r0, r3
 8006098:	3710      	adds	r7, #16
 800609a:	46bd      	mov	sp, r7
 800609c:	bd80      	pop	{r7, pc}

0800609e <HAL_TIM_OC_DelayElapsedCallback>:
  * @brief  Output Compare callback in non-blocking mode
  * @param  htim TIM OC handle
  * @retval None
  */
__weak void HAL_TIM_OC_DelayElapsedCallback(TIM_HandleTypeDef *htim)
{
 800609e:	b480      	push	{r7}
 80060a0:	b083      	sub	sp, #12
 80060a2:	af00      	add	r7, sp, #0
 80060a4:	6078      	str	r0, [r7, #4]
  UNUSED(htim);

  /* NOTE : This function should not be modified, when the callback is needed,
            the HAL_TIM_OC_DelayElapsedCallback could be implemented in the user file
   */
}
 80060a6:	bf00      	nop
 80060a8:	370c      	adds	r7, #12
 80060aa:	46bd      	mov	sp, r7
 80060ac:	f85d 7b04 	ldr.w	r7, [sp], #4
 80060b0:	4770      	bx	lr

080060b2 <HAL_TIM_IC_CaptureCallback>:
  * @brief  Input Capture callback in non-blocking mode
  * @param  htim TIM IC handle
  * @retval None
  */
__weak void HAL_TIM_IC_CaptureCallback(TIM_HandleTypeDef *htim)
{
 80060b2:	b480      	push	{r7}
 80060b4:	b083      	sub	sp, #12
 80060b6:	af00      	add	r7, sp, #0
 80060b8:	6078      	str	r0, [r7, #4]
  UNUSED(htim);

  /* NOTE : This function should not be modified, when the callback is needed,
            the HAL_TIM_IC_CaptureCallback could be implemented in the user file
   */
}
 80060ba:	bf00      	nop
 80060bc:	370c      	adds	r7, #12
 80060be:	46bd      	mov	sp, r7
 80060c0:	f85d 7b04 	ldr.w	r7, [sp], #4
 80060c4:	4770      	bx	lr

080060c6 <HAL_TIM_PWM_PulseFinishedCallback>:
  * @brief  PWM Pulse finished callback in non-blocking mode
  * @param  htim TIM handle
  * @retval None
  */
__weak void HAL_TIM_PWM_PulseFinishedCallback(TIM_HandleTypeDef *htim)
{
 80060c6:	b480      	push	{r7}
 80060c8:	b083      	sub	sp, #12
 80060ca:	af00      	add	r7, sp, #0
 80060cc:	6078      	str	r0, [r7, #4]
  UNUSED(htim);

  /* NOTE : This function should not be modified, when the callback is needed,
            the HAL_TIM_PWM_PulseFinishedCallback could be implemented in the user file
   */
}
 80060ce:	bf00      	nop
 80060d0:	370c      	adds	r7, #12
 80060d2:	46bd      	mov	sp, r7
 80060d4:	f85d 7b04 	ldr.w	r7, [sp], #4
 80060d8:	4770      	bx	lr

080060da <HAL_TIM_TriggerCallback>:
  * @brief  Hall Trigger detection callback in non-blocking mode
  * @param  htim TIM handle
  * @retval None
  */
__weak void HAL_TIM_TriggerCallback(TIM_HandleTypeDef *htim)
{
 80060da:	b480      	push	{r7}
 80060dc:	b083      	sub	sp, #12
 80060de:	af00      	add	r7, sp, #0
 80060e0:	6078      	str	r0, [r7, #4]
  UNUSED(htim);

  /* NOTE : This function should not be modified, when the callback is needed,
            the HAL_TIM_TriggerCallback could be implemented in the user file
   */
}
 80060e2:	bf00      	nop
 80060e4:	370c      	adds	r7, #12
 80060e6:	46bd      	mov	sp, r7
 80060e8:	f85d 7b04 	ldr.w	r7, [sp], #4
 80060ec:	4770      	bx	lr
	...

080060f0 <TIM_Base_SetConfig>:
  * @param  TIMx TIM peripheral
  * @param  Structure TIM Base configuration structure
  * @retval None
  */
void TIM_Base_SetConfig(TIM_TypeDef *TIMx, const TIM_Base_InitTypeDef *Structure)
{
 80060f0:	b480      	push	{r7}
 80060f2:	b085      	sub	sp, #20
 80060f4:	af00      	add	r7, sp, #0
 80060f6:	6078      	str	r0, [r7, #4]
 80060f8:	6039      	str	r1, [r7, #0]
  uint32_t tmpcr1;
  tmpcr1 = TIMx->CR1;
 80060fa:	687b      	ldr	r3, [r7, #4]
 80060fc:	681b      	ldr	r3, [r3, #0]
 80060fe:	60fb      	str	r3, [r7, #12]

  /* Set TIM Time Base Unit parameters ---------------------------------------*/
  if (IS_TIM_COUNTER_MODE_SELECT_INSTANCE(TIMx))
 8006100:	687b      	ldr	r3, [r7, #4]
 8006102:	4a43      	ldr	r2, [pc, #268]	@ (8006210 <TIM_Base_SetConfig+0x120>)
 8006104:	4293      	cmp	r3, r2
 8006106:	d013      	beq.n	8006130 <TIM_Base_SetConfig+0x40>
 8006108:	687b      	ldr	r3, [r7, #4]
 800610a:	f1b3 4f80 	cmp.w	r3, #1073741824	@ 0x40000000
 800610e:	d00f      	beq.n	8006130 <TIM_Base_SetConfig+0x40>
 8006110:	687b      	ldr	r3, [r7, #4]
 8006112:	4a40      	ldr	r2, [pc, #256]	@ (8006214 <TIM_Base_SetConfig+0x124>)
 8006114:	4293      	cmp	r3, r2
 8006116:	d00b      	beq.n	8006130 <TIM_Base_SetConfig+0x40>
 8006118:	687b      	ldr	r3, [r7, #4]
 800611a:	4a3f      	ldr	r2, [pc, #252]	@ (8006218 <TIM_Base_SetConfig+0x128>)
 800611c:	4293      	cmp	r3, r2
 800611e:	d007      	beq.n	8006130 <TIM_Base_SetConfig+0x40>
 8006120:	687b      	ldr	r3, [r7, #4]
 8006122:	4a3e      	ldr	r2, [pc, #248]	@ (800621c <TIM_Base_SetConfig+0x12c>)
 8006124:	4293      	cmp	r3, r2
 8006126:	d003      	beq.n	8006130 <TIM_Base_SetConfig+0x40>
 8006128:	687b      	ldr	r3, [r7, #4]
 800612a:	4a3d      	ldr	r2, [pc, #244]	@ (8006220 <TIM_Base_SetConfig+0x130>)
 800612c:	4293      	cmp	r3, r2
 800612e:	d108      	bne.n	8006142 <TIM_Base_SetConfig+0x52>
  {
    /* Select the Counter Mode */
    tmpcr1 &= ~(TIM_CR1_DIR | TIM_CR1_CMS);
 8006130:	68fb      	ldr	r3, [r7, #12]
 8006132:	f023 0370 	bic.w	r3, r3, #112	@ 0x70
 8006136:	60fb      	str	r3, [r7, #12]
    tmpcr1 |= Structure->CounterMode;
 8006138:	683b      	ldr	r3, [r7, #0]
 800613a:	685b      	ldr	r3, [r3, #4]
 800613c:	68fa      	ldr	r2, [r7, #12]
 800613e:	4313      	orrs	r3, r2
 8006140:	60fb      	str	r3, [r7, #12]
  }

  if (IS_TIM_CLOCK_DIVISION_INSTANCE(TIMx))
 8006142:	687b      	ldr	r3, [r7, #4]
 8006144:	4a32      	ldr	r2, [pc, #200]	@ (8006210 <TIM_Base_SetConfig+0x120>)
 8006146:	4293      	cmp	r3, r2
 8006148:	d02b      	beq.n	80061a2 <TIM_Base_SetConfig+0xb2>
 800614a:	687b      	ldr	r3, [r7, #4]
 800614c:	f1b3 4f80 	cmp.w	r3, #1073741824	@ 0x40000000
 8006150:	d027      	beq.n	80061a2 <TIM_Base_SetConfig+0xb2>
 8006152:	687b      	ldr	r3, [r7, #4]
 8006154:	4a2f      	ldr	r2, [pc, #188]	@ (8006214 <TIM_Base_SetConfig+0x124>)
 8006156:	4293      	cmp	r3, r2
 8006158:	d023      	beq.n	80061a2 <TIM_Base_SetConfig+0xb2>
 800615a:	687b      	ldr	r3, [r7, #4]
 800615c:	4a2e      	ldr	r2, [pc, #184]	@ (8006218 <TIM_Base_SetConfig+0x128>)
 800615e:	4293      	cmp	r3, r2
 8006160:	d01f      	beq.n	80061a2 <TIM_Base_SetConfig+0xb2>
 8006162:	687b      	ldr	r3, [r7, #4]
 8006164:	4a2d      	ldr	r2, [pc, #180]	@ (800621c <TIM_Base_SetConfig+0x12c>)
 8006166:	4293      	cmp	r3, r2
 8006168:	d01b      	beq.n	80061a2 <TIM_Base_SetConfig+0xb2>
 800616a:	687b      	ldr	r3, [r7, #4]
 800616c:	4a2c      	ldr	r2, [pc, #176]	@ (8006220 <TIM_Base_SetConfig+0x130>)
 800616e:	4293      	cmp	r3, r2
 8006170:	d017      	beq.n	80061a2 <TIM_Base_SetConfig+0xb2>
 8006172:	687b      	ldr	r3, [r7, #4]
 8006174:	4a2b      	ldr	r2, [pc, #172]	@ (8006224 <TIM_Base_SetConfig+0x134>)
 8006176:	4293      	cmp	r3, r2
 8006178:	d013      	beq.n	80061a2 <TIM_Base_SetConfig+0xb2>
 800617a:	687b      	ldr	r3, [r7, #4]
 800617c:	4a2a      	ldr	r2, [pc, #168]	@ (8006228 <TIM_Base_SetConfig+0x138>)
 800617e:	4293      	cmp	r3, r2
 8006180:	d00f      	beq.n	80061a2 <TIM_Base_SetConfig+0xb2>
 8006182:	687b      	ldr	r3, [r7, #4]
 8006184:	4a29      	ldr	r2, [pc, #164]	@ (800622c <TIM_Base_SetConfig+0x13c>)
 8006186:	4293      	cmp	r3, r2
 8006188:	d00b      	beq.n	80061a2 <TIM_Base_SetConfig+0xb2>
 800618a:	687b      	ldr	r3, [r7, #4]
 800618c:	4a28      	ldr	r2, [pc, #160]	@ (8006230 <TIM_Base_SetConfig+0x140>)
 800618e:	4293      	cmp	r3, r2
 8006190:	d007      	beq.n	80061a2 <TIM_Base_SetConfig+0xb2>
 8006192:	687b      	ldr	r3, [r7, #4]
 8006194:	4a27      	ldr	r2, [pc, #156]	@ (8006234 <TIM_Base_SetConfig+0x144>)
 8006196:	4293      	cmp	r3, r2
 8006198:	d003      	beq.n	80061a2 <TIM_Base_SetConfig+0xb2>
 800619a:	687b      	ldr	r3, [r7, #4]
 800619c:	4a26      	ldr	r2, [pc, #152]	@ (8006238 <TIM_Base_SetConfig+0x148>)
 800619e:	4293      	cmp	r3, r2
 80061a0:	d108      	bne.n	80061b4 <TIM_Base_SetConfig+0xc4>
  {
    /* Set the clock division */
    tmpcr1 &= ~TIM_CR1_CKD;
 80061a2:	68fb      	ldr	r3, [r7, #12]
 80061a4:	f423 7340 	bic.w	r3, r3, #768	@ 0x300
 80061a8:	60fb      	str	r3, [r7, #12]
    tmpcr1 |= (uint32_t)Structure->ClockDivision;
 80061aa:	683b      	ldr	r3, [r7, #0]
 80061ac:	68db      	ldr	r3, [r3, #12]
 80061ae:	68fa      	ldr	r2, [r7, #12]
 80061b0:	4313      	orrs	r3, r2
 80061b2:	60fb      	str	r3, [r7, #12]
  }

  /* Set the auto-reload preload */
  MODIFY_REG(tmpcr1, TIM_CR1_ARPE, Structure->AutoReloadPreload);
 80061b4:	68fb      	ldr	r3, [r7, #12]
 80061b6:	f023 0280 	bic.w	r2, r3, #128	@ 0x80
 80061ba:	683b      	ldr	r3, [r7, #0]
 80061bc:	695b      	ldr	r3, [r3, #20]
 80061be:	4313      	orrs	r3, r2
 80061c0:	60fb      	str	r3, [r7, #12]

  /* Set the Autoreload value */
  TIMx->ARR = (uint32_t)Structure->Period ;
 80061c2:	683b      	ldr	r3, [r7, #0]
 80061c4:	689a      	ldr	r2, [r3, #8]
 80061c6:	687b      	ldr	r3, [r7, #4]
 80061c8:	62da      	str	r2, [r3, #44]	@ 0x2c

  /* Set the Prescaler value */
  TIMx->PSC = Structure->Prescaler;
 80061ca:	683b      	ldr	r3, [r7, #0]
 80061cc:	681a      	ldr	r2, [r3, #0]
 80061ce:	687b      	ldr	r3, [r7, #4]
 80061d0:	629a      	str	r2, [r3, #40]	@ 0x28

  if (IS_TIM_REPETITION_COUNTER_INSTANCE(TIMx))
 80061d2:	687b      	ldr	r3, [r7, #4]
 80061d4:	4a0e      	ldr	r2, [pc, #56]	@ (8006210 <TIM_Base_SetConfig+0x120>)
 80061d6:	4293      	cmp	r3, r2
 80061d8:	d003      	beq.n	80061e2 <TIM_Base_SetConfig+0xf2>
 80061da:	687b      	ldr	r3, [r7, #4]
 80061dc:	4a10      	ldr	r2, [pc, #64]	@ (8006220 <TIM_Base_SetConfig+0x130>)
 80061de:	4293      	cmp	r3, r2
 80061e0:	d103      	bne.n	80061ea <TIM_Base_SetConfig+0xfa>
  {
    /* Set the Repetition Counter value */
    TIMx->RCR = Structure->RepetitionCounter;
 80061e2:	683b      	ldr	r3, [r7, #0]
 80061e4:	691a      	ldr	r2, [r3, #16]
 80061e6:	687b      	ldr	r3, [r7, #4]
 80061e8:	631a      	str	r2, [r3, #48]	@ 0x30
  }

  /* Disable Update Event (UEV) with Update Generation (UG)
     by changing Update Request Source (URS) to avoid Update flag (UIF) */
  SET_BIT(TIMx->CR1, TIM_CR1_URS);
 80061ea:	687b      	ldr	r3, [r7, #4]
 80061ec:	681b      	ldr	r3, [r3, #0]
 80061ee:	f043 0204 	orr.w	r2, r3, #4
 80061f2:	687b      	ldr	r3, [r7, #4]
 80061f4:	601a      	str	r2, [r3, #0]

  /* Generate an update event to reload the Prescaler
     and the repetition counter (only for advanced timer) value immediately */
  TIMx->EGR = TIM_EGR_UG;
 80061f6:	687b      	ldr	r3, [r7, #4]
 80061f8:	2201      	movs	r2, #1
 80061fa:	615a      	str	r2, [r3, #20]

  TIMx->CR1 = tmpcr1;
 80061fc:	687b      	ldr	r3, [r7, #4]
 80061fe:	68fa      	ldr	r2, [r7, #12]
 8006200:	601a      	str	r2, [r3, #0]
}
 8006202:	bf00      	nop
 8006204:	3714      	adds	r7, #20
 8006206:	46bd      	mov	sp, r7
 8006208:	f85d 7b04 	ldr.w	r7, [sp], #4
 800620c:	4770      	bx	lr
 800620e:	bf00      	nop
 8006210:	40010000 	.word	0x40010000
 8006214:	40000400 	.word	0x40000400
 8006218:	40000800 	.word	0x40000800
 800621c:	40000c00 	.word	0x40000c00
 8006220:	40010400 	.word	0x40010400
 8006224:	40014000 	.word	0x40014000
 8006228:	40014400 	.word	0x40014400
 800622c:	40014800 	.word	0x40014800
 8006230:	40001800 	.word	0x40001800
 8006234:	40001c00 	.word	0x40001c00
 8006238:	40002000 	.word	0x40002000

0800623c <TIM_TI1_ConfigInputStage>:
  * @param  TIM_ICFilter Specifies the Input Capture Filter.
  *          This parameter must be a value between 0x00 and 0x0F.
  * @retval None
  */
static void TIM_TI1_ConfigInputStage(TIM_TypeDef *TIMx, uint32_t TIM_ICPolarity, uint32_t TIM_ICFilter)
{
 800623c:	b480      	push	{r7}
 800623e:	b087      	sub	sp, #28
 8006240:	af00      	add	r7, sp, #0
 8006242:	60f8      	str	r0, [r7, #12]
 8006244:	60b9      	str	r1, [r7, #8]
 8006246:	607a      	str	r2, [r7, #4]
  uint32_t tmpccmr1;
  uint32_t tmpccer;

  /* Disable the Channel 1: Reset the CC1E Bit */
  tmpccer = TIMx->CCER;
 8006248:	68fb      	ldr	r3, [r7, #12]
 800624a:	6a1b      	ldr	r3, [r3, #32]
 800624c:	617b      	str	r3, [r7, #20]
  TIMx->CCER &= ~TIM_CCER_CC1E;
 800624e:	68fb      	ldr	r3, [r7, #12]
 8006250:	6a1b      	ldr	r3, [r3, #32]
 8006252:	f023 0201 	bic.w	r2, r3, #1
 8006256:	68fb      	ldr	r3, [r7, #12]
 8006258:	621a      	str	r2, [r3, #32]
  tmpccmr1 = TIMx->CCMR1;
 800625a:	68fb      	ldr	r3, [r7, #12]
 800625c:	699b      	ldr	r3, [r3, #24]
 800625e:	613b      	str	r3, [r7, #16]

  /* Set the filter */
  tmpccmr1 &= ~TIM_CCMR1_IC1F;
 8006260:	693b      	ldr	r3, [r7, #16]
 8006262:	f023 03f0 	bic.w	r3, r3, #240	@ 0xf0
 8006266:	613b      	str	r3, [r7, #16]
  tmpccmr1 |= (TIM_ICFilter << 4U);
 8006268:	687b      	ldr	r3, [r7, #4]
 800626a:	011b      	lsls	r3, r3, #4
 800626c:	693a      	ldr	r2, [r7, #16]
 800626e:	4313      	orrs	r3, r2
 8006270:	613b      	str	r3, [r7, #16]

  /* Select the Polarity and set the CC1E Bit */
  tmpccer &= ~(TIM_CCER_CC1P | TIM_CCER_CC1NP);
 8006272:	697b      	ldr	r3, [r7, #20]
 8006274:	f023 030a 	bic.w	r3, r3, #10
 8006278:	617b      	str	r3, [r7, #20]
  tmpccer |= TIM_ICPolarity;
 800627a:	697a      	ldr	r2, [r7, #20]
 800627c:	68bb      	ldr	r3, [r7, #8]
 800627e:	4313      	orrs	r3, r2
 8006280:	617b      	str	r3, [r7, #20]

  /* Write to TIMx CCMR1 and CCER registers */
  TIMx->CCMR1 = tmpccmr1;
 8006282:	68fb      	ldr	r3, [r7, #12]
 8006284:	693a      	ldr	r2, [r7, #16]
 8006286:	619a      	str	r2, [r3, #24]
  TIMx->CCER = tmpccer;
 8006288:	68fb      	ldr	r3, [r7, #12]
 800628a:	697a      	ldr	r2, [r7, #20]
 800628c:	621a      	str	r2, [r3, #32]
}
 800628e:	bf00      	nop
 8006290:	371c      	adds	r7, #28
 8006292:	46bd      	mov	sp, r7
 8006294:	f85d 7b04 	ldr.w	r7, [sp], #4
 8006298:	4770      	bx	lr

0800629a <TIM_TI2_ConfigInputStage>:
  * @param  TIM_ICFilter Specifies the Input Capture Filter.
  *          This parameter must be a value between 0x00 and 0x0F.
  * @retval None
  */
static void TIM_TI2_ConfigInputStage(TIM_TypeDef *TIMx, uint32_t TIM_ICPolarity, uint32_t TIM_ICFilter)
{
 800629a:	b480      	push	{r7}
 800629c:	b087      	sub	sp, #28
 800629e:	af00      	add	r7, sp, #0
 80062a0:	60f8      	str	r0, [r7, #12]
 80062a2:	60b9      	str	r1, [r7, #8]
 80062a4:	607a      	str	r2, [r7, #4]
  uint32_t tmpccmr1;
  uint32_t tmpccer;

  /* Disable the Channel 2: Reset the CC2E Bit */
  tmpccer = TIMx->CCER;
 80062a6:	68fb      	ldr	r3, [r7, #12]
 80062a8:	6a1b      	ldr	r3, [r3, #32]
 80062aa:	617b      	str	r3, [r7, #20]
  TIMx->CCER &= ~TIM_CCER_CC2E;
 80062ac:	68fb      	ldr	r3, [r7, #12]
 80062ae:	6a1b      	ldr	r3, [r3, #32]
 80062b0:	f023 0210 	bic.w	r2, r3, #16
 80062b4:	68fb      	ldr	r3, [r7, #12]
 80062b6:	621a      	str	r2, [r3, #32]
  tmpccmr1 = TIMx->CCMR1;
 80062b8:	68fb      	ldr	r3, [r7, #12]
 80062ba:	699b      	ldr	r3, [r3, #24]
 80062bc:	613b      	str	r3, [r7, #16]

  /* Set the filter */
  tmpccmr1 &= ~TIM_CCMR1_IC2F;
 80062be:	693b      	ldr	r3, [r7, #16]
 80062c0:	f423 4370 	bic.w	r3, r3, #61440	@ 0xf000
 80062c4:	613b      	str	r3, [r7, #16]
  tmpccmr1 |= (TIM_ICFilter << 12U);
 80062c6:	687b      	ldr	r3, [r7, #4]
 80062c8:	031b      	lsls	r3, r3, #12
 80062ca:	693a      	ldr	r2, [r7, #16]
 80062cc:	4313      	orrs	r3, r2
 80062ce:	613b      	str	r3, [r7, #16]

  /* Select the Polarity and set the CC2E Bit */
  tmpccer &= ~(TIM_CCER_CC2P | TIM_CCER_CC2NP);
 80062d0:	697b      	ldr	r3, [r7, #20]
 80062d2:	f023 03a0 	bic.w	r3, r3, #160	@ 0xa0
 80062d6:	617b      	str	r3, [r7, #20]
  tmpccer |= (TIM_ICPolarity << 4U);
 80062d8:	68bb      	ldr	r3, [r7, #8]
 80062da:	011b      	lsls	r3, r3, #4
 80062dc:	697a      	ldr	r2, [r7, #20]
 80062de:	4313      	orrs	r3, r2
 80062e0:	617b      	str	r3, [r7, #20]

  /* Write to TIMx CCMR1 and CCER registers */
  TIMx->CCMR1 = tmpccmr1 ;
 80062e2:	68fb      	ldr	r3, [r7, #12]
 80062e4:	693a      	ldr	r2, [r7, #16]
 80062e6:	619a      	str	r2, [r3, #24]
  TIMx->CCER = tmpccer;
 80062e8:	68fb      	ldr	r3, [r7, #12]
 80062ea:	697a      	ldr	r2, [r7, #20]
 80062ec:	621a      	str	r2, [r3, #32]
}
 80062ee:	bf00      	nop
 80062f0:	371c      	adds	r7, #28
 80062f2:	46bd      	mov	sp, r7
 80062f4:	f85d 7b04 	ldr.w	r7, [sp], #4
 80062f8:	4770      	bx	lr

080062fa <TIM_ITRx_SetConfig>:
  *            @arg TIM_TS_TI2FP2: Filtered Timer Input 2
  *            @arg TIM_TS_ETRF: External Trigger input
  * @retval None
  */
static void TIM_ITRx_SetConfig(TIM_TypeDef *TIMx, uint32_t InputTriggerSource)
{
 80062fa:	b480      	push	{r7}
 80062fc:	b085      	sub	sp, #20
 80062fe:	af00      	add	r7, sp, #0
 8006300:	6078      	str	r0, [r7, #4]
 8006302:	6039      	str	r1, [r7, #0]
  uint32_t tmpsmcr;

  /* Get the TIMx SMCR register value */
  tmpsmcr = TIMx->SMCR;
 8006304:	687b      	ldr	r3, [r7, #4]
 8006306:	689b      	ldr	r3, [r3, #8]
 8006308:	60fb      	str	r3, [r7, #12]
  /* Reset the TS Bits */
  tmpsmcr &= ~TIM_SMCR_TS;
 800630a:	68fb      	ldr	r3, [r7, #12]
 800630c:	f023 0370 	bic.w	r3, r3, #112	@ 0x70
 8006310:	60fb      	str	r3, [r7, #12]
  /* Set the Input Trigger source and the slave mode*/
  tmpsmcr |= (InputTriggerSource | TIM_SLAVEMODE_EXTERNAL1);
 8006312:	683a      	ldr	r2, [r7, #0]
 8006314:	68fb      	ldr	r3, [r7, #12]
 8006316:	4313      	orrs	r3, r2
 8006318:	f043 0307 	orr.w	r3, r3, #7
 800631c:	60fb      	str	r3, [r7, #12]
  /* Write to TIMx SMCR */
  TIMx->SMCR = tmpsmcr;
 800631e:	687b      	ldr	r3, [r7, #4]
 8006320:	68fa      	ldr	r2, [r7, #12]
 8006322:	609a      	str	r2, [r3, #8]
}
 8006324:	bf00      	nop
 8006326:	3714      	adds	r7, #20
 8006328:	46bd      	mov	sp, r7
 800632a:	f85d 7b04 	ldr.w	r7, [sp], #4
 800632e:	4770      	bx	lr

08006330 <TIM_ETR_SetConfig>:
  *          This parameter must be a value between 0x00 and 0x0F
  * @retval None
  */
void TIM_ETR_SetConfig(TIM_TypeDef *TIMx, uint32_t TIM_ExtTRGPrescaler,
                       uint32_t TIM_ExtTRGPolarity, uint32_t ExtTRGFilter)
{
 8006330:	b480      	push	{r7}
 8006332:	b087      	sub	sp, #28
 8006334:	af00      	add	r7, sp, #0
 8006336:	60f8      	str	r0, [r7, #12]
 8006338:	60b9      	str	r1, [r7, #8]
 800633a:	607a      	str	r2, [r7, #4]
 800633c:	603b      	str	r3, [r7, #0]
  uint32_t tmpsmcr;

  tmpsmcr = TIMx->SMCR;
 800633e:	68fb      	ldr	r3, [r7, #12]
 8006340:	689b      	ldr	r3, [r3, #8]
 8006342:	617b      	str	r3, [r7, #20]

  /* Reset the ETR Bits */
  tmpsmcr &= ~(TIM_SMCR_ETF | TIM_SMCR_ETPS | TIM_SMCR_ECE | TIM_SMCR_ETP);
 8006344:	697b      	ldr	r3, [r7, #20]
 8006346:	f423 437f 	bic.w	r3, r3, #65280	@ 0xff00
 800634a:	617b      	str	r3, [r7, #20]

  /* Set the Prescaler, the Filter value and the Polarity */
  tmpsmcr |= (uint32_t)(TIM_ExtTRGPrescaler | (TIM_ExtTRGPolarity | (ExtTRGFilter << 8U)));
 800634c:	683b      	ldr	r3, [r7, #0]
 800634e:	021a      	lsls	r2, r3, #8
 8006350:	687b      	ldr	r3, [r7, #4]
 8006352:	431a      	orrs	r2, r3
 8006354:	68bb      	ldr	r3, [r7, #8]
 8006356:	4313      	orrs	r3, r2
 8006358:	697a      	ldr	r2, [r7, #20]
 800635a:	4313      	orrs	r3, r2
 800635c:	617b      	str	r3, [r7, #20]

  /* Write to TIMx SMCR */
  TIMx->SMCR = tmpsmcr;
 800635e:	68fb      	ldr	r3, [r7, #12]
 8006360:	697a      	ldr	r2, [r7, #20]
 8006362:	609a      	str	r2, [r3, #8]
}
 8006364:	bf00      	nop
 8006366:	371c      	adds	r7, #28
 8006368:	46bd      	mov	sp, r7
 800636a:	f85d 7b04 	ldr.w	r7, [sp], #4
 800636e:	4770      	bx	lr

08006370 <HAL_TIMEx_MasterConfigSynchronization>:
  *         mode.
  * @retval HAL status
  */
HAL_StatusTypeDef HAL_TIMEx_MasterConfigSynchronization(TIM_HandleTypeDef *htim,
                                                        const TIM_MasterConfigTypeDef *sMasterConfig)
{
 8006370:	b480      	push	{r7}
 8006372:	b085      	sub	sp, #20
 8006374:	af00      	add	r7, sp, #0
 8006376:	6078      	str	r0, [r7, #4]
 8006378:	6039      	str	r1, [r7, #0]
  assert_param(IS_TIM_MASTER_INSTANCE(htim->Instance));
  assert_param(IS_TIM_TRGO_SOURCE(sMasterConfig->MasterOutputTrigger));
  assert_param(IS_TIM_MSM_STATE(sMasterConfig->MasterSlaveMode));

  /* Check input state */
  __HAL_LOCK(htim);
 800637a:	687b      	ldr	r3, [r7, #4]
 800637c:	f893 303c 	ldrb.w	r3, [r3, #60]	@ 0x3c
 8006380:	2b01      	cmp	r3, #1
 8006382:	d101      	bne.n	8006388 <HAL_TIMEx_MasterConfigSynchronization+0x18>
 8006384:	2302      	movs	r3, #2
 8006386:	e05a      	b.n	800643e <HAL_TIMEx_MasterConfigSynchronization+0xce>
 8006388:	687b      	ldr	r3, [r7, #4]
 800638a:	2201      	movs	r2, #1
 800638c:	f883 203c 	strb.w	r2, [r3, #60]	@ 0x3c

  /* Change the handler state */
  htim->State = HAL_TIM_STATE_BUSY;
 8006390:	687b      	ldr	r3, [r7, #4]
 8006392:	2202      	movs	r2, #2
 8006394:	f883 203d 	strb.w	r2, [r3, #61]	@ 0x3d

  /* Get the TIMx CR2 register value */
  tmpcr2 = htim->Instance->CR2;
 8006398:	687b      	ldr	r3, [r7, #4]
 800639a:	681b      	ldr	r3, [r3, #0]
 800639c:	685b      	ldr	r3, [r3, #4]
 800639e:	60fb      	str	r3, [r7, #12]

  /* Get the TIMx SMCR register value */
  tmpsmcr = htim->Instance->SMCR;
 80063a0:	687b      	ldr	r3, [r7, #4]
 80063a2:	681b      	ldr	r3, [r3, #0]
 80063a4:	689b      	ldr	r3, [r3, #8]
 80063a6:	60bb      	str	r3, [r7, #8]

  /* Reset the MMS Bits */
  tmpcr2 &= ~TIM_CR2_MMS;
 80063a8:	68fb      	ldr	r3, [r7, #12]
 80063aa:	f023 0370 	bic.w	r3, r3, #112	@ 0x70
 80063ae:	60fb      	str	r3, [r7, #12]
  /* Select the TRGO source */
  tmpcr2 |=  sMasterConfig->MasterOutputTrigger;
 80063b0:	683b      	ldr	r3, [r7, #0]
 80063b2:	681b      	ldr	r3, [r3, #0]
 80063b4:	68fa      	ldr	r2, [r7, #12]
 80063b6:	4313      	orrs	r3, r2
 80063b8:	60fb      	str	r3, [r7, #12]

  /* Update TIMx CR2 */
  htim->Instance->CR2 = tmpcr2;
 80063ba:	687b      	ldr	r3, [r7, #4]
 80063bc:	681b      	ldr	r3, [r3, #0]
 80063be:	68fa      	ldr	r2, [r7, #12]
 80063c0:	605a      	str	r2, [r3, #4]

  if (IS_TIM_SLAVE_INSTANCE(htim->Instance))
 80063c2:	687b      	ldr	r3, [r7, #4]
 80063c4:	681b      	ldr	r3, [r3, #0]
 80063c6:	4a21      	ldr	r2, [pc, #132]	@ (800644c <HAL_TIMEx_MasterConfigSynchronization+0xdc>)
 80063c8:	4293      	cmp	r3, r2
 80063ca:	d022      	beq.n	8006412 <HAL_TIMEx_MasterConfigSynchronization+0xa2>
 80063cc:	687b      	ldr	r3, [r7, #4]
 80063ce:	681b      	ldr	r3, [r3, #0]
 80063d0:	f1b3 4f80 	cmp.w	r3, #1073741824	@ 0x40000000
 80063d4:	d01d      	beq.n	8006412 <HAL_TIMEx_MasterConfigSynchronization+0xa2>
 80063d6:	687b      	ldr	r3, [r7, #4]
 80063d8:	681b      	ldr	r3, [r3, #0]
 80063da:	4a1d      	ldr	r2, [pc, #116]	@ (8006450 <HAL_TIMEx_MasterConfigSynchronization+0xe0>)
 80063dc:	4293      	cmp	r3, r2
 80063de:	d018      	beq.n	8006412 <HAL_TIMEx_MasterConfigSynchronization+0xa2>
 80063e0:	687b      	ldr	r3, [r7, #4]
 80063e2:	681b      	ldr	r3, [r3, #0]
 80063e4:	4a1b      	ldr	r2, [pc, #108]	@ (8006454 <HAL_TIMEx_MasterConfigSynchronization+0xe4>)
 80063e6:	4293      	cmp	r3, r2
 80063e8:	d013      	beq.n	8006412 <HAL_TIMEx_MasterConfigSynchronization+0xa2>
 80063ea:	687b      	ldr	r3, [r7, #4]
 80063ec:	681b      	ldr	r3, [r3, #0]
 80063ee:	4a1a      	ldr	r2, [pc, #104]	@ (8006458 <HAL_TIMEx_MasterConfigSynchronization+0xe8>)
 80063f0:	4293      	cmp	r3, r2
 80063f2:	d00e      	beq.n	8006412 <HAL_TIMEx_MasterConfigSynchronization+0xa2>
 80063f4:	687b      	ldr	r3, [r7, #4]
 80063f6:	681b      	ldr	r3, [r3, #0]
 80063f8:	4a18      	ldr	r2, [pc, #96]	@ (800645c <HAL_TIMEx_MasterConfigSynchronization+0xec>)
 80063fa:	4293      	cmp	r3, r2
 80063fc:	d009      	beq.n	8006412 <HAL_TIMEx_MasterConfigSynchronization+0xa2>
 80063fe:	687b      	ldr	r3, [r7, #4]
 8006400:	681b      	ldr	r3, [r3, #0]
 8006402:	4a17      	ldr	r2, [pc, #92]	@ (8006460 <HAL_TIMEx_MasterConfigSynchronization+0xf0>)
 8006404:	4293      	cmp	r3, r2
 8006406:	d004      	beq.n	8006412 <HAL_TIMEx_MasterConfigSynchronization+0xa2>
 8006408:	687b      	ldr	r3, [r7, #4]
 800640a:	681b      	ldr	r3, [r3, #0]
 800640c:	4a15      	ldr	r2, [pc, #84]	@ (8006464 <HAL_TIMEx_MasterConfigSynchronization+0xf4>)
 800640e:	4293      	cmp	r3, r2
 8006410:	d10c      	bne.n	800642c <HAL_TIMEx_MasterConfigSynchronization+0xbc>
  {
    /* Reset the MSM Bit */
    tmpsmcr &= ~TIM_SMCR_MSM;
 8006412:	68bb      	ldr	r3, [r7, #8]
 8006414:	f023 0380 	bic.w	r3, r3, #128	@ 0x80
 8006418:	60bb      	str	r3, [r7, #8]
    /* Set master mode */
    tmpsmcr |= sMasterConfig->MasterSlaveMode;
 800641a:	683b      	ldr	r3, [r7, #0]
 800641c:	685b      	ldr	r3, [r3, #4]
 800641e:	68ba      	ldr	r2, [r7, #8]
 8006420:	4313      	orrs	r3, r2
 8006422:	60bb      	str	r3, [r7, #8]

    /* Update TIMx SMCR */
    htim->Instance->SMCR = tmpsmcr;
 8006424:	687b      	ldr	r3, [r7, #4]
 8006426:	681b      	ldr	r3, [r3, #0]
 8006428:	68ba      	ldr	r2, [r7, #8]
 800642a:	609a      	str	r2, [r3, #8]
  }

  /* Change the htim state */
  htim->State = HAL_TIM_STATE_READY;
 800642c:	687b      	ldr	r3, [r7, #4]
 800642e:	2201      	movs	r2, #1
 8006430:	f883 203d 	strb.w	r2, [r3, #61]	@ 0x3d

  __HAL_UNLOCK(htim);
 8006434:	687b      	ldr	r3, [r7, #4]
 8006436:	2200      	movs	r2, #0
 8006438:	f883 203c 	strb.w	r2, [r3, #60]	@ 0x3c

  return HAL_OK;
 800643c:	2300      	movs	r3, #0
}
 800643e:	4618      	mov	r0, r3
 8006440:	3714      	adds	r7, #20
 8006442:	46bd      	mov	sp, r7
 8006444:	f85d 7b04 	ldr.w	r7, [sp], #4
 8006448:	4770      	bx	lr
 800644a:	bf00      	nop
 800644c:	40010000 	.word	0x40010000
 8006450:	40000400 	.word	0x40000400
 8006454:	40000800 	.word	0x40000800
 8006458:	40000c00 	.word	0x40000c00
 800645c:	40010400 	.word	0x40010400
 8006460:	40014000 	.word	0x40014000
 8006464:	40001800 	.word	0x40001800

08006468 <HAL_TIMEx_CommutCallback>:
  * @brief  Commutation callback in non-blocking mode
  * @param  htim TIM handle
  * @retval None
  */
__weak void HAL_TIMEx_CommutCallback(TIM_HandleTypeDef *htim)
{
 8006468:	b480      	push	{r7}
 800646a:	b083      	sub	sp, #12
 800646c:	af00      	add	r7, sp, #0
 800646e:	6078      	str	r0, [r7, #4]
  UNUSED(htim);

  /* NOTE : This function should not be modified, when the callback is needed,
            the HAL_TIMEx_CommutCallback could be implemented in the user file
   */
}
 8006470:	bf00      	nop
 8006472:	370c      	adds	r7, #12
 8006474:	46bd      	mov	sp, r7
 8006476:	f85d 7b04 	ldr.w	r7, [sp], #4
 800647a:	4770      	bx	lr

0800647c <HAL_TIMEx_BreakCallback>:
  * @brief  Break detection callback in non-blocking mode
  * @param  htim TIM handle
  * @retval None
  */
__weak void HAL_TIMEx_BreakCallback(TIM_HandleTypeDef *htim)
{
 800647c:	b480      	push	{r7}
 800647e:	b083      	sub	sp, #12
 8006480:	af00      	add	r7, sp, #0
 8006482:	6078      	str	r0, [r7, #4]
  UNUSED(htim);

  /* NOTE : This function should not be modified, when the callback is needed,
            the HAL_TIMEx_BreakCallback could be implemented in the user file
   */
}
 8006484:	bf00      	nop
 8006486:	370c      	adds	r7, #12
 8006488:	46bd      	mov	sp, r7
 800648a:	f85d 7b04 	ldr.w	r7, [sp], #4
 800648e:	4770      	bx	lr

08006490 <HAL_UART_Init>:
  * @param  huart  Pointer to a UART_HandleTypeDef structure that contains
  *                the configuration information for the specified UART module.
  * @retval HAL status
  */
HAL_StatusTypeDef HAL_UART_Init(UART_HandleTypeDef *huart)
{
 8006490:	b580      	push	{r7, lr}
 8006492:	b082      	sub	sp, #8
 8006494:	af00      	add	r7, sp, #0
 8006496:	6078      	str	r0, [r7, #4]
  /* Check the UART handle allocation */
  if (huart == NULL)
 8006498:	687b      	ldr	r3, [r7, #4]
 800649a:	2b00      	cmp	r3, #0
 800649c:	d101      	bne.n	80064a2 <HAL_UART_Init+0x12>
  {
    return HAL_ERROR;
 800649e:	2301      	movs	r3, #1
 80064a0:	e042      	b.n	8006528 <HAL_UART_Init+0x98>
    assert_param(IS_UART_INSTANCE(huart->Instance));
  }
  assert_param(IS_UART_WORD_LENGTH(huart->Init.WordLength));
  assert_param(IS_UART_OVERSAMPLING(huart->Init.OverSampling));

  if (huart->gState == HAL_UART_STATE_RESET)
 80064a2:	687b      	ldr	r3, [r7, #4]
 80064a4:	f893 3041 	ldrb.w	r3, [r3, #65]	@ 0x41
 80064a8:	b2db      	uxtb	r3, r3
 80064aa:	2b00      	cmp	r3, #0
 80064ac:	d106      	bne.n	80064bc <HAL_UART_Init+0x2c>
  {
    /* Allocate lock resource and initialize it */
    huart->Lock = HAL_UNLOCKED;
 80064ae:	687b      	ldr	r3, [r7, #4]
 80064b0:	2200      	movs	r2, #0
 80064b2:	f883 2040 	strb.w	r2, [r3, #64]	@ 0x40

    /* Init the low level hardware */
    huart->MspInitCallback(huart);
#else
    /* Init the low level hardware : GPIO, CLOCK */
    HAL_UART_MspInit(huart);
 80064b6:	6878      	ldr	r0, [r7, #4]
 80064b8:	f7fd f9e0 	bl	800387c <HAL_UART_MspInit>
#endif /* (USE_HAL_UART_REGISTER_CALLBACKS) */
  }

  huart->gState = HAL_UART_STATE_BUSY;
 80064bc:	687b      	ldr	r3, [r7, #4]
 80064be:	2224      	movs	r2, #36	@ 0x24
 80064c0:	f883 2041 	strb.w	r2, [r3, #65]	@ 0x41

  /* Disable the peripheral */
  __HAL_UART_DISABLE(huart);
 80064c4:	687b      	ldr	r3, [r7, #4]
 80064c6:	681b      	ldr	r3, [r3, #0]
 80064c8:	68da      	ldr	r2, [r3, #12]
 80064ca:	687b      	ldr	r3, [r7, #4]
 80064cc:	681b      	ldr	r3, [r3, #0]
 80064ce:	f422 5200 	bic.w	r2, r2, #8192	@ 0x2000
 80064d2:	60da      	str	r2, [r3, #12]

  /* Set the UART Communication parameters */
  UART_SetConfig(huart);
 80064d4:	6878      	ldr	r0, [r7, #4]
 80064d6:	f000 fc95 	bl	8006e04 <UART_SetConfig>

  /* In asynchronous mode, the following bits must be kept cleared:
     - LINEN and CLKEN bits in the USART_CR2 register,
     - SCEN, HDSEL and IREN  bits in the USART_CR3 register.*/
  CLEAR_BIT(huart->Instance->CR2, (USART_CR2_LINEN | USART_CR2_CLKEN));
 80064da:	687b      	ldr	r3, [r7, #4]
 80064dc:	681b      	ldr	r3, [r3, #0]
 80064de:	691a      	ldr	r2, [r3, #16]
 80064e0:	687b      	ldr	r3, [r7, #4]
 80064e2:	681b      	ldr	r3, [r3, #0]
 80064e4:	f422 4290 	bic.w	r2, r2, #18432	@ 0x4800
 80064e8:	611a      	str	r2, [r3, #16]
  CLEAR_BIT(huart->Instance->CR3, (USART_CR3_SCEN | USART_CR3_HDSEL | USART_CR3_IREN));
 80064ea:	687b      	ldr	r3, [r7, #4]
 80064ec:	681b      	ldr	r3, [r3, #0]
 80064ee:	695a      	ldr	r2, [r3, #20]
 80064f0:	687b      	ldr	r3, [r7, #4]
 80064f2:	681b      	ldr	r3, [r3, #0]
 80064f4:	f022 022a 	bic.w	r2, r2, #42	@ 0x2a
 80064f8:	615a      	str	r2, [r3, #20]

  /* Enable the peripheral */
  __HAL_UART_ENABLE(huart);
 80064fa:	687b      	ldr	r3, [r7, #4]
 80064fc:	681b      	ldr	r3, [r3, #0]
 80064fe:	68da      	ldr	r2, [r3, #12]
 8006500:	687b      	ldr	r3, [r7, #4]
 8006502:	681b      	ldr	r3, [r3, #0]
 8006504:	f442 5200 	orr.w	r2, r2, #8192	@ 0x2000
 8006508:	60da      	str	r2, [r3, #12]

  /* Initialize the UART state */
  huart->ErrorCode = HAL_UART_ERROR_NONE;
 800650a:	687b      	ldr	r3, [r7, #4]
 800650c:	2200      	movs	r2, #0
 800650e:	645a      	str	r2, [r3, #68]	@ 0x44
  huart->gState = HAL_UART_STATE_READY;
 8006510:	687b      	ldr	r3, [r7, #4]
 8006512:	2220      	movs	r2, #32
 8006514:	f883 2041 	strb.w	r2, [r3, #65]	@ 0x41
  huart->RxState = HAL_UART_STATE_READY;
 8006518:	687b      	ldr	r3, [r7, #4]
 800651a:	2220      	movs	r2, #32
 800651c:	f883 2042 	strb.w	r2, [r3, #66]	@ 0x42
  huart->RxEventType = HAL_UART_RXEVENT_TC;
 8006520:	687b      	ldr	r3, [r7, #4]
 8006522:	2200      	movs	r2, #0
 8006524:	635a      	str	r2, [r3, #52]	@ 0x34

  return HAL_OK;
 8006526:	2300      	movs	r3, #0
}
 8006528:	4618      	mov	r0, r3
 800652a:	3708      	adds	r7, #8
 800652c:	46bd      	mov	sp, r7
 800652e:	bd80      	pop	{r7, pc}

08006530 <HAL_UART_DeInit>:
  * @param  huart  Pointer to a UART_HandleTypeDef structure that contains
  *                the configuration information for the specified UART module.
  * @retval HAL status
  */
HAL_StatusTypeDef HAL_UART_DeInit(UART_HandleTypeDef *huart)
{
 8006530:	b580      	push	{r7, lr}
 8006532:	b082      	sub	sp, #8
 8006534:	af00      	add	r7, sp, #0
 8006536:	6078      	str	r0, [r7, #4]
  /* Check the UART handle allocation */
  if (huart == NULL)
 8006538:	687b      	ldr	r3, [r7, #4]
 800653a:	2b00      	cmp	r3, #0
 800653c:	d101      	bne.n	8006542 <HAL_UART_DeInit+0x12>
  {
    return HAL_ERROR;
 800653e:	2301      	movs	r3, #1
 8006540:	e024      	b.n	800658c <HAL_UART_DeInit+0x5c>
  }

  /* Check the parameters */
  assert_param(IS_UART_INSTANCE(huart->Instance));

  huart->gState = HAL_UART_STATE_BUSY;
 8006542:	687b      	ldr	r3, [r7, #4]
 8006544:	2224      	movs	r2, #36	@ 0x24
 8006546:	f883 2041 	strb.w	r2, [r3, #65]	@ 0x41

  /* Disable the Peripheral */
  __HAL_UART_DISABLE(huart);
 800654a:	687b      	ldr	r3, [r7, #4]
 800654c:	681b      	ldr	r3, [r3, #0]
 800654e:	68da      	ldr	r2, [r3, #12]
 8006550:	687b      	ldr	r3, [r7, #4]
 8006552:	681b      	ldr	r3, [r3, #0]
 8006554:	f422 5200 	bic.w	r2, r2, #8192	@ 0x2000
 8006558:	60da      	str	r2, [r3, #12]
  }
  /* DeInit the low level hardware */
  huart->MspDeInitCallback(huart);
#else
  /* DeInit the low level hardware */
  HAL_UART_MspDeInit(huart);
 800655a:	6878      	ldr	r0, [r7, #4]
 800655c:	f7fd fa92 	bl	8003a84 <HAL_UART_MspDeInit>
#endif /* (USE_HAL_UART_REGISTER_CALLBACKS) */

  huart->ErrorCode = HAL_UART_ERROR_NONE;
 8006560:	687b      	ldr	r3, [r7, #4]
 8006562:	2200      	movs	r2, #0
 8006564:	645a      	str	r2, [r3, #68]	@ 0x44
  huart->gState = HAL_UART_STATE_RESET;
 8006566:	687b      	ldr	r3, [r7, #4]
 8006568:	2200      	movs	r2, #0
 800656a:	f883 2041 	strb.w	r2, [r3, #65]	@ 0x41
  huart->RxState = HAL_UART_STATE_RESET;
 800656e:	687b      	ldr	r3, [r7, #4]
 8006570:	2200      	movs	r2, #0
 8006572:	f883 2042 	strb.w	r2, [r3, #66]	@ 0x42
  huart->ReceptionType = HAL_UART_RECEPTION_STANDARD;
 8006576:	687b      	ldr	r3, [r7, #4]
 8006578:	2200      	movs	r2, #0
 800657a:	631a      	str	r2, [r3, #48]	@ 0x30
  huart->RxEventType = HAL_UART_RXEVENT_TC;
 800657c:	687b      	ldr	r3, [r7, #4]
 800657e:	2200      	movs	r2, #0
 8006580:	635a      	str	r2, [r3, #52]	@ 0x34

  /* Process Unlock */
  __HAL_UNLOCK(huart);
 8006582:	687b      	ldr	r3, [r7, #4]
 8006584:	2200      	movs	r2, #0
 8006586:	f883 2040 	strb.w	r2, [r3, #64]	@ 0x40

  return HAL_OK;
 800658a:	2300      	movs	r3, #0
}
 800658c:	4618      	mov	r0, r3
 800658e:	3708      	adds	r7, #8
 8006590:	46bd      	mov	sp, r7
 8006592:	bd80      	pop	{r7, pc}

08006594 <HAL_UART_Transmit>:
  * @param  Size  Amount of data elements (u8 or u16) to be sent
  * @param  Timeout Timeout duration
  * @retval HAL status
  */
HAL_StatusTypeDef HAL_UART_Transmit(UART_HandleTypeDef *huart, const uint8_t *pData, uint16_t Size, uint32_t Timeout)
{
 8006594:	b580      	push	{r7, lr}
 8006596:	b08a      	sub	sp, #40	@ 0x28
 8006598:	af02      	add	r7, sp, #8
 800659a:	60f8      	str	r0, [r7, #12]
 800659c:	60b9      	str	r1, [r7, #8]
 800659e:	603b      	str	r3, [r7, #0]
 80065a0:	4613      	mov	r3, r2
 80065a2:	80fb      	strh	r3, [r7, #6]
  const uint8_t  *pdata8bits;
  const uint16_t *pdata16bits;
  uint32_t tickstart = 0U;
 80065a4:	2300      	movs	r3, #0
 80065a6:	617b      	str	r3, [r7, #20]

  /* Check that a Tx process is not already ongoing */
  if (huart->gState == HAL_UART_STATE_READY)
 80065a8:	68fb      	ldr	r3, [r7, #12]
 80065aa:	f893 3041 	ldrb.w	r3, [r3, #65]	@ 0x41
 80065ae:	b2db      	uxtb	r3, r3
 80065b0:	2b20      	cmp	r3, #32
 80065b2:	d175      	bne.n	80066a0 <HAL_UART_Transmit+0x10c>
  {
    if ((pData == NULL) || (Size == 0U))
 80065b4:	68bb      	ldr	r3, [r7, #8]
 80065b6:	2b00      	cmp	r3, #0
 80065b8:	d002      	beq.n	80065c0 <HAL_UART_Transmit+0x2c>
 80065ba:	88fb      	ldrh	r3, [r7, #6]
 80065bc:	2b00      	cmp	r3, #0
 80065be:	d101      	bne.n	80065c4 <HAL_UART_Transmit+0x30>
    {
      return  HAL_ERROR;
 80065c0:	2301      	movs	r3, #1
 80065c2:	e06e      	b.n	80066a2 <HAL_UART_Transmit+0x10e>
    }

    huart->ErrorCode = HAL_UART_ERROR_NONE;
 80065c4:	68fb      	ldr	r3, [r7, #12]
 80065c6:	2200      	movs	r2, #0
 80065c8:	645a      	str	r2, [r3, #68]	@ 0x44
    huart->gState = HAL_UART_STATE_BUSY_TX;
 80065ca:	68fb      	ldr	r3, [r7, #12]
 80065cc:	2221      	movs	r2, #33	@ 0x21
 80065ce:	f883 2041 	strb.w	r2, [r3, #65]	@ 0x41

    /* Init tickstart for timeout management */
    tickstart = HAL_GetTick();
 80065d2:	f7fd fc79 	bl	8003ec8 <HAL_GetTick>
 80065d6:	6178      	str	r0, [r7, #20]

    huart->TxXferSize = Size;
 80065d8:	68fb      	ldr	r3, [r7, #12]
 80065da:	88fa      	ldrh	r2, [r7, #6]
 80065dc:	849a      	strh	r2, [r3, #36]	@ 0x24
    huart->TxXferCount = Size;
 80065de:	68fb      	ldr	r3, [r7, #12]
 80065e0:	88fa      	ldrh	r2, [r7, #6]
 80065e2:	84da      	strh	r2, [r3, #38]	@ 0x26

    /* In case of 9bits/No Parity transfer, pData needs to be handled as a uint16_t pointer */
    if ((huart->Init.WordLength == UART_WORDLENGTH_9B) && (huart->Init.Parity == UART_PARITY_NONE))
 80065e4:	68fb      	ldr	r3, [r7, #12]
 80065e6:	689b      	ldr	r3, [r3, #8]
 80065e8:	f5b3 5f80 	cmp.w	r3, #4096	@ 0x1000
 80065ec:	d108      	bne.n	8006600 <HAL_UART_Transmit+0x6c>
 80065ee:	68fb      	ldr	r3, [r7, #12]
 80065f0:	691b      	ldr	r3, [r3, #16]
 80065f2:	2b00      	cmp	r3, #0
 80065f4:	d104      	bne.n	8006600 <HAL_UART_Transmit+0x6c>
    {
      pdata8bits  = NULL;
 80065f6:	2300      	movs	r3, #0
 80065f8:	61fb      	str	r3, [r7, #28]
      pdata16bits = (const uint16_t *) pData;
 80065fa:	68bb      	ldr	r3, [r7, #8]
 80065fc:	61bb      	str	r3, [r7, #24]
 80065fe:	e003      	b.n	8006608 <HAL_UART_Transmit+0x74>
    }
    else
    {
      pdata8bits  = pData;
 8006600:	68bb      	ldr	r3, [r7, #8]
 8006602:	61fb      	str	r3, [r7, #28]
      pdata16bits = NULL;
 8006604:	2300      	movs	r3, #0
 8006606:	61bb      	str	r3, [r7, #24]
    }

    while (huart->TxXferCount > 0U)
 8006608:	e02e      	b.n	8006668 <HAL_UART_Transmit+0xd4>
    {
      if (UART_WaitOnFlagUntilTimeout(huart, UART_FLAG_TXE, RESET, tickstart, Timeout) != HAL_OK)
 800660a:	683b      	ldr	r3, [r7, #0]
 800660c:	9300      	str	r3, [sp, #0]
 800660e:	697b      	ldr	r3, [r7, #20]
 8006610:	2200      	movs	r2, #0
 8006612:	2180      	movs	r1, #128	@ 0x80
 8006614:	68f8      	ldr	r0, [r7, #12]
 8006616:	f000 fa2f 	bl	8006a78 <UART_WaitOnFlagUntilTimeout>
 800661a:	4603      	mov	r3, r0
 800661c:	2b00      	cmp	r3, #0
 800661e:	d005      	beq.n	800662c <HAL_UART_Transmit+0x98>
      {
        huart->gState = HAL_UART_STATE_READY;
 8006620:	68fb      	ldr	r3, [r7, #12]
 8006622:	2220      	movs	r2, #32
 8006624:	f883 2041 	strb.w	r2, [r3, #65]	@ 0x41

        return HAL_TIMEOUT;
 8006628:	2303      	movs	r3, #3
 800662a:	e03a      	b.n	80066a2 <HAL_UART_Transmit+0x10e>
      }
      if (pdata8bits == NULL)
 800662c:	69fb      	ldr	r3, [r7, #28]
 800662e:	2b00      	cmp	r3, #0
 8006630:	d10b      	bne.n	800664a <HAL_UART_Transmit+0xb6>
      {
        huart->Instance->DR = (uint16_t)(*pdata16bits & 0x01FFU);
 8006632:	69bb      	ldr	r3, [r7, #24]
 8006634:	881b      	ldrh	r3, [r3, #0]
 8006636:	461a      	mov	r2, r3
 8006638:	68fb      	ldr	r3, [r7, #12]
 800663a:	681b      	ldr	r3, [r3, #0]
 800663c:	f3c2 0208 	ubfx	r2, r2, #0, #9
 8006640:	605a      	str	r2, [r3, #4]
        pdata16bits++;
 8006642:	69bb      	ldr	r3, [r7, #24]
 8006644:	3302      	adds	r3, #2
 8006646:	61bb      	str	r3, [r7, #24]
 8006648:	e007      	b.n	800665a <HAL_UART_Transmit+0xc6>
      }
      else
      {
        huart->Instance->DR = (uint8_t)(*pdata8bits & 0xFFU);
 800664a:	69fb      	ldr	r3, [r7, #28]
 800664c:	781a      	ldrb	r2, [r3, #0]
 800664e:	68fb      	ldr	r3, [r7, #12]
 8006650:	681b      	ldr	r3, [r3, #0]
 8006652:	605a      	str	r2, [r3, #4]
        pdata8bits++;
 8006654:	69fb      	ldr	r3, [r7, #28]
 8006656:	3301      	adds	r3, #1
 8006658:	61fb      	str	r3, [r7, #28]
      }
      huart->TxXferCount--;
 800665a:	68fb      	ldr	r3, [r7, #12]
 800665c:	8cdb      	ldrh	r3, [r3, #38]	@ 0x26
 800665e:	b29b      	uxth	r3, r3
 8006660:	3b01      	subs	r3, #1
 8006662:	b29a      	uxth	r2, r3
 8006664:	68fb      	ldr	r3, [r7, #12]
 8006666:	84da      	strh	r2, [r3, #38]	@ 0x26
    while (huart->TxXferCount > 0U)
 8006668:	68fb      	ldr	r3, [r7, #12]
 800666a:	8cdb      	ldrh	r3, [r3, #38]	@ 0x26
 800666c:	b29b      	uxth	r3, r3
 800666e:	2b00      	cmp	r3, #0
 8006670:	d1cb      	bne.n	800660a <HAL_UART_Transmit+0x76>
    }

    if (UART_WaitOnFlagUntilTimeout(huart, UART_FLAG_TC, RESET, tickstart, Timeout) != HAL_OK)
 8006672:	683b      	ldr	r3, [r7, #0]
 8006674:	9300      	str	r3, [sp, #0]
 8006676:	697b      	ldr	r3, [r7, #20]
 8006678:	2200      	movs	r2, #0
 800667a:	2140      	movs	r1, #64	@ 0x40
 800667c:	68f8      	ldr	r0, [r7, #12]
 800667e:	f000 f9fb 	bl	8006a78 <UART_WaitOnFlagUntilTimeout>
 8006682:	4603      	mov	r3, r0
 8006684:	2b00      	cmp	r3, #0
 8006686:	d005      	beq.n	8006694 <HAL_UART_Transmit+0x100>
    {
      huart->gState = HAL_UART_STATE_READY;
 8006688:	68fb      	ldr	r3, [r7, #12]
 800668a:	2220      	movs	r2, #32
 800668c:	f883 2041 	strb.w	r2, [r3, #65]	@ 0x41

      return HAL_TIMEOUT;
 8006690:	2303      	movs	r3, #3
 8006692:	e006      	b.n	80066a2 <HAL_UART_Transmit+0x10e>
    }

    /* At end of Tx process, restore huart->gState to Ready */
    huart->gState = HAL_UART_STATE_READY;
 8006694:	68fb      	ldr	r3, [r7, #12]
 8006696:	2220      	movs	r2, #32
 8006698:	f883 2041 	strb.w	r2, [r3, #65]	@ 0x41

    return HAL_OK;
 800669c:	2300      	movs	r3, #0
 800669e:	e000      	b.n	80066a2 <HAL_UART_Transmit+0x10e>
  }
  else
  {
    return HAL_BUSY;
 80066a0:	2302      	movs	r3, #2
  }
}
 80066a2:	4618      	mov	r0, r3
 80066a4:	3720      	adds	r7, #32
 80066a6:	46bd      	mov	sp, r7
 80066a8:	bd80      	pop	{r7, pc}

080066aa <HAL_UART_Receive_IT>:
  * @param  pData Pointer to data buffer (u8 or u16 data elements).
  * @param  Size  Amount of data elements (u8 or u16) to be received.
  * @retval HAL status
  */
HAL_StatusTypeDef HAL_UART_Receive_IT(UART_HandleTypeDef *huart, uint8_t *pData, uint16_t Size)
{
 80066aa:	b580      	push	{r7, lr}
 80066ac:	b084      	sub	sp, #16
 80066ae:	af00      	add	r7, sp, #0
 80066b0:	60f8      	str	r0, [r7, #12]
 80066b2:	60b9      	str	r1, [r7, #8]
 80066b4:	4613      	mov	r3, r2
 80066b6:	80fb      	strh	r3, [r7, #6]
  /* Check that a Rx process is not already ongoing */
  if (huart->RxState == HAL_UART_STATE_READY)
 80066b8:	68fb      	ldr	r3, [r7, #12]
 80066ba:	f893 3042 	ldrb.w	r3, [r3, #66]	@ 0x42
 80066be:	b2db      	uxtb	r3, r3
 80066c0:	2b20      	cmp	r3, #32
 80066c2:	d112      	bne.n	80066ea <HAL_UART_Receive_IT+0x40>
  {
    if ((pData == NULL) || (Size == 0U))
 80066c4:	68bb      	ldr	r3, [r7, #8]
 80066c6:	2b00      	cmp	r3, #0
 80066c8:	d002      	beq.n	80066d0 <HAL_UART_Receive_IT+0x26>
 80066ca:	88fb      	ldrh	r3, [r7, #6]
 80066cc:	2b00      	cmp	r3, #0
 80066ce:	d101      	bne.n	80066d4 <HAL_UART_Receive_IT+0x2a>
    {
      return HAL_ERROR;
 80066d0:	2301      	movs	r3, #1
 80066d2:	e00b      	b.n	80066ec <HAL_UART_Receive_IT+0x42>
    }

    /* Set Reception type to Standard reception */
    huart->ReceptionType = HAL_UART_RECEPTION_STANDARD;
 80066d4:	68fb      	ldr	r3, [r7, #12]
 80066d6:	2200      	movs	r2, #0
 80066d8:	631a      	str	r2, [r3, #48]	@ 0x30

    return (UART_Start_Receive_IT(huart, pData, Size));
 80066da:	88fb      	ldrh	r3, [r7, #6]
 80066dc:	461a      	mov	r2, r3
 80066de:	68b9      	ldr	r1, [r7, #8]
 80066e0:	68f8      	ldr	r0, [r7, #12]
 80066e2:	f000 fa22 	bl	8006b2a <UART_Start_Receive_IT>
 80066e6:	4603      	mov	r3, r0
 80066e8:	e000      	b.n	80066ec <HAL_UART_Receive_IT+0x42>
  }
  else
  {
    return HAL_BUSY;
 80066ea:	2302      	movs	r3, #2
  }
}
 80066ec:	4618      	mov	r0, r3
 80066ee:	3710      	adds	r7, #16
 80066f0:	46bd      	mov	sp, r7
 80066f2:	bd80      	pop	{r7, pc}

080066f4 <HAL_UART_Receive_DMA>:
  * @param  Size  Amount of data elements (u8 or u16) to be received.
  * @note   When the UART parity is enabled (PCE = 1) the received data contains the parity bit.
  * @retval HAL status
  */
HAL_StatusTypeDef HAL_UART_Receive_DMA(UART_HandleTypeDef *huart, uint8_t *pData, uint16_t Size)
{
 80066f4:	b580      	push	{r7, lr}
 80066f6:	b084      	sub	sp, #16
 80066f8:	af00      	add	r7, sp, #0
 80066fa:	60f8      	str	r0, [r7, #12]
 80066fc:	60b9      	str	r1, [r7, #8]
 80066fe:	4613      	mov	r3, r2
 8006700:	80fb      	strh	r3, [r7, #6]
  /* Check that a Rx process is not already ongoing */
  if (huart->RxState == HAL_UART_STATE_READY)
 8006702:	68fb      	ldr	r3, [r7, #12]
 8006704:	f893 3042 	ldrb.w	r3, [r3, #66]	@ 0x42
 8006708:	b2db      	uxtb	r3, r3
 800670a:	2b20      	cmp	r3, #32
 800670c:	d112      	bne.n	8006734 <HAL_UART_Receive_DMA+0x40>
  {
    if ((pData == NULL) || (Size == 0U))
 800670e:	68bb      	ldr	r3, [r7, #8]
 8006710:	2b00      	cmp	r3, #0
 8006712:	d002      	beq.n	800671a <HAL_UART_Receive_DMA+0x26>
 8006714:	88fb      	ldrh	r3, [r7, #6]
 8006716:	2b00      	cmp	r3, #0
 8006718:	d101      	bne.n	800671e <HAL_UART_Receive_DMA+0x2a>
    {
      return HAL_ERROR;
 800671a:	2301      	movs	r3, #1
 800671c:	e00b      	b.n	8006736 <HAL_UART_Receive_DMA+0x42>
    }

    /* Set Reception type to Standard reception */
    huart->ReceptionType = HAL_UART_RECEPTION_STANDARD;
 800671e:	68fb      	ldr	r3, [r7, #12]
 8006720:	2200      	movs	r2, #0
 8006722:	631a      	str	r2, [r3, #48]	@ 0x30

    return (UART_Start_Receive_DMA(huart, pData, Size));
 8006724:	88fb      	ldrh	r3, [r7, #6]
 8006726:	461a      	mov	r2, r3
 8006728:	68b9      	ldr	r1, [r7, #8]
 800672a:	68f8      	ldr	r0, [r7, #12]
 800672c:	f000 fa38 	bl	8006ba0 <UART_Start_Receive_DMA>
 8006730:	4603      	mov	r3, r0
 8006732:	e000      	b.n	8006736 <HAL_UART_Receive_DMA+0x42>
  }
  else
  {
    return HAL_BUSY;
 8006734:	2302      	movs	r3, #2
  }
}
 8006736:	4618      	mov	r0, r3
 8006738:	3710      	adds	r7, #16
 800673a:	46bd      	mov	sp, r7
 800673c:	bd80      	pop	{r7, pc}

0800673e <HAL_UART_DMAStop>:
  * @param  huart  Pointer to a UART_HandleTypeDef structure that contains
  *                the configuration information for the specified UART module.
  * @retval HAL status
  */
HAL_StatusTypeDef HAL_UART_DMAStop(UART_HandleTypeDef *huart)
{
 800673e:	b580      	push	{r7, lr}
 8006740:	b090      	sub	sp, #64	@ 0x40
 8006742:	af00      	add	r7, sp, #0
 8006744:	6078      	str	r0, [r7, #4]
  uint32_t dmarequest = 0x00U;
 8006746:	2300      	movs	r3, #0
 8006748:	63fb      	str	r3, [r7, #60]	@ 0x3c
     when calling HAL_DMA_Abort() API the DMA TX/RX Transfer complete interrupt is generated
     and the correspond call back is executed HAL_UART_TxCpltCallback() / HAL_UART_RxCpltCallback()
     */

  /* Stop UART DMA Tx request if ongoing */
  dmarequest = HAL_IS_BIT_SET(huart->Instance->CR3, USART_CR3_DMAT);
 800674a:	687b      	ldr	r3, [r7, #4]
 800674c:	681b      	ldr	r3, [r3, #0]
 800674e:	695b      	ldr	r3, [r3, #20]
 8006750:	f003 0380 	and.w	r3, r3, #128	@ 0x80
 8006754:	2b80      	cmp	r3, #128	@ 0x80
 8006756:	bf0c      	ite	eq
 8006758:	2301      	moveq	r3, #1
 800675a:	2300      	movne	r3, #0
 800675c:	b2db      	uxtb	r3, r3
 800675e:	63fb      	str	r3, [r7, #60]	@ 0x3c
  if ((huart->gState == HAL_UART_STATE_BUSY_TX) && dmarequest)
 8006760:	687b      	ldr	r3, [r7, #4]
 8006762:	f893 3041 	ldrb.w	r3, [r3, #65]	@ 0x41
 8006766:	b2db      	uxtb	r3, r3
 8006768:	2b21      	cmp	r3, #33	@ 0x21
 800676a:	d128      	bne.n	80067be <HAL_UART_DMAStop+0x80>
 800676c:	6bfb      	ldr	r3, [r7, #60]	@ 0x3c
 800676e:	2b00      	cmp	r3, #0
 8006770:	d025      	beq.n	80067be <HAL_UART_DMAStop+0x80>
  {
    ATOMIC_CLEAR_BIT(huart->Instance->CR3, USART_CR3_DMAT);
 8006772:	687b      	ldr	r3, [r7, #4]
 8006774:	681b      	ldr	r3, [r3, #0]
 8006776:	3314      	adds	r3, #20
 8006778:	627b      	str	r3, [r7, #36]	@ 0x24
   __ASM volatile ("ldrex %0, %1" : "=r" (result) : "Q" (*addr) );
 800677a:	6a7b      	ldr	r3, [r7, #36]	@ 0x24
 800677c:	e853 3f00 	ldrex	r3, [r3]
 8006780:	623b      	str	r3, [r7, #32]
   return(result);
 8006782:	6a3b      	ldr	r3, [r7, #32]
 8006784:	f023 0380 	bic.w	r3, r3, #128	@ 0x80
 8006788:	63bb      	str	r3, [r7, #56]	@ 0x38
 800678a:	687b      	ldr	r3, [r7, #4]
 800678c:	681b      	ldr	r3, [r3, #0]
 800678e:	3314      	adds	r3, #20
 8006790:	6bba      	ldr	r2, [r7, #56]	@ 0x38
 8006792:	633a      	str	r2, [r7, #48]	@ 0x30
 8006794:	62fb      	str	r3, [r7, #44]	@ 0x2c
   __ASM volatile ("strex %0, %2, %1" : "=&r" (result), "=Q" (*addr) : "r" (value) );
 8006796:	6af9      	ldr	r1, [r7, #44]	@ 0x2c
 8006798:	6b3a      	ldr	r2, [r7, #48]	@ 0x30
 800679a:	e841 2300 	strex	r3, r2, [r1]
 800679e:	62bb      	str	r3, [r7, #40]	@ 0x28
   return(result);
 80067a0:	6abb      	ldr	r3, [r7, #40]	@ 0x28
 80067a2:	2b00      	cmp	r3, #0
 80067a4:	d1e5      	bne.n	8006772 <HAL_UART_DMAStop+0x34>

    /* Abort the UART DMA Tx stream */
    if (huart->hdmatx != NULL)
 80067a6:	687b      	ldr	r3, [r7, #4]
 80067a8:	6b9b      	ldr	r3, [r3, #56]	@ 0x38
 80067aa:	2b00      	cmp	r3, #0
 80067ac:	d004      	beq.n	80067b8 <HAL_UART_DMAStop+0x7a>
    {
      HAL_DMA_Abort(huart->hdmatx);
 80067ae:	687b      	ldr	r3, [r7, #4]
 80067b0:	6b9b      	ldr	r3, [r3, #56]	@ 0x38
 80067b2:	4618      	mov	r0, r3
 80067b4:	f7fd fdfe 	bl	80043b4 <HAL_DMA_Abort>
    }
    UART_EndTxTransfer(huart);
 80067b8:	6878      	ldr	r0, [r7, #4]
 80067ba:	f000 fa97 	bl	8006cec <UART_EndTxTransfer>
  }

  /* Stop UART DMA Rx request if ongoing */
  dmarequest = HAL_IS_BIT_SET(huart->Instance->CR3, USART_CR3_DMAR);
 80067be:	687b      	ldr	r3, [r7, #4]
 80067c0:	681b      	ldr	r3, [r3, #0]
 80067c2:	695b      	ldr	r3, [r3, #20]
 80067c4:	f003 0340 	and.w	r3, r3, #64	@ 0x40
 80067c8:	2b40      	cmp	r3, #64	@ 0x40
 80067ca:	bf0c      	ite	eq
 80067cc:	2301      	moveq	r3, #1
 80067ce:	2300      	movne	r3, #0
 80067d0:	b2db      	uxtb	r3, r3
 80067d2:	63fb      	str	r3, [r7, #60]	@ 0x3c
  if ((huart->RxState == HAL_UART_STATE_BUSY_RX) && dmarequest)
 80067d4:	687b      	ldr	r3, [r7, #4]
 80067d6:	f893 3042 	ldrb.w	r3, [r3, #66]	@ 0x42
 80067da:	b2db      	uxtb	r3, r3
 80067dc:	2b22      	cmp	r3, #34	@ 0x22
 80067de:	d128      	bne.n	8006832 <HAL_UART_DMAStop+0xf4>
 80067e0:	6bfb      	ldr	r3, [r7, #60]	@ 0x3c
 80067e2:	2b00      	cmp	r3, #0
 80067e4:	d025      	beq.n	8006832 <HAL_UART_DMAStop+0xf4>
  {
    ATOMIC_CLEAR_BIT(huart->Instance->CR3, USART_CR3_DMAR);
 80067e6:	687b      	ldr	r3, [r7, #4]
 80067e8:	681b      	ldr	r3, [r3, #0]
 80067ea:	3314      	adds	r3, #20
 80067ec:	613b      	str	r3, [r7, #16]
   __ASM volatile ("ldrex %0, %1" : "=r" (result) : "Q" (*addr) );
 80067ee:	693b      	ldr	r3, [r7, #16]
 80067f0:	e853 3f00 	ldrex	r3, [r3]
 80067f4:	60fb      	str	r3, [r7, #12]
   return(result);
 80067f6:	68fb      	ldr	r3, [r7, #12]
 80067f8:	f023 0340 	bic.w	r3, r3, #64	@ 0x40
 80067fc:	637b      	str	r3, [r7, #52]	@ 0x34
 80067fe:	687b      	ldr	r3, [r7, #4]
 8006800:	681b      	ldr	r3, [r3, #0]
 8006802:	3314      	adds	r3, #20
 8006804:	6b7a      	ldr	r2, [r7, #52]	@ 0x34
 8006806:	61fa      	str	r2, [r7, #28]
 8006808:	61bb      	str	r3, [r7, #24]
   __ASM volatile ("strex %0, %2, %1" : "=&r" (result), "=Q" (*addr) : "r" (value) );
 800680a:	69b9      	ldr	r1, [r7, #24]
 800680c:	69fa      	ldr	r2, [r7, #28]
 800680e:	e841 2300 	strex	r3, r2, [r1]
 8006812:	617b      	str	r3, [r7, #20]
   return(result);
 8006814:	697b      	ldr	r3, [r7, #20]
 8006816:	2b00      	cmp	r3, #0
 8006818:	d1e5      	bne.n	80067e6 <HAL_UART_DMAStop+0xa8>

    /* Abort the UART DMA Rx stream */
    if (huart->hdmarx != NULL)
 800681a:	687b      	ldr	r3, [r7, #4]
 800681c:	6bdb      	ldr	r3, [r3, #60]	@ 0x3c
 800681e:	2b00      	cmp	r3, #0
 8006820:	d004      	beq.n	800682c <HAL_UART_DMAStop+0xee>
    {
      HAL_DMA_Abort(huart->hdmarx);
 8006822:	687b      	ldr	r3, [r7, #4]
 8006824:	6bdb      	ldr	r3, [r3, #60]	@ 0x3c
 8006826:	4618      	mov	r0, r3
 8006828:	f7fd fdc4 	bl	80043b4 <HAL_DMA_Abort>
    }
    UART_EndRxTransfer(huart);
 800682c:	6878      	ldr	r0, [r7, #4]
 800682e:	f000 fa85 	bl	8006d3c <UART_EndRxTransfer>
  }

  return HAL_OK;
 8006832:	2300      	movs	r3, #0
}
 8006834:	4618      	mov	r0, r3
 8006836:	3740      	adds	r7, #64	@ 0x40
 8006838:	46bd      	mov	sp, r7
 800683a:	bd80      	pop	{r7, pc}

0800683c <HAL_UART_RxHalfCpltCallback>:
  * @param  huart  Pointer to a UART_HandleTypeDef structure that contains
  *                the configuration information for the specified UART module.
  * @retval None
  */
__weak void HAL_UART_RxHalfCpltCallback(UART_HandleTypeDef *huart)
{
 800683c:	b480      	push	{r7}
 800683e:	b083      	sub	sp, #12
 8006840:	af00      	add	r7, sp, #0
 8006842:	6078      	str	r0, [r7, #4]
  /* Prevent unused argument(s) compilation warning */
  UNUSED(huart);
  /* NOTE: This function should not be modified, when the callback is needed,
           the HAL_UART_RxHalfCpltCallback could be implemented in the user file
   */
}
 8006844:	bf00      	nop
 8006846:	370c      	adds	r7, #12
 8006848:	46bd      	mov	sp, r7
 800684a:	f85d 7b04 	ldr.w	r7, [sp], #4
 800684e:	4770      	bx	lr

08006850 <HAL_UART_ErrorCallback>:
  * @param  huart  Pointer to a UART_HandleTypeDef structure that contains
  *                the configuration information for the specified UART module.
  * @retval None
  */
__weak void HAL_UART_ErrorCallback(UART_HandleTypeDef *huart)
{
 8006850:	b480      	push	{r7}
 8006852:	b083      	sub	sp, #12
 8006854:	af00      	add	r7, sp, #0
 8006856:	6078      	str	r0, [r7, #4]
  /* Prevent unused argument(s) compilation warning */
  UNUSED(huart);
  /* NOTE: This function should not be modified, when the callback is needed,
           the HAL_UART_ErrorCallback could be implemented in the user file
   */
}
 8006858:	bf00      	nop
 800685a:	370c      	adds	r7, #12
 800685c:	46bd      	mov	sp, r7
 800685e:	f85d 7b04 	ldr.w	r7, [sp], #4
 8006862:	4770      	bx	lr

08006864 <HAL_UARTEx_RxEventCallback>:
  * @param  Size  Number of data available in application reception buffer (indicates a position in
  *               reception buffer until which, data are available)
  * @retval None
  */
__weak void HAL_UARTEx_RxEventCallback(UART_HandleTypeDef *huart, uint16_t Size)
{
 8006864:	b480      	push	{r7}
 8006866:	b083      	sub	sp, #12
 8006868:	af00      	add	r7, sp, #0
 800686a:	6078      	str	r0, [r7, #4]
 800686c:	460b      	mov	r3, r1
 800686e:	807b      	strh	r3, [r7, #2]
  UNUSED(Size);

  /* NOTE : This function should not be modified, when the callback is needed,
            the HAL_UARTEx_RxEventCallback can be implemented in the user file.
   */
}
 8006870:	bf00      	nop
 8006872:	370c      	adds	r7, #12
 8006874:	46bd      	mov	sp, r7
 8006876:	f85d 7b04 	ldr.w	r7, [sp], #4
 800687a:	4770      	bx	lr

0800687c <UART_DMAReceiveCplt>:
  * @param  hdma  Pointer to a DMA_HandleTypeDef structure that contains
  *               the configuration information for the specified DMA module.
  * @retval None
  */
static void UART_DMAReceiveCplt(DMA_HandleTypeDef *hdma)
{
 800687c:	b580      	push	{r7, lr}
 800687e:	b09c      	sub	sp, #112	@ 0x70
 8006880:	af00      	add	r7, sp, #0
 8006882:	6078      	str	r0, [r7, #4]
  UART_HandleTypeDef *huart = (UART_HandleTypeDef *)((DMA_HandleTypeDef *)hdma)->Parent;
 8006884:	687b      	ldr	r3, [r7, #4]
 8006886:	6b9b      	ldr	r3, [r3, #56]	@ 0x38
 8006888:	66fb      	str	r3, [r7, #108]	@ 0x6c

  /* DMA Normal mode*/
  if ((hdma->Instance->CR & DMA_SxCR_CIRC) == 0U)
 800688a:	687b      	ldr	r3, [r7, #4]
 800688c:	681b      	ldr	r3, [r3, #0]
 800688e:	681b      	ldr	r3, [r3, #0]
 8006890:	f403 7380 	and.w	r3, r3, #256	@ 0x100
 8006894:	2b00      	cmp	r3, #0
 8006896:	d172      	bne.n	800697e <UART_DMAReceiveCplt+0x102>
  {
    huart->RxXferCount = 0U;
 8006898:	6efb      	ldr	r3, [r7, #108]	@ 0x6c
 800689a:	2200      	movs	r2, #0
 800689c:	85da      	strh	r2, [r3, #46]	@ 0x2e

    /* Disable RXNE, PE and ERR (Frame error, noise error, overrun error) interrupts */
    ATOMIC_CLEAR_BIT(huart->Instance->CR1, USART_CR1_PEIE);
 800689e:	6efb      	ldr	r3, [r7, #108]	@ 0x6c
 80068a0:	681b      	ldr	r3, [r3, #0]
 80068a2:	330c      	adds	r3, #12
 80068a4:	64fb      	str	r3, [r7, #76]	@ 0x4c
   __ASM volatile ("ldrex %0, %1" : "=r" (result) : "Q" (*addr) );
 80068a6:	6cfb      	ldr	r3, [r7, #76]	@ 0x4c
 80068a8:	e853 3f00 	ldrex	r3, [r3]
 80068ac:	64bb      	str	r3, [r7, #72]	@ 0x48
   return(result);
 80068ae:	6cbb      	ldr	r3, [r7, #72]	@ 0x48
 80068b0:	f423 7380 	bic.w	r3, r3, #256	@ 0x100
 80068b4:	66bb      	str	r3, [r7, #104]	@ 0x68
 80068b6:	6efb      	ldr	r3, [r7, #108]	@ 0x6c
 80068b8:	681b      	ldr	r3, [r3, #0]
 80068ba:	330c      	adds	r3, #12
 80068bc:	6eba      	ldr	r2, [r7, #104]	@ 0x68
 80068be:	65ba      	str	r2, [r7, #88]	@ 0x58
 80068c0:	657b      	str	r3, [r7, #84]	@ 0x54
   __ASM volatile ("strex %0, %2, %1" : "=&r" (result), "=Q" (*addr) : "r" (value) );
 80068c2:	6d79      	ldr	r1, [r7, #84]	@ 0x54
 80068c4:	6dba      	ldr	r2, [r7, #88]	@ 0x58
 80068c6:	e841 2300 	strex	r3, r2, [r1]
 80068ca:	653b      	str	r3, [r7, #80]	@ 0x50
   return(result);
 80068cc:	6d3b      	ldr	r3, [r7, #80]	@ 0x50
 80068ce:	2b00      	cmp	r3, #0
 80068d0:	d1e5      	bne.n	800689e <UART_DMAReceiveCplt+0x22>
    ATOMIC_CLEAR_BIT(huart->Instance->CR3, USART_CR3_EIE);
 80068d2:	6efb      	ldr	r3, [r7, #108]	@ 0x6c
 80068d4:	681b      	ldr	r3, [r3, #0]
 80068d6:	3314      	adds	r3, #20
 80068d8:	63bb      	str	r3, [r7, #56]	@ 0x38
   __ASM volatile ("ldrex %0, %1" : "=r" (result) : "Q" (*addr) );
 80068da:	6bbb      	ldr	r3, [r7, #56]	@ 0x38
 80068dc:	e853 3f00 	ldrex	r3, [r3]
 80068e0:	637b      	str	r3, [r7, #52]	@ 0x34
   return(result);
 80068e2:	6b7b      	ldr	r3, [r7, #52]	@ 0x34
 80068e4:	f023 0301 	bic.w	r3, r3, #1
 80068e8:	667b      	str	r3, [r7, #100]	@ 0x64
 80068ea:	6efb      	ldr	r3, [r7, #108]	@ 0x6c
 80068ec:	681b      	ldr	r3, [r3, #0]
 80068ee:	3314      	adds	r3, #20
 80068f0:	6e7a      	ldr	r2, [r7, #100]	@ 0x64
 80068f2:	647a      	str	r2, [r7, #68]	@ 0x44
 80068f4:	643b      	str	r3, [r7, #64]	@ 0x40
   __ASM volatile ("strex %0, %2, %1" : "=&r" (result), "=Q" (*addr) : "r" (value) );
 80068f6:	6c39      	ldr	r1, [r7, #64]	@ 0x40
 80068f8:	6c7a      	ldr	r2, [r7, #68]	@ 0x44
 80068fa:	e841 2300 	strex	r3, r2, [r1]
 80068fe:	63fb      	str	r3, [r7, #60]	@ 0x3c
   return(result);
 8006900:	6bfb      	ldr	r3, [r7, #60]	@ 0x3c
 8006902:	2b00      	cmp	r3, #0
 8006904:	d1e5      	bne.n	80068d2 <UART_DMAReceiveCplt+0x56>

    /* Disable the DMA transfer for the receiver request by setting the DMAR bit
       in the UART CR3 register */
    ATOMIC_CLEAR_BIT(huart->Instance->CR3, USART_CR3_DMAR);
 8006906:	6efb      	ldr	r3, [r7, #108]	@ 0x6c
 8006908:	681b      	ldr	r3, [r3, #0]
 800690a:	3314      	adds	r3, #20
 800690c:	627b      	str	r3, [r7, #36]	@ 0x24
   __ASM volatile ("ldrex %0, %1" : "=r" (result) : "Q" (*addr) );
 800690e:	6a7b      	ldr	r3, [r7, #36]	@ 0x24
 8006910:	e853 3f00 	ldrex	r3, [r3]
 8006914:	623b      	str	r3, [r7, #32]
   return(result);
 8006916:	6a3b      	ldr	r3, [r7, #32]
 8006918:	f023 0340 	bic.w	r3, r3, #64	@ 0x40
 800691c:	663b      	str	r3, [r7, #96]	@ 0x60
 800691e:	6efb      	ldr	r3, [r7, #108]	@ 0x6c
 8006920:	681b      	ldr	r3, [r3, #0]
 8006922:	3314      	adds	r3, #20
 8006924:	6e3a      	ldr	r2, [r7, #96]	@ 0x60
 8006926:	633a      	str	r2, [r7, #48]	@ 0x30
 8006928:	62fb      	str	r3, [r7, #44]	@ 0x2c
   __ASM volatile ("strex %0, %2, %1" : "=&r" (result), "=Q" (*addr) : "r" (value) );
 800692a:	6af9      	ldr	r1, [r7, #44]	@ 0x2c
 800692c:	6b3a      	ldr	r2, [r7, #48]	@ 0x30
 800692e:	e841 2300 	strex	r3, r2, [r1]
 8006932:	62bb      	str	r3, [r7, #40]	@ 0x28
   return(result);
 8006934:	6abb      	ldr	r3, [r7, #40]	@ 0x28
 8006936:	2b00      	cmp	r3, #0
 8006938:	d1e5      	bne.n	8006906 <UART_DMAReceiveCplt+0x8a>

    /* At end of Rx process, restore huart->RxState to Ready */
    huart->RxState = HAL_UART_STATE_READY;
 800693a:	6efb      	ldr	r3, [r7, #108]	@ 0x6c
 800693c:	2220      	movs	r2, #32
 800693e:	f883 2042 	strb.w	r2, [r3, #66]	@ 0x42

    /* If Reception till IDLE event has been selected, Disable IDLE Interrupt */
    if (huart->ReceptionType == HAL_UART_RECEPTION_TOIDLE)
 8006942:	6efb      	ldr	r3, [r7, #108]	@ 0x6c
 8006944:	6b1b      	ldr	r3, [r3, #48]	@ 0x30
 8006946:	2b01      	cmp	r3, #1
 8006948:	d119      	bne.n	800697e <UART_DMAReceiveCplt+0x102>
    {
      ATOMIC_CLEAR_BIT(huart->Instance->CR1, USART_CR1_IDLEIE);
 800694a:	6efb      	ldr	r3, [r7, #108]	@ 0x6c
 800694c:	681b      	ldr	r3, [r3, #0]
 800694e:	330c      	adds	r3, #12
 8006950:	613b      	str	r3, [r7, #16]
   __ASM volatile ("ldrex %0, %1" : "=r" (result) : "Q" (*addr) );
 8006952:	693b      	ldr	r3, [r7, #16]
 8006954:	e853 3f00 	ldrex	r3, [r3]
 8006958:	60fb      	str	r3, [r7, #12]
   return(result);
 800695a:	68fb      	ldr	r3, [r7, #12]
 800695c:	f023 0310 	bic.w	r3, r3, #16
 8006960:	65fb      	str	r3, [r7, #92]	@ 0x5c
 8006962:	6efb      	ldr	r3, [r7, #108]	@ 0x6c
 8006964:	681b      	ldr	r3, [r3, #0]
 8006966:	330c      	adds	r3, #12
 8006968:	6dfa      	ldr	r2, [r7, #92]	@ 0x5c
 800696a:	61fa      	str	r2, [r7, #28]
 800696c:	61bb      	str	r3, [r7, #24]
   __ASM volatile ("strex %0, %2, %1" : "=&r" (result), "=Q" (*addr) : "r" (value) );
 800696e:	69b9      	ldr	r1, [r7, #24]
 8006970:	69fa      	ldr	r2, [r7, #28]
 8006972:	e841 2300 	strex	r3, r2, [r1]
 8006976:	617b      	str	r3, [r7, #20]
   return(result);
 8006978:	697b      	ldr	r3, [r7, #20]
 800697a:	2b00      	cmp	r3, #0
 800697c:	d1e5      	bne.n	800694a <UART_DMAReceiveCplt+0xce>
    }
  }

  /* Initialize type of RxEvent that correspond to RxEvent callback execution;
   In this case, Rx Event type is Transfer Complete */
  huart->RxEventType = HAL_UART_RXEVENT_TC;
 800697e:	6efb      	ldr	r3, [r7, #108]	@ 0x6c
 8006980:	2200      	movs	r2, #0
 8006982:	635a      	str	r2, [r3, #52]	@ 0x34

  /* Check current reception Mode :
     If Reception till IDLE event has been selected : use Rx Event callback */
  if (huart->ReceptionType == HAL_UART_RECEPTION_TOIDLE)
 8006984:	6efb      	ldr	r3, [r7, #108]	@ 0x6c
 8006986:	6b1b      	ldr	r3, [r3, #48]	@ 0x30
 8006988:	2b01      	cmp	r3, #1
 800698a:	d106      	bne.n	800699a <UART_DMAReceiveCplt+0x11e>
#if (USE_HAL_UART_REGISTER_CALLBACKS == 1)
    /*Call registered Rx Event callback*/
    huart->RxEventCallback(huart, huart->RxXferSize);
#else
    /*Call legacy weak Rx Event callback*/
    HAL_UARTEx_RxEventCallback(huart, huart->RxXferSize);
 800698c:	6efb      	ldr	r3, [r7, #108]	@ 0x6c
 800698e:	8d9b      	ldrh	r3, [r3, #44]	@ 0x2c
 8006990:	4619      	mov	r1, r3
 8006992:	6ef8      	ldr	r0, [r7, #108]	@ 0x6c
 8006994:	f7ff ff66 	bl	8006864 <HAL_UARTEx_RxEventCallback>
#else
    /*Call legacy weak Rx complete callback*/
    HAL_UART_RxCpltCallback(huart);
#endif /* USE_HAL_UART_REGISTER_CALLBACKS */
  }
}
 8006998:	e002      	b.n	80069a0 <UART_DMAReceiveCplt+0x124>
    HAL_UART_RxCpltCallback(huart);
 800699a:	6ef8      	ldr	r0, [r7, #108]	@ 0x6c
 800699c:	f7fa f868 	bl	8000a70 <HAL_UART_RxCpltCallback>
}
 80069a0:	bf00      	nop
 80069a2:	3770      	adds	r7, #112	@ 0x70
 80069a4:	46bd      	mov	sp, r7
 80069a6:	bd80      	pop	{r7, pc}

080069a8 <UART_DMARxHalfCplt>:
  * @param  hdma  Pointer to a DMA_HandleTypeDef structure that contains
  *               the configuration information for the specified DMA module.
  * @retval None
  */
static void UART_DMARxHalfCplt(DMA_HandleTypeDef *hdma)
{
 80069a8:	b580      	push	{r7, lr}
 80069aa:	b084      	sub	sp, #16
 80069ac:	af00      	add	r7, sp, #0
 80069ae:	6078      	str	r0, [r7, #4]
  UART_HandleTypeDef *huart = (UART_HandleTypeDef *)((DMA_HandleTypeDef *)hdma)->Parent;
 80069b0:	687b      	ldr	r3, [r7, #4]
 80069b2:	6b9b      	ldr	r3, [r3, #56]	@ 0x38
 80069b4:	60fb      	str	r3, [r7, #12]

  /* Initialize type of RxEvent that correspond to RxEvent callback execution;
     In this case, Rx Event type is Half Transfer */
  huart->RxEventType = HAL_UART_RXEVENT_HT;
 80069b6:	68fb      	ldr	r3, [r7, #12]
 80069b8:	2201      	movs	r2, #1
 80069ba:	635a      	str	r2, [r3, #52]	@ 0x34

  /* Check current reception Mode :
     If Reception till IDLE event has been selected : use Rx Event callback */
  if (huart->ReceptionType == HAL_UART_RECEPTION_TOIDLE)
 80069bc:	68fb      	ldr	r3, [r7, #12]
 80069be:	6b1b      	ldr	r3, [r3, #48]	@ 0x30
 80069c0:	2b01      	cmp	r3, #1
 80069c2:	d108      	bne.n	80069d6 <UART_DMARxHalfCplt+0x2e>
#if (USE_HAL_UART_REGISTER_CALLBACKS == 1)
    /*Call registered Rx Event callback*/
    huart->RxEventCallback(huart, huart->RxXferSize / 2U);
#else
    /*Call legacy weak Rx Event callback*/
    HAL_UARTEx_RxEventCallback(huart, huart->RxXferSize / 2U);
 80069c4:	68fb      	ldr	r3, [r7, #12]
 80069c6:	8d9b      	ldrh	r3, [r3, #44]	@ 0x2c
 80069c8:	085b      	lsrs	r3, r3, #1
 80069ca:	b29b      	uxth	r3, r3
 80069cc:	4619      	mov	r1, r3
 80069ce:	68f8      	ldr	r0, [r7, #12]
 80069d0:	f7ff ff48 	bl	8006864 <HAL_UARTEx_RxEventCallback>
#else
    /*Call legacy weak Rx Half complete callback*/
    HAL_UART_RxHalfCpltCallback(huart);
#endif /* USE_HAL_UART_REGISTER_CALLBACKS */
  }
}
 80069d4:	e002      	b.n	80069dc <UART_DMARxHalfCplt+0x34>
    HAL_UART_RxHalfCpltCallback(huart);
 80069d6:	68f8      	ldr	r0, [r7, #12]
 80069d8:	f7ff ff30 	bl	800683c <HAL_UART_RxHalfCpltCallback>
}
 80069dc:	bf00      	nop
 80069de:	3710      	adds	r7, #16
 80069e0:	46bd      	mov	sp, r7
 80069e2:	bd80      	pop	{r7, pc}

080069e4 <UART_DMAError>:
  * @param  hdma  Pointer to a DMA_HandleTypeDef structure that contains
  *               the configuration information for the specified DMA module.
  * @retval None
  */
static void UART_DMAError(DMA_HandleTypeDef *hdma)
{
 80069e4:	b580      	push	{r7, lr}
 80069e6:	b084      	sub	sp, #16
 80069e8:	af00      	add	r7, sp, #0
 80069ea:	6078      	str	r0, [r7, #4]
  uint32_t dmarequest = 0x00U;
 80069ec:	2300      	movs	r3, #0
 80069ee:	60fb      	str	r3, [r7, #12]
  UART_HandleTypeDef *huart = (UART_HandleTypeDef *)((DMA_HandleTypeDef *)hdma)->Parent;
 80069f0:	687b      	ldr	r3, [r7, #4]
 80069f2:	6b9b      	ldr	r3, [r3, #56]	@ 0x38
 80069f4:	60bb      	str	r3, [r7, #8]

  /* Stop UART DMA Tx request if ongoing */
  dmarequest = HAL_IS_BIT_SET(huart->Instance->CR3, USART_CR3_DMAT);
 80069f6:	68bb      	ldr	r3, [r7, #8]
 80069f8:	681b      	ldr	r3, [r3, #0]
 80069fa:	695b      	ldr	r3, [r3, #20]
 80069fc:	f003 0380 	and.w	r3, r3, #128	@ 0x80
 8006a00:	2b80      	cmp	r3, #128	@ 0x80
 8006a02:	bf0c      	ite	eq
 8006a04:	2301      	moveq	r3, #1
 8006a06:	2300      	movne	r3, #0
 8006a08:	b2db      	uxtb	r3, r3
 8006a0a:	60fb      	str	r3, [r7, #12]
  if ((huart->gState == HAL_UART_STATE_BUSY_TX) && dmarequest)
 8006a0c:	68bb      	ldr	r3, [r7, #8]
 8006a0e:	f893 3041 	ldrb.w	r3, [r3, #65]	@ 0x41
 8006a12:	b2db      	uxtb	r3, r3
 8006a14:	2b21      	cmp	r3, #33	@ 0x21
 8006a16:	d108      	bne.n	8006a2a <UART_DMAError+0x46>
 8006a18:	68fb      	ldr	r3, [r7, #12]
 8006a1a:	2b00      	cmp	r3, #0
 8006a1c:	d005      	beq.n	8006a2a <UART_DMAError+0x46>
  {
    huart->TxXferCount = 0x00U;
 8006a1e:	68bb      	ldr	r3, [r7, #8]
 8006a20:	2200      	movs	r2, #0
 8006a22:	84da      	strh	r2, [r3, #38]	@ 0x26
    UART_EndTxTransfer(huart);
 8006a24:	68b8      	ldr	r0, [r7, #8]
 8006a26:	f000 f961 	bl	8006cec <UART_EndTxTransfer>
  }

  /* Stop UART DMA Rx request if ongoing */
  dmarequest = HAL_IS_BIT_SET(huart->Instance->CR3, USART_CR3_DMAR);
 8006a2a:	68bb      	ldr	r3, [r7, #8]
 8006a2c:	681b      	ldr	r3, [r3, #0]
 8006a2e:	695b      	ldr	r3, [r3, #20]
 8006a30:	f003 0340 	and.w	r3, r3, #64	@ 0x40
 8006a34:	2b40      	cmp	r3, #64	@ 0x40
 8006a36:	bf0c      	ite	eq
 8006a38:	2301      	moveq	r3, #1
 8006a3a:	2300      	movne	r3, #0
 8006a3c:	b2db      	uxtb	r3, r3
 8006a3e:	60fb      	str	r3, [r7, #12]
  if ((huart->RxState == HAL_UART_STATE_BUSY_RX) && dmarequest)
 8006a40:	68bb      	ldr	r3, [r7, #8]
 8006a42:	f893 3042 	ldrb.w	r3, [r3, #66]	@ 0x42
 8006a46:	b2db      	uxtb	r3, r3
 8006a48:	2b22      	cmp	r3, #34	@ 0x22
 8006a4a:	d108      	bne.n	8006a5e <UART_DMAError+0x7a>
 8006a4c:	68fb      	ldr	r3, [r7, #12]
 8006a4e:	2b00      	cmp	r3, #0
 8006a50:	d005      	beq.n	8006a5e <UART_DMAError+0x7a>
  {
    huart->RxXferCount = 0x00U;
 8006a52:	68bb      	ldr	r3, [r7, #8]
 8006a54:	2200      	movs	r2, #0
 8006a56:	85da      	strh	r2, [r3, #46]	@ 0x2e
    UART_EndRxTransfer(huart);
 8006a58:	68b8      	ldr	r0, [r7, #8]
 8006a5a:	f000 f96f 	bl	8006d3c <UART_EndRxTransfer>
  }

  huart->ErrorCode |= HAL_UART_ERROR_DMA;
 8006a5e:	68bb      	ldr	r3, [r7, #8]
 8006a60:	6c5b      	ldr	r3, [r3, #68]	@ 0x44
 8006a62:	f043 0210 	orr.w	r2, r3, #16
 8006a66:	68bb      	ldr	r3, [r7, #8]
 8006a68:	645a      	str	r2, [r3, #68]	@ 0x44
#if (USE_HAL_UART_REGISTER_CALLBACKS == 1)
  /*Call registered error callback*/
  huart->ErrorCallback(huart);
#else
  /*Call legacy weak error callback*/
  HAL_UART_ErrorCallback(huart);
 8006a6a:	68b8      	ldr	r0, [r7, #8]
 8006a6c:	f7ff fef0 	bl	8006850 <HAL_UART_ErrorCallback>
#endif /* USE_HAL_UART_REGISTER_CALLBACKS */
}
 8006a70:	bf00      	nop
 8006a72:	3710      	adds	r7, #16
 8006a74:	46bd      	mov	sp, r7
 8006a76:	bd80      	pop	{r7, pc}

08006a78 <UART_WaitOnFlagUntilTimeout>:
  * @param  Timeout Timeout duration
  * @retval HAL status
  */
static HAL_StatusTypeDef UART_WaitOnFlagUntilTimeout(UART_HandleTypeDef *huart, uint32_t Flag, FlagStatus Status,
                                                     uint32_t Tickstart, uint32_t Timeout)
{
 8006a78:	b580      	push	{r7, lr}
 8006a7a:	b086      	sub	sp, #24
 8006a7c:	af00      	add	r7, sp, #0
 8006a7e:	60f8      	str	r0, [r7, #12]
 8006a80:	60b9      	str	r1, [r7, #8]
 8006a82:	603b      	str	r3, [r7, #0]
 8006a84:	4613      	mov	r3, r2
 8006a86:	71fb      	strb	r3, [r7, #7]
  /* Wait until flag is set */
  while ((__HAL_UART_GET_FLAG(huart, Flag) ? SET : RESET) == Status)
 8006a88:	e03b      	b.n	8006b02 <UART_WaitOnFlagUntilTimeout+0x8a>
  {
    /* Check for the Timeout */
    if (Timeout != HAL_MAX_DELAY)
 8006a8a:	6a3b      	ldr	r3, [r7, #32]
 8006a8c:	f1b3 3fff 	cmp.w	r3, #4294967295
 8006a90:	d037      	beq.n	8006b02 <UART_WaitOnFlagUntilTimeout+0x8a>
    {
      if (((HAL_GetTick() - Tickstart) > Timeout) || (Timeout == 0U))
 8006a92:	f7fd fa19 	bl	8003ec8 <HAL_GetTick>
 8006a96:	4602      	mov	r2, r0
 8006a98:	683b      	ldr	r3, [r7, #0]
 8006a9a:	1ad3      	subs	r3, r2, r3
 8006a9c:	6a3a      	ldr	r2, [r7, #32]
 8006a9e:	429a      	cmp	r2, r3
 8006aa0:	d302      	bcc.n	8006aa8 <UART_WaitOnFlagUntilTimeout+0x30>
 8006aa2:	6a3b      	ldr	r3, [r7, #32]
 8006aa4:	2b00      	cmp	r3, #0
 8006aa6:	d101      	bne.n	8006aac <UART_WaitOnFlagUntilTimeout+0x34>
      {

        return HAL_TIMEOUT;
 8006aa8:	2303      	movs	r3, #3
 8006aaa:	e03a      	b.n	8006b22 <UART_WaitOnFlagUntilTimeout+0xaa>
      }

      if ((READ_BIT(huart->Instance->CR1, USART_CR1_RE) != 0U) && (Flag != UART_FLAG_TXE) && (Flag != UART_FLAG_TC))
 8006aac:	68fb      	ldr	r3, [r7, #12]
 8006aae:	681b      	ldr	r3, [r3, #0]
 8006ab0:	68db      	ldr	r3, [r3, #12]
 8006ab2:	f003 0304 	and.w	r3, r3, #4
 8006ab6:	2b00      	cmp	r3, #0
 8006ab8:	d023      	beq.n	8006b02 <UART_WaitOnFlagUntilTimeout+0x8a>
 8006aba:	68bb      	ldr	r3, [r7, #8]
 8006abc:	2b80      	cmp	r3, #128	@ 0x80
 8006abe:	d020      	beq.n	8006b02 <UART_WaitOnFlagUntilTimeout+0x8a>
 8006ac0:	68bb      	ldr	r3, [r7, #8]
 8006ac2:	2b40      	cmp	r3, #64	@ 0x40
 8006ac4:	d01d      	beq.n	8006b02 <UART_WaitOnFlagUntilTimeout+0x8a>
      {
        if (__HAL_UART_GET_FLAG(huart, UART_FLAG_ORE) == SET)
 8006ac6:	68fb      	ldr	r3, [r7, #12]
 8006ac8:	681b      	ldr	r3, [r3, #0]
 8006aca:	681b      	ldr	r3, [r3, #0]
 8006acc:	f003 0308 	and.w	r3, r3, #8
 8006ad0:	2b08      	cmp	r3, #8
 8006ad2:	d116      	bne.n	8006b02 <UART_WaitOnFlagUntilTimeout+0x8a>
        {
          /* Clear Overrun Error flag*/
          __HAL_UART_CLEAR_OREFLAG(huart);
 8006ad4:	2300      	movs	r3, #0
 8006ad6:	617b      	str	r3, [r7, #20]
 8006ad8:	68fb      	ldr	r3, [r7, #12]
 8006ada:	681b      	ldr	r3, [r3, #0]
 8006adc:	681b      	ldr	r3, [r3, #0]
 8006ade:	617b      	str	r3, [r7, #20]
 8006ae0:	68fb      	ldr	r3, [r7, #12]
 8006ae2:	681b      	ldr	r3, [r3, #0]
 8006ae4:	685b      	ldr	r3, [r3, #4]
 8006ae6:	617b      	str	r3, [r7, #20]
 8006ae8:	697b      	ldr	r3, [r7, #20]

          /* Blocking error : transfer is aborted
          Set the UART state ready to be able to start again the process,
          Disable Rx Interrupts if ongoing */
          UART_EndRxTransfer(huart);
 8006aea:	68f8      	ldr	r0, [r7, #12]
 8006aec:	f000 f926 	bl	8006d3c <UART_EndRxTransfer>

          huart->ErrorCode = HAL_UART_ERROR_ORE;
 8006af0:	68fb      	ldr	r3, [r7, #12]
 8006af2:	2208      	movs	r2, #8
 8006af4:	645a      	str	r2, [r3, #68]	@ 0x44

          /* Process Unlocked */
          __HAL_UNLOCK(huart);
 8006af6:	68fb      	ldr	r3, [r7, #12]
 8006af8:	2200      	movs	r2, #0
 8006afa:	f883 2040 	strb.w	r2, [r3, #64]	@ 0x40

          return HAL_ERROR;
 8006afe:	2301      	movs	r3, #1
 8006b00:	e00f      	b.n	8006b22 <UART_WaitOnFlagUntilTimeout+0xaa>
  while ((__HAL_UART_GET_FLAG(huart, Flag) ? SET : RESET) == Status)
 8006b02:	68fb      	ldr	r3, [r7, #12]
 8006b04:	681b      	ldr	r3, [r3, #0]
 8006b06:	681a      	ldr	r2, [r3, #0]
 8006b08:	68bb      	ldr	r3, [r7, #8]
 8006b0a:	4013      	ands	r3, r2
 8006b0c:	68ba      	ldr	r2, [r7, #8]
 8006b0e:	429a      	cmp	r2, r3
 8006b10:	bf0c      	ite	eq
 8006b12:	2301      	moveq	r3, #1
 8006b14:	2300      	movne	r3, #0
 8006b16:	b2db      	uxtb	r3, r3
 8006b18:	461a      	mov	r2, r3
 8006b1a:	79fb      	ldrb	r3, [r7, #7]
 8006b1c:	429a      	cmp	r2, r3
 8006b1e:	d0b4      	beq.n	8006a8a <UART_WaitOnFlagUntilTimeout+0x12>
        }
      }
    }
  }
  return HAL_OK;
 8006b20:	2300      	movs	r3, #0
}
 8006b22:	4618      	mov	r0, r3
 8006b24:	3718      	adds	r7, #24
 8006b26:	46bd      	mov	sp, r7
 8006b28:	bd80      	pop	{r7, pc}

08006b2a <UART_Start_Receive_IT>:
  * @param  pData Pointer to data buffer (u8 or u16 data elements).
  * @param  Size  Amount of data elements (u8 or u16) to be received.
  * @retval HAL status
  */
HAL_StatusTypeDef UART_Start_Receive_IT(UART_HandleTypeDef *huart, uint8_t *pData, uint16_t Size)
{
 8006b2a:	b480      	push	{r7}
 8006b2c:	b085      	sub	sp, #20
 8006b2e:	af00      	add	r7, sp, #0
 8006b30:	60f8      	str	r0, [r7, #12]
 8006b32:	60b9      	str	r1, [r7, #8]
 8006b34:	4613      	mov	r3, r2
 8006b36:	80fb      	strh	r3, [r7, #6]
  huart->pRxBuffPtr = pData;
 8006b38:	68fb      	ldr	r3, [r7, #12]
 8006b3a:	68ba      	ldr	r2, [r7, #8]
 8006b3c:	629a      	str	r2, [r3, #40]	@ 0x28
  huart->RxXferSize = Size;
 8006b3e:	68fb      	ldr	r3, [r7, #12]
 8006b40:	88fa      	ldrh	r2, [r7, #6]
 8006b42:	859a      	strh	r2, [r3, #44]	@ 0x2c
  huart->RxXferCount = Size;
 8006b44:	68fb      	ldr	r3, [r7, #12]
 8006b46:	88fa      	ldrh	r2, [r7, #6]
 8006b48:	85da      	strh	r2, [r3, #46]	@ 0x2e

  huart->ErrorCode = HAL_UART_ERROR_NONE;
 8006b4a:	68fb      	ldr	r3, [r7, #12]
 8006b4c:	2200      	movs	r2, #0
 8006b4e:	645a      	str	r2, [r3, #68]	@ 0x44
  huart->RxState = HAL_UART_STATE_BUSY_RX;
 8006b50:	68fb      	ldr	r3, [r7, #12]
 8006b52:	2222      	movs	r2, #34	@ 0x22
 8006b54:	f883 2042 	strb.w	r2, [r3, #66]	@ 0x42

  if (huart->Init.Parity != UART_PARITY_NONE)
 8006b58:	68fb      	ldr	r3, [r7, #12]
 8006b5a:	691b      	ldr	r3, [r3, #16]
 8006b5c:	2b00      	cmp	r3, #0
 8006b5e:	d007      	beq.n	8006b70 <UART_Start_Receive_IT+0x46>
  {
    /* Enable the UART Parity Error Interrupt */
    __HAL_UART_ENABLE_IT(huart, UART_IT_PE);
 8006b60:	68fb      	ldr	r3, [r7, #12]
 8006b62:	681b      	ldr	r3, [r3, #0]
 8006b64:	68da      	ldr	r2, [r3, #12]
 8006b66:	68fb      	ldr	r3, [r7, #12]
 8006b68:	681b      	ldr	r3, [r3, #0]
 8006b6a:	f442 7280 	orr.w	r2, r2, #256	@ 0x100
 8006b6e:	60da      	str	r2, [r3, #12]
  }

  /* Enable the UART Error Interrupt: (Frame error, noise error, overrun error) */
  __HAL_UART_ENABLE_IT(huart, UART_IT_ERR);
 8006b70:	68fb      	ldr	r3, [r7, #12]
 8006b72:	681b      	ldr	r3, [r3, #0]
 8006b74:	695a      	ldr	r2, [r3, #20]
 8006b76:	68fb      	ldr	r3, [r7, #12]
 8006b78:	681b      	ldr	r3, [r3, #0]
 8006b7a:	f042 0201 	orr.w	r2, r2, #1
 8006b7e:	615a      	str	r2, [r3, #20]

  /* Enable the UART Data Register not empty Interrupt */
  __HAL_UART_ENABLE_IT(huart, UART_IT_RXNE);
 8006b80:	68fb      	ldr	r3, [r7, #12]
 8006b82:	681b      	ldr	r3, [r3, #0]
 8006b84:	68da      	ldr	r2, [r3, #12]
 8006b86:	68fb      	ldr	r3, [r7, #12]
 8006b88:	681b      	ldr	r3, [r3, #0]
 8006b8a:	f042 0220 	orr.w	r2, r2, #32
 8006b8e:	60da      	str	r2, [r3, #12]

  return HAL_OK;
 8006b90:	2300      	movs	r3, #0
}
 8006b92:	4618      	mov	r0, r3
 8006b94:	3714      	adds	r7, #20
 8006b96:	46bd      	mov	sp, r7
 8006b98:	f85d 7b04 	ldr.w	r7, [sp], #4
 8006b9c:	4770      	bx	lr
	...

08006ba0 <UART_Start_Receive_DMA>:
  * @param  pData Pointer to data buffer (u8 or u16 data elements).
  * @param  Size  Amount of data elements (u8 or u16) to be received.
  * @retval HAL status
  */
HAL_StatusTypeDef UART_Start_Receive_DMA(UART_HandleTypeDef *huart, uint8_t *pData, uint16_t Size)
{
 8006ba0:	b580      	push	{r7, lr}
 8006ba2:	b098      	sub	sp, #96	@ 0x60
 8006ba4:	af00      	add	r7, sp, #0
 8006ba6:	60f8      	str	r0, [r7, #12]
 8006ba8:	60b9      	str	r1, [r7, #8]
 8006baa:	4613      	mov	r3, r2
 8006bac:	80fb      	strh	r3, [r7, #6]
  uint32_t *tmp;

  huart->pRxBuffPtr = pData;
 8006bae:	68ba      	ldr	r2, [r7, #8]
 8006bb0:	68fb      	ldr	r3, [r7, #12]
 8006bb2:	629a      	str	r2, [r3, #40]	@ 0x28
  huart->RxXferSize = Size;
 8006bb4:	68fb      	ldr	r3, [r7, #12]
 8006bb6:	88fa      	ldrh	r2, [r7, #6]
 8006bb8:	859a      	strh	r2, [r3, #44]	@ 0x2c

  huart->ErrorCode = HAL_UART_ERROR_NONE;
 8006bba:	68fb      	ldr	r3, [r7, #12]
 8006bbc:	2200      	movs	r2, #0
 8006bbe:	645a      	str	r2, [r3, #68]	@ 0x44
  huart->RxState = HAL_UART_STATE_BUSY_RX;
 8006bc0:	68fb      	ldr	r3, [r7, #12]
 8006bc2:	2222      	movs	r2, #34	@ 0x22
 8006bc4:	f883 2042 	strb.w	r2, [r3, #66]	@ 0x42

  /* Set the UART DMA transfer complete callback */
  huart->hdmarx->XferCpltCallback = UART_DMAReceiveCplt;
 8006bc8:	68fb      	ldr	r3, [r7, #12]
 8006bca:	6bdb      	ldr	r3, [r3, #60]	@ 0x3c
 8006bcc:	4a44      	ldr	r2, [pc, #272]	@ (8006ce0 <UART_Start_Receive_DMA+0x140>)
 8006bce:	63da      	str	r2, [r3, #60]	@ 0x3c

  /* Set the UART DMA Half transfer complete callback */
  huart->hdmarx->XferHalfCpltCallback = UART_DMARxHalfCplt;
 8006bd0:	68fb      	ldr	r3, [r7, #12]
 8006bd2:	6bdb      	ldr	r3, [r3, #60]	@ 0x3c
 8006bd4:	4a43      	ldr	r2, [pc, #268]	@ (8006ce4 <UART_Start_Receive_DMA+0x144>)
 8006bd6:	641a      	str	r2, [r3, #64]	@ 0x40

  /* Set the DMA error callback */
  huart->hdmarx->XferErrorCallback = UART_DMAError;
 8006bd8:	68fb      	ldr	r3, [r7, #12]
 8006bda:	6bdb      	ldr	r3, [r3, #60]	@ 0x3c
 8006bdc:	4a42      	ldr	r2, [pc, #264]	@ (8006ce8 <UART_Start_Receive_DMA+0x148>)
 8006bde:	64da      	str	r2, [r3, #76]	@ 0x4c

  /* Set the DMA abort callback */
  huart->hdmarx->XferAbortCallback = NULL;
 8006be0:	68fb      	ldr	r3, [r7, #12]
 8006be2:	6bdb      	ldr	r3, [r3, #60]	@ 0x3c
 8006be4:	2200      	movs	r2, #0
 8006be6:	651a      	str	r2, [r3, #80]	@ 0x50

  /* Enable the DMA stream */
  tmp = (uint32_t *)&pData;
 8006be8:	f107 0308 	add.w	r3, r7, #8
 8006bec:	65fb      	str	r3, [r7, #92]	@ 0x5c
  if (HAL_DMA_Start_IT(huart->hdmarx, (uint32_t)&huart->Instance->DR, *(uint32_t *)tmp, Size) != HAL_OK)
 8006bee:	68fb      	ldr	r3, [r7, #12]
 8006bf0:	6bd8      	ldr	r0, [r3, #60]	@ 0x3c
 8006bf2:	68fb      	ldr	r3, [r7, #12]
 8006bf4:	681b      	ldr	r3, [r3, #0]
 8006bf6:	3304      	adds	r3, #4
 8006bf8:	4619      	mov	r1, r3
 8006bfa:	6dfb      	ldr	r3, [r7, #92]	@ 0x5c
 8006bfc:	681a      	ldr	r2, [r3, #0]
 8006bfe:	88fb      	ldrh	r3, [r7, #6]
 8006c00:	f7fd fb80 	bl	8004304 <HAL_DMA_Start_IT>
 8006c04:	4603      	mov	r3, r0
 8006c06:	2b00      	cmp	r3, #0
 8006c08:	d008      	beq.n	8006c1c <UART_Start_Receive_DMA+0x7c>
  {
    /* Set error code to DMA */
    huart->ErrorCode = HAL_UART_ERROR_DMA;
 8006c0a:	68fb      	ldr	r3, [r7, #12]
 8006c0c:	2210      	movs	r2, #16
 8006c0e:	645a      	str	r2, [r3, #68]	@ 0x44

    /* Restore huart->RxState to ready */
    huart->RxState = HAL_UART_STATE_READY;
 8006c10:	68fb      	ldr	r3, [r7, #12]
 8006c12:	2220      	movs	r2, #32
 8006c14:	f883 2042 	strb.w	r2, [r3, #66]	@ 0x42

    return HAL_ERROR;
 8006c18:	2301      	movs	r3, #1
 8006c1a:	e05d      	b.n	8006cd8 <UART_Start_Receive_DMA+0x138>
  }
  /* Clear the Overrun flag just before enabling the DMA Rx request: can be mandatory for the second transfer */
  __HAL_UART_CLEAR_OREFLAG(huart);
 8006c1c:	2300      	movs	r3, #0
 8006c1e:	613b      	str	r3, [r7, #16]
 8006c20:	68fb      	ldr	r3, [r7, #12]
 8006c22:	681b      	ldr	r3, [r3, #0]
 8006c24:	681b      	ldr	r3, [r3, #0]
 8006c26:	613b      	str	r3, [r7, #16]
 8006c28:	68fb      	ldr	r3, [r7, #12]
 8006c2a:	681b      	ldr	r3, [r3, #0]
 8006c2c:	685b      	ldr	r3, [r3, #4]
 8006c2e:	613b      	str	r3, [r7, #16]
 8006c30:	693b      	ldr	r3, [r7, #16]

  if (huart->Init.Parity != UART_PARITY_NONE)
 8006c32:	68fb      	ldr	r3, [r7, #12]
 8006c34:	691b      	ldr	r3, [r3, #16]
 8006c36:	2b00      	cmp	r3, #0
 8006c38:	d019      	beq.n	8006c6e <UART_Start_Receive_DMA+0xce>
  {
    /* Enable the UART Parity Error Interrupt */
    ATOMIC_SET_BIT(huart->Instance->CR1, USART_CR1_PEIE);
 8006c3a:	68fb      	ldr	r3, [r7, #12]
 8006c3c:	681b      	ldr	r3, [r3, #0]
 8006c3e:	330c      	adds	r3, #12
 8006c40:	643b      	str	r3, [r7, #64]	@ 0x40
   __ASM volatile ("ldrex %0, %1" : "=r" (result) : "Q" (*addr) );
 8006c42:	6c3b      	ldr	r3, [r7, #64]	@ 0x40
 8006c44:	e853 3f00 	ldrex	r3, [r3]
 8006c48:	63fb      	str	r3, [r7, #60]	@ 0x3c
   return(result);
 8006c4a:	6bfb      	ldr	r3, [r7, #60]	@ 0x3c
 8006c4c:	f443 7380 	orr.w	r3, r3, #256	@ 0x100
 8006c50:	65bb      	str	r3, [r7, #88]	@ 0x58
 8006c52:	68fb      	ldr	r3, [r7, #12]
 8006c54:	681b      	ldr	r3, [r3, #0]
 8006c56:	330c      	adds	r3, #12
 8006c58:	6dba      	ldr	r2, [r7, #88]	@ 0x58
 8006c5a:	64fa      	str	r2, [r7, #76]	@ 0x4c
 8006c5c:	64bb      	str	r3, [r7, #72]	@ 0x48
   __ASM volatile ("strex %0, %2, %1" : "=&r" (result), "=Q" (*addr) : "r" (value) );
 8006c5e:	6cb9      	ldr	r1, [r7, #72]	@ 0x48
 8006c60:	6cfa      	ldr	r2, [r7, #76]	@ 0x4c
 8006c62:	e841 2300 	strex	r3, r2, [r1]
 8006c66:	647b      	str	r3, [r7, #68]	@ 0x44
   return(result);
 8006c68:	6c7b      	ldr	r3, [r7, #68]	@ 0x44
 8006c6a:	2b00      	cmp	r3, #0
 8006c6c:	d1e5      	bne.n	8006c3a <UART_Start_Receive_DMA+0x9a>
  }

  /* Enable the UART Error Interrupt: (Frame error, noise error, overrun error) */
  ATOMIC_SET_BIT(huart->Instance->CR3, USART_CR3_EIE);
 8006c6e:	68fb      	ldr	r3, [r7, #12]
 8006c70:	681b      	ldr	r3, [r3, #0]
 8006c72:	3314      	adds	r3, #20
 8006c74:	62fb      	str	r3, [r7, #44]	@ 0x2c
   __ASM volatile ("ldrex %0, %1" : "=r" (result) : "Q" (*addr) );
 8006c76:	6afb      	ldr	r3, [r7, #44]	@ 0x2c
 8006c78:	e853 3f00 	ldrex	r3, [r3]
 8006c7c:	62bb      	str	r3, [r7, #40]	@ 0x28
   return(result);
 8006c7e:	6abb      	ldr	r3, [r7, #40]	@ 0x28
 8006c80:	f043 0301 	orr.w	r3, r3, #1
 8006c84:	657b      	str	r3, [r7, #84]	@ 0x54
 8006c86:	68fb      	ldr	r3, [r7, #12]
 8006c88:	681b      	ldr	r3, [r3, #0]
 8006c8a:	3314      	adds	r3, #20
 8006c8c:	6d7a      	ldr	r2, [r7, #84]	@ 0x54
 8006c8e:	63ba      	str	r2, [r7, #56]	@ 0x38
 8006c90:	637b      	str	r3, [r7, #52]	@ 0x34
   __ASM volatile ("strex %0, %2, %1" : "=&r" (result), "=Q" (*addr) : "r" (value) );
 8006c92:	6b79      	ldr	r1, [r7, #52]	@ 0x34
 8006c94:	6bba      	ldr	r2, [r7, #56]	@ 0x38
 8006c96:	e841 2300 	strex	r3, r2, [r1]
 8006c9a:	633b      	str	r3, [r7, #48]	@ 0x30
   return(result);
 8006c9c:	6b3b      	ldr	r3, [r7, #48]	@ 0x30
 8006c9e:	2b00      	cmp	r3, #0
 8006ca0:	d1e5      	bne.n	8006c6e <UART_Start_Receive_DMA+0xce>

  /* Enable the DMA transfer for the receiver request by setting the DMAR bit
  in the UART CR3 register */
  ATOMIC_SET_BIT(huart->Instance->CR3, USART_CR3_DMAR);
 8006ca2:	68fb      	ldr	r3, [r7, #12]
 8006ca4:	681b      	ldr	r3, [r3, #0]
 8006ca6:	3314      	adds	r3, #20
 8006ca8:	61bb      	str	r3, [r7, #24]
   __ASM volatile ("ldrex %0, %1" : "=r" (result) : "Q" (*addr) );
 8006caa:	69bb      	ldr	r3, [r7, #24]
 8006cac:	e853 3f00 	ldrex	r3, [r3]
 8006cb0:	617b      	str	r3, [r7, #20]
   return(result);
 8006cb2:	697b      	ldr	r3, [r7, #20]
 8006cb4:	f043 0340 	orr.w	r3, r3, #64	@ 0x40
 8006cb8:	653b      	str	r3, [r7, #80]	@ 0x50
 8006cba:	68fb      	ldr	r3, [r7, #12]
 8006cbc:	681b      	ldr	r3, [r3, #0]
 8006cbe:	3314      	adds	r3, #20
 8006cc0:	6d3a      	ldr	r2, [r7, #80]	@ 0x50
 8006cc2:	627a      	str	r2, [r7, #36]	@ 0x24
 8006cc4:	623b      	str	r3, [r7, #32]
   __ASM volatile ("strex %0, %2, %1" : "=&r" (result), "=Q" (*addr) : "r" (value) );
 8006cc6:	6a39      	ldr	r1, [r7, #32]
 8006cc8:	6a7a      	ldr	r2, [r7, #36]	@ 0x24
 8006cca:	e841 2300 	strex	r3, r2, [r1]
 8006cce:	61fb      	str	r3, [r7, #28]
   return(result);
 8006cd0:	69fb      	ldr	r3, [r7, #28]
 8006cd2:	2b00      	cmp	r3, #0
 8006cd4:	d1e5      	bne.n	8006ca2 <UART_Start_Receive_DMA+0x102>

  return HAL_OK;
 8006cd6:	2300      	movs	r3, #0
}
 8006cd8:	4618      	mov	r0, r3
 8006cda:	3760      	adds	r7, #96	@ 0x60
 8006cdc:	46bd      	mov	sp, r7
 8006cde:	bd80      	pop	{r7, pc}
 8006ce0:	0800687d 	.word	0x0800687d
 8006ce4:	080069a9 	.word	0x080069a9
 8006ce8:	080069e5 	.word	0x080069e5

08006cec <UART_EndTxTransfer>:
  * @brief  End ongoing Tx transfer on UART peripheral (following error detection or Transmit completion).
  * @param  huart UART handle.
  * @retval None
  */
static void UART_EndTxTransfer(UART_HandleTypeDef *huart)
{
 8006cec:	b480      	push	{r7}
 8006cee:	b089      	sub	sp, #36	@ 0x24
 8006cf0:	af00      	add	r7, sp, #0
 8006cf2:	6078      	str	r0, [r7, #4]
  /* Disable TXEIE and TCIE interrupts */
  ATOMIC_CLEAR_BIT(huart->Instance->CR1, (USART_CR1_TXEIE | USART_CR1_TCIE));
 8006cf4:	687b      	ldr	r3, [r7, #4]
 8006cf6:	681b      	ldr	r3, [r3, #0]
 8006cf8:	330c      	adds	r3, #12
 8006cfa:	60fb      	str	r3, [r7, #12]
   __ASM volatile ("ldrex %0, %1" : "=r" (result) : "Q" (*addr) );
 8006cfc:	68fb      	ldr	r3, [r7, #12]
 8006cfe:	e853 3f00 	ldrex	r3, [r3]
 8006d02:	60bb      	str	r3, [r7, #8]
   return(result);
 8006d04:	68bb      	ldr	r3, [r7, #8]
 8006d06:	f023 03c0 	bic.w	r3, r3, #192	@ 0xc0
 8006d0a:	61fb      	str	r3, [r7, #28]
 8006d0c:	687b      	ldr	r3, [r7, #4]
 8006d0e:	681b      	ldr	r3, [r3, #0]
 8006d10:	330c      	adds	r3, #12
 8006d12:	69fa      	ldr	r2, [r7, #28]
 8006d14:	61ba      	str	r2, [r7, #24]
 8006d16:	617b      	str	r3, [r7, #20]
   __ASM volatile ("strex %0, %2, %1" : "=&r" (result), "=Q" (*addr) : "r" (value) );
 8006d18:	6979      	ldr	r1, [r7, #20]
 8006d1a:	69ba      	ldr	r2, [r7, #24]
 8006d1c:	e841 2300 	strex	r3, r2, [r1]
 8006d20:	613b      	str	r3, [r7, #16]
   return(result);
 8006d22:	693b      	ldr	r3, [r7, #16]
 8006d24:	2b00      	cmp	r3, #0
 8006d26:	d1e5      	bne.n	8006cf4 <UART_EndTxTransfer+0x8>

  /* At end of Tx process, restore huart->gState to Ready */
  huart->gState = HAL_UART_STATE_READY;
 8006d28:	687b      	ldr	r3, [r7, #4]
 8006d2a:	2220      	movs	r2, #32
 8006d2c:	f883 2041 	strb.w	r2, [r3, #65]	@ 0x41
}
 8006d30:	bf00      	nop
 8006d32:	3724      	adds	r7, #36	@ 0x24
 8006d34:	46bd      	mov	sp, r7
 8006d36:	f85d 7b04 	ldr.w	r7, [sp], #4
 8006d3a:	4770      	bx	lr

08006d3c <UART_EndRxTransfer>:
  * @brief  End ongoing Rx transfer on UART peripheral (following error detection or Reception completion).
  * @param  huart UART handle.
  * @retval None
  */
static void UART_EndRxTransfer(UART_HandleTypeDef *huart)
{
 8006d3c:	b480      	push	{r7}
 8006d3e:	b095      	sub	sp, #84	@ 0x54
 8006d40:	af00      	add	r7, sp, #0
 8006d42:	6078      	str	r0, [r7, #4]
  /* Disable RXNE, PE and ERR (Frame error, noise error, overrun error) interrupts */
  ATOMIC_CLEAR_BIT(huart->Instance->CR1, (USART_CR1_RXNEIE | USART_CR1_PEIE));
 8006d44:	687b      	ldr	r3, [r7, #4]
 8006d46:	681b      	ldr	r3, [r3, #0]
 8006d48:	330c      	adds	r3, #12
 8006d4a:	637b      	str	r3, [r7, #52]	@ 0x34
   __ASM volatile ("ldrex %0, %1" : "=r" (result) : "Q" (*addr) );
 8006d4c:	6b7b      	ldr	r3, [r7, #52]	@ 0x34
 8006d4e:	e853 3f00 	ldrex	r3, [r3]
 8006d52:	633b      	str	r3, [r7, #48]	@ 0x30
   return(result);
 8006d54:	6b3b      	ldr	r3, [r7, #48]	@ 0x30
 8006d56:	f423 7390 	bic.w	r3, r3, #288	@ 0x120
 8006d5a:	64fb      	str	r3, [r7, #76]	@ 0x4c
 8006d5c:	687b      	ldr	r3, [r7, #4]
 8006d5e:	681b      	ldr	r3, [r3, #0]
 8006d60:	330c      	adds	r3, #12
 8006d62:	6cfa      	ldr	r2, [r7, #76]	@ 0x4c
 8006d64:	643a      	str	r2, [r7, #64]	@ 0x40
 8006d66:	63fb      	str	r3, [r7, #60]	@ 0x3c
   __ASM volatile ("strex %0, %2, %1" : "=&r" (result), "=Q" (*addr) : "r" (value) );
 8006d68:	6bf9      	ldr	r1, [r7, #60]	@ 0x3c
 8006d6a:	6c3a      	ldr	r2, [r7, #64]	@ 0x40
 8006d6c:	e841 2300 	strex	r3, r2, [r1]
 8006d70:	63bb      	str	r3, [r7, #56]	@ 0x38
   return(result);
 8006d72:	6bbb      	ldr	r3, [r7, #56]	@ 0x38
 8006d74:	2b00      	cmp	r3, #0
 8006d76:	d1e5      	bne.n	8006d44 <UART_EndRxTransfer+0x8>
  ATOMIC_CLEAR_BIT(huart->Instance->CR3, USART_CR3_EIE);
 8006d78:	687b      	ldr	r3, [r7, #4]
 8006d7a:	681b      	ldr	r3, [r3, #0]
 8006d7c:	3314      	adds	r3, #20
 8006d7e:	623b      	str	r3, [r7, #32]
   __ASM volatile ("ldrex %0, %1" : "=r" (result) : "Q" (*addr) );
 8006d80:	6a3b      	ldr	r3, [r7, #32]
 8006d82:	e853 3f00 	ldrex	r3, [r3]
 8006d86:	61fb      	str	r3, [r7, #28]
   return(result);
 8006d88:	69fb      	ldr	r3, [r7, #28]
 8006d8a:	f023 0301 	bic.w	r3, r3, #1
 8006d8e:	64bb      	str	r3, [r7, #72]	@ 0x48
 8006d90:	687b      	ldr	r3, [r7, #4]
 8006d92:	681b      	ldr	r3, [r3, #0]
 8006d94:	3314      	adds	r3, #20
 8006d96:	6cba      	ldr	r2, [r7, #72]	@ 0x48
 8006d98:	62fa      	str	r2, [r7, #44]	@ 0x2c
 8006d9a:	62bb      	str	r3, [r7, #40]	@ 0x28
   __ASM volatile ("strex %0, %2, %1" : "=&r" (result), "=Q" (*addr) : "r" (value) );
 8006d9c:	6ab9      	ldr	r1, [r7, #40]	@ 0x28
 8006d9e:	6afa      	ldr	r2, [r7, #44]	@ 0x2c
 8006da0:	e841 2300 	strex	r3, r2, [r1]
 8006da4:	627b      	str	r3, [r7, #36]	@ 0x24
   return(result);
 8006da6:	6a7b      	ldr	r3, [r7, #36]	@ 0x24
 8006da8:	2b00      	cmp	r3, #0
 8006daa:	d1e5      	bne.n	8006d78 <UART_EndRxTransfer+0x3c>

  /* In case of reception waiting for IDLE event, disable also the IDLE IE interrupt source */
  if (huart->ReceptionType == HAL_UART_RECEPTION_TOIDLE)
 8006dac:	687b      	ldr	r3, [r7, #4]
 8006dae:	6b1b      	ldr	r3, [r3, #48]	@ 0x30
 8006db0:	2b01      	cmp	r3, #1
 8006db2:	d119      	bne.n	8006de8 <UART_EndRxTransfer+0xac>
  {
    ATOMIC_CLEAR_BIT(huart->Instance->CR1, USART_CR1_IDLEIE);
 8006db4:	687b      	ldr	r3, [r7, #4]
 8006db6:	681b      	ldr	r3, [r3, #0]
 8006db8:	330c      	adds	r3, #12
 8006dba:	60fb      	str	r3, [r7, #12]
   __ASM volatile ("ldrex %0, %1" : "=r" (result) : "Q" (*addr) );
 8006dbc:	68fb      	ldr	r3, [r7, #12]
 8006dbe:	e853 3f00 	ldrex	r3, [r3]
 8006dc2:	60bb      	str	r3, [r7, #8]
   return(result);
 8006dc4:	68bb      	ldr	r3, [r7, #8]
 8006dc6:	f023 0310 	bic.w	r3, r3, #16
 8006dca:	647b      	str	r3, [r7, #68]	@ 0x44
 8006dcc:	687b      	ldr	r3, [r7, #4]
 8006dce:	681b      	ldr	r3, [r3, #0]
 8006dd0:	330c      	adds	r3, #12
 8006dd2:	6c7a      	ldr	r2, [r7, #68]	@ 0x44
 8006dd4:	61ba      	str	r2, [r7, #24]
 8006dd6:	617b      	str	r3, [r7, #20]
   __ASM volatile ("strex %0, %2, %1" : "=&r" (result), "=Q" (*addr) : "r" (value) );
 8006dd8:	6979      	ldr	r1, [r7, #20]
 8006dda:	69ba      	ldr	r2, [r7, #24]
 8006ddc:	e841 2300 	strex	r3, r2, [r1]
 8006de0:	613b      	str	r3, [r7, #16]
   return(result);
 8006de2:	693b      	ldr	r3, [r7, #16]
 8006de4:	2b00      	cmp	r3, #0
 8006de6:	d1e5      	bne.n	8006db4 <UART_EndRxTransfer+0x78>
  }

  /* At end of Rx process, restore huart->RxState to Ready */
  huart->RxState = HAL_UART_STATE_READY;
 8006de8:	687b      	ldr	r3, [r7, #4]
 8006dea:	2220      	movs	r2, #32
 8006dec:	f883 2042 	strb.w	r2, [r3, #66]	@ 0x42
  huart->ReceptionType = HAL_UART_RECEPTION_STANDARD;
 8006df0:	687b      	ldr	r3, [r7, #4]
 8006df2:	2200      	movs	r2, #0
 8006df4:	631a      	str	r2, [r3, #48]	@ 0x30
}
 8006df6:	bf00      	nop
 8006df8:	3754      	adds	r7, #84	@ 0x54
 8006dfa:	46bd      	mov	sp, r7
 8006dfc:	f85d 7b04 	ldr.w	r7, [sp], #4
 8006e00:	4770      	bx	lr
	...

08006e04 <UART_SetConfig>:
  * @param  huart  Pointer to a UART_HandleTypeDef structure that contains
  *                the configuration information for the specified UART module.
  * @retval None
  */
static void UART_SetConfig(UART_HandleTypeDef *huart)
{
 8006e04:	e92d 4fb0 	stmdb	sp!, {r4, r5, r7, r8, r9, sl, fp, lr}
 8006e08:	b0c0      	sub	sp, #256	@ 0x100
 8006e0a:	af00      	add	r7, sp, #0
 8006e0c:	f8c7 00f4 	str.w	r0, [r7, #244]	@ 0xf4
  assert_param(IS_UART_MODE(huart->Init.Mode));

  /*-------------------------- USART CR2 Configuration -----------------------*/
  /* Configure the UART Stop Bits: Set STOP[13:12] bits
     according to huart->Init.StopBits value */
  MODIFY_REG(huart->Instance->CR2, USART_CR2_STOP, huart->Init.StopBits);
 8006e10:	f8d7 30f4 	ldr.w	r3, [r7, #244]	@ 0xf4
 8006e14:	681b      	ldr	r3, [r3, #0]
 8006e16:	691b      	ldr	r3, [r3, #16]
 8006e18:	f423 5040 	bic.w	r0, r3, #12288	@ 0x3000
 8006e1c:	f8d7 30f4 	ldr.w	r3, [r7, #244]	@ 0xf4
 8006e20:	68d9      	ldr	r1, [r3, #12]
 8006e22:	f8d7 30f4 	ldr.w	r3, [r7, #244]	@ 0xf4
 8006e26:	681a      	ldr	r2, [r3, #0]
 8006e28:	ea40 0301 	orr.w	r3, r0, r1
 8006e2c:	6113      	str	r3, [r2, #16]
     Set the M bits according to huart->Init.WordLength value
     Set PCE and PS bits according to huart->Init.Parity value
     Set TE and RE bits according to huart->Init.Mode value
     Set OVER8 bit according to huart->Init.OverSampling value */

  tmpreg = (uint32_t)huart->Init.WordLength | huart->Init.Parity | huart->Init.Mode | huart->Init.OverSampling;
 8006e2e:	f8d7 30f4 	ldr.w	r3, [r7, #244]	@ 0xf4
 8006e32:	689a      	ldr	r2, [r3, #8]
 8006e34:	f8d7 30f4 	ldr.w	r3, [r7, #244]	@ 0xf4
 8006e38:	691b      	ldr	r3, [r3, #16]
 8006e3a:	431a      	orrs	r2, r3
 8006e3c:	f8d7 30f4 	ldr.w	r3, [r7, #244]	@ 0xf4
 8006e40:	695b      	ldr	r3, [r3, #20]
 8006e42:	431a      	orrs	r2, r3
 8006e44:	f8d7 30f4 	ldr.w	r3, [r7, #244]	@ 0xf4
 8006e48:	69db      	ldr	r3, [r3, #28]
 8006e4a:	4313      	orrs	r3, r2
 8006e4c:	f8c7 30f8 	str.w	r3, [r7, #248]	@ 0xf8
  MODIFY_REG(huart->Instance->CR1,
 8006e50:	f8d7 30f4 	ldr.w	r3, [r7, #244]	@ 0xf4
 8006e54:	681b      	ldr	r3, [r3, #0]
 8006e56:	68db      	ldr	r3, [r3, #12]
 8006e58:	f423 4116 	bic.w	r1, r3, #38400	@ 0x9600
 8006e5c:	f021 010c 	bic.w	r1, r1, #12
 8006e60:	f8d7 30f4 	ldr.w	r3, [r7, #244]	@ 0xf4
 8006e64:	681a      	ldr	r2, [r3, #0]
 8006e66:	f8d7 30f8 	ldr.w	r3, [r7, #248]	@ 0xf8
 8006e6a:	430b      	orrs	r3, r1
 8006e6c:	60d3      	str	r3, [r2, #12]
             (uint32_t)(USART_CR1_M | USART_CR1_PCE | USART_CR1_PS | USART_CR1_TE | USART_CR1_RE | USART_CR1_OVER8),
             tmpreg);

  /*-------------------------- USART CR3 Configuration -----------------------*/
  /* Configure the UART HFC: Set CTSE and RTSE bits according to huart->Init.HwFlowCtl value */
  MODIFY_REG(huart->Instance->CR3, (USART_CR3_RTSE | USART_CR3_CTSE), huart->Init.HwFlowCtl);
 8006e6e:	f8d7 30f4 	ldr.w	r3, [r7, #244]	@ 0xf4
 8006e72:	681b      	ldr	r3, [r3, #0]
 8006e74:	695b      	ldr	r3, [r3, #20]
 8006e76:	f423 7040 	bic.w	r0, r3, #768	@ 0x300
 8006e7a:	f8d7 30f4 	ldr.w	r3, [r7, #244]	@ 0xf4
 8006e7e:	6999      	ldr	r1, [r3, #24]
 8006e80:	f8d7 30f4 	ldr.w	r3, [r7, #244]	@ 0xf4
 8006e84:	681a      	ldr	r2, [r3, #0]
 8006e86:	ea40 0301 	orr.w	r3, r0, r1
 8006e8a:	6153      	str	r3, [r2, #20]
    if ((huart->Instance == USART1) || (huart->Instance == USART6) || (huart->Instance == UART9) || (huart->Instance == UART10))
    {
      pclk = HAL_RCC_GetPCLK2Freq();
    }
#elif defined(USART6)
    if ((huart->Instance == USART1) || (huart->Instance == USART6))
 8006e8c:	f8d7 30f4 	ldr.w	r3, [r7, #244]	@ 0xf4
 8006e90:	681a      	ldr	r2, [r3, #0]
 8006e92:	4b8f      	ldr	r3, [pc, #572]	@ (80070d0 <UART_SetConfig+0x2cc>)
 8006e94:	429a      	cmp	r2, r3
 8006e96:	d005      	beq.n	8006ea4 <UART_SetConfig+0xa0>
 8006e98:	f8d7 30f4 	ldr.w	r3, [r7, #244]	@ 0xf4
 8006e9c:	681a      	ldr	r2, [r3, #0]
 8006e9e:	4b8d      	ldr	r3, [pc, #564]	@ (80070d4 <UART_SetConfig+0x2d0>)
 8006ea0:	429a      	cmp	r2, r3
 8006ea2:	d104      	bne.n	8006eae <UART_SetConfig+0xaa>
    {
      pclk = HAL_RCC_GetPCLK2Freq();
 8006ea4:	f7fe f98e 	bl	80051c4 <HAL_RCC_GetPCLK2Freq>
 8006ea8:	f8c7 00fc 	str.w	r0, [r7, #252]	@ 0xfc
 8006eac:	e003      	b.n	8006eb6 <UART_SetConfig+0xb2>
      pclk = HAL_RCC_GetPCLK2Freq();
    }
#endif /* USART6 */
    else
    {
      pclk = HAL_RCC_GetPCLK1Freq();
 8006eae:	f7fe f975 	bl	800519c <HAL_RCC_GetPCLK1Freq>
 8006eb2:	f8c7 00fc 	str.w	r0, [r7, #252]	@ 0xfc
    }
  /*-------------------------- USART BRR Configuration ---------------------*/
  if (huart->Init.OverSampling == UART_OVERSAMPLING_8)
 8006eb6:	f8d7 30f4 	ldr.w	r3, [r7, #244]	@ 0xf4
 8006eba:	69db      	ldr	r3, [r3, #28]
 8006ebc:	f5b3 4f00 	cmp.w	r3, #32768	@ 0x8000
 8006ec0:	f040 810c 	bne.w	80070dc <UART_SetConfig+0x2d8>
  {
    huart->Instance->BRR = UART_BRR_SAMPLING8(pclk, huart->Init.BaudRate);
 8006ec4:	f8d7 30fc 	ldr.w	r3, [r7, #252]	@ 0xfc
 8006ec8:	2200      	movs	r2, #0
 8006eca:	f8c7 30e8 	str.w	r3, [r7, #232]	@ 0xe8
 8006ece:	f8c7 20ec 	str.w	r2, [r7, #236]	@ 0xec
 8006ed2:	e9d7 453a 	ldrd	r4, r5, [r7, #232]	@ 0xe8
 8006ed6:	4622      	mov	r2, r4
 8006ed8:	462b      	mov	r3, r5
 8006eda:	1891      	adds	r1, r2, r2
 8006edc:	65b9      	str	r1, [r7, #88]	@ 0x58
 8006ede:	415b      	adcs	r3, r3
 8006ee0:	65fb      	str	r3, [r7, #92]	@ 0x5c
 8006ee2:	e9d7 2316 	ldrd	r2, r3, [r7, #88]	@ 0x58
 8006ee6:	4621      	mov	r1, r4
 8006ee8:	eb12 0801 	adds.w	r8, r2, r1
 8006eec:	4629      	mov	r1, r5
 8006eee:	eb43 0901 	adc.w	r9, r3, r1
 8006ef2:	f04f 0200 	mov.w	r2, #0
 8006ef6:	f04f 0300 	mov.w	r3, #0
 8006efa:	ea4f 03c9 	mov.w	r3, r9, lsl #3
 8006efe:	ea43 7358 	orr.w	r3, r3, r8, lsr #29
 8006f02:	ea4f 02c8 	mov.w	r2, r8, lsl #3
 8006f06:	4690      	mov	r8, r2
 8006f08:	4699      	mov	r9, r3
 8006f0a:	4623      	mov	r3, r4
 8006f0c:	eb18 0303 	adds.w	r3, r8, r3
 8006f10:	f8c7 30e0 	str.w	r3, [r7, #224]	@ 0xe0
 8006f14:	462b      	mov	r3, r5
 8006f16:	eb49 0303 	adc.w	r3, r9, r3
 8006f1a:	f8c7 30e4 	str.w	r3, [r7, #228]	@ 0xe4
 8006f1e:	f8d7 30f4 	ldr.w	r3, [r7, #244]	@ 0xf4
 8006f22:	685b      	ldr	r3, [r3, #4]
 8006f24:	2200      	movs	r2, #0
 8006f26:	f8c7 30d8 	str.w	r3, [r7, #216]	@ 0xd8
 8006f2a:	f8c7 20dc 	str.w	r2, [r7, #220]	@ 0xdc
 8006f2e:	e9d7 1236 	ldrd	r1, r2, [r7, #216]	@ 0xd8
 8006f32:	460b      	mov	r3, r1
 8006f34:	18db      	adds	r3, r3, r3
 8006f36:	653b      	str	r3, [r7, #80]	@ 0x50
 8006f38:	4613      	mov	r3, r2
 8006f3a:	eb42 0303 	adc.w	r3, r2, r3
 8006f3e:	657b      	str	r3, [r7, #84]	@ 0x54
 8006f40:	e9d7 2314 	ldrd	r2, r3, [r7, #80]	@ 0x50
 8006f44:	e9d7 0138 	ldrd	r0, r1, [r7, #224]	@ 0xe0
 8006f48:	f7f9 f9b2 	bl	80002b0 <__aeabi_uldivmod>
 8006f4c:	4602      	mov	r2, r0
 8006f4e:	460b      	mov	r3, r1
 8006f50:	4b61      	ldr	r3, [pc, #388]	@ (80070d8 <UART_SetConfig+0x2d4>)
 8006f52:	fba3 2302 	umull	r2, r3, r3, r2
 8006f56:	095b      	lsrs	r3, r3, #5
 8006f58:	011c      	lsls	r4, r3, #4
 8006f5a:	f8d7 30fc 	ldr.w	r3, [r7, #252]	@ 0xfc
 8006f5e:	2200      	movs	r2, #0
 8006f60:	f8c7 30d0 	str.w	r3, [r7, #208]	@ 0xd0
 8006f64:	f8c7 20d4 	str.w	r2, [r7, #212]	@ 0xd4
 8006f68:	e9d7 8934 	ldrd	r8, r9, [r7, #208]	@ 0xd0
 8006f6c:	4642      	mov	r2, r8
 8006f6e:	464b      	mov	r3, r9
 8006f70:	1891      	adds	r1, r2, r2
 8006f72:	64b9      	str	r1, [r7, #72]	@ 0x48
 8006f74:	415b      	adcs	r3, r3
 8006f76:	64fb      	str	r3, [r7, #76]	@ 0x4c
 8006f78:	e9d7 2312 	ldrd	r2, r3, [r7, #72]	@ 0x48
 8006f7c:	4641      	mov	r1, r8
 8006f7e:	eb12 0a01 	adds.w	sl, r2, r1
 8006f82:	4649      	mov	r1, r9
 8006f84:	eb43 0b01 	adc.w	fp, r3, r1
 8006f88:	f04f 0200 	mov.w	r2, #0
 8006f8c:	f04f 0300 	mov.w	r3, #0
 8006f90:	ea4f 03cb 	mov.w	r3, fp, lsl #3
 8006f94:	ea43 735a 	orr.w	r3, r3, sl, lsr #29
 8006f98:	ea4f 02ca 	mov.w	r2, sl, lsl #3
 8006f9c:	4692      	mov	sl, r2
 8006f9e:	469b      	mov	fp, r3
 8006fa0:	4643      	mov	r3, r8
 8006fa2:	eb1a 0303 	adds.w	r3, sl, r3
 8006fa6:	f8c7 30c8 	str.w	r3, [r7, #200]	@ 0xc8
 8006faa:	464b      	mov	r3, r9
 8006fac:	eb4b 0303 	adc.w	r3, fp, r3
 8006fb0:	f8c7 30cc 	str.w	r3, [r7, #204]	@ 0xcc
 8006fb4:	f8d7 30f4 	ldr.w	r3, [r7, #244]	@ 0xf4
 8006fb8:	685b      	ldr	r3, [r3, #4]
 8006fba:	2200      	movs	r2, #0
 8006fbc:	f8c7 30c0 	str.w	r3, [r7, #192]	@ 0xc0
 8006fc0:	f8c7 20c4 	str.w	r2, [r7, #196]	@ 0xc4
 8006fc4:	e9d7 1230 	ldrd	r1, r2, [r7, #192]	@ 0xc0
 8006fc8:	460b      	mov	r3, r1
 8006fca:	18db      	adds	r3, r3, r3
 8006fcc:	643b      	str	r3, [r7, #64]	@ 0x40
 8006fce:	4613      	mov	r3, r2
 8006fd0:	eb42 0303 	adc.w	r3, r2, r3
 8006fd4:	647b      	str	r3, [r7, #68]	@ 0x44
 8006fd6:	e9d7 2310 	ldrd	r2, r3, [r7, #64]	@ 0x40
 8006fda:	e9d7 0132 	ldrd	r0, r1, [r7, #200]	@ 0xc8
 8006fde:	f7f9 f967 	bl	80002b0 <__aeabi_uldivmod>
 8006fe2:	4602      	mov	r2, r0
 8006fe4:	460b      	mov	r3, r1
 8006fe6:	4611      	mov	r1, r2
 8006fe8:	4b3b      	ldr	r3, [pc, #236]	@ (80070d8 <UART_SetConfig+0x2d4>)
 8006fea:	fba3 2301 	umull	r2, r3, r3, r1
 8006fee:	095b      	lsrs	r3, r3, #5
 8006ff0:	2264      	movs	r2, #100	@ 0x64
 8006ff2:	fb02 f303 	mul.w	r3, r2, r3
 8006ff6:	1acb      	subs	r3, r1, r3
 8006ff8:	00db      	lsls	r3, r3, #3
 8006ffa:	f103 0232 	add.w	r2, r3, #50	@ 0x32
 8006ffe:	4b36      	ldr	r3, [pc, #216]	@ (80070d8 <UART_SetConfig+0x2d4>)
 8007000:	fba3 2302 	umull	r2, r3, r3, r2
 8007004:	095b      	lsrs	r3, r3, #5
 8007006:	005b      	lsls	r3, r3, #1
 8007008:	f403 73f8 	and.w	r3, r3, #496	@ 0x1f0
 800700c:	441c      	add	r4, r3
 800700e:	f8d7 30fc 	ldr.w	r3, [r7, #252]	@ 0xfc
 8007012:	2200      	movs	r2, #0
 8007014:	f8c7 30b8 	str.w	r3, [r7, #184]	@ 0xb8
 8007018:	f8c7 20bc 	str.w	r2, [r7, #188]	@ 0xbc
 800701c:	e9d7 892e 	ldrd	r8, r9, [r7, #184]	@ 0xb8
 8007020:	4642      	mov	r2, r8
 8007022:	464b      	mov	r3, r9
 8007024:	1891      	adds	r1, r2, r2
 8007026:	63b9      	str	r1, [r7, #56]	@ 0x38
 8007028:	415b      	adcs	r3, r3
 800702a:	63fb      	str	r3, [r7, #60]	@ 0x3c
 800702c:	e9d7 230e 	ldrd	r2, r3, [r7, #56]	@ 0x38
 8007030:	4641      	mov	r1, r8
 8007032:	1851      	adds	r1, r2, r1
 8007034:	6339      	str	r1, [r7, #48]	@ 0x30
 8007036:	4649      	mov	r1, r9
 8007038:	414b      	adcs	r3, r1
 800703a:	637b      	str	r3, [r7, #52]	@ 0x34
 800703c:	f04f 0200 	mov.w	r2, #0
 8007040:	f04f 0300 	mov.w	r3, #0
 8007044:	e9d7 ab0c 	ldrd	sl, fp, [r7, #48]	@ 0x30
 8007048:	4659      	mov	r1, fp
 800704a:	00cb      	lsls	r3, r1, #3
 800704c:	4651      	mov	r1, sl
 800704e:	ea43 7351 	orr.w	r3, r3, r1, lsr #29
 8007052:	4651      	mov	r1, sl
 8007054:	00ca      	lsls	r2, r1, #3
 8007056:	4610      	mov	r0, r2
 8007058:	4619      	mov	r1, r3
 800705a:	4603      	mov	r3, r0
 800705c:	4642      	mov	r2, r8
 800705e:	189b      	adds	r3, r3, r2
 8007060:	f8c7 30b0 	str.w	r3, [r7, #176]	@ 0xb0
 8007064:	464b      	mov	r3, r9
 8007066:	460a      	mov	r2, r1
 8007068:	eb42 0303 	adc.w	r3, r2, r3
 800706c:	f8c7 30b4 	str.w	r3, [r7, #180]	@ 0xb4
 8007070:	f8d7 30f4 	ldr.w	r3, [r7, #244]	@ 0xf4
 8007074:	685b      	ldr	r3, [r3, #4]
 8007076:	2200      	movs	r2, #0
 8007078:	f8c7 30a8 	str.w	r3, [r7, #168]	@ 0xa8
 800707c:	f8c7 20ac 	str.w	r2, [r7, #172]	@ 0xac
 8007080:	e9d7 122a 	ldrd	r1, r2, [r7, #168]	@ 0xa8
 8007084:	460b      	mov	r3, r1
 8007086:	18db      	adds	r3, r3, r3
 8007088:	62bb      	str	r3, [r7, #40]	@ 0x28
 800708a:	4613      	mov	r3, r2
 800708c:	eb42 0303 	adc.w	r3, r2, r3
 8007090:	62fb      	str	r3, [r7, #44]	@ 0x2c
 8007092:	e9d7 230a 	ldrd	r2, r3, [r7, #40]	@ 0x28
 8007096:	e9d7 012c 	ldrd	r0, r1, [r7, #176]	@ 0xb0
 800709a:	f7f9 f909 	bl	80002b0 <__aeabi_uldivmod>
 800709e:	4602      	mov	r2, r0
 80070a0:	460b      	mov	r3, r1
 80070a2:	4b0d      	ldr	r3, [pc, #52]	@ (80070d8 <UART_SetConfig+0x2d4>)
 80070a4:	fba3 1302 	umull	r1, r3, r3, r2
 80070a8:	095b      	lsrs	r3, r3, #5
 80070aa:	2164      	movs	r1, #100	@ 0x64
 80070ac:	fb01 f303 	mul.w	r3, r1, r3
 80070b0:	1ad3      	subs	r3, r2, r3
 80070b2:	00db      	lsls	r3, r3, #3
 80070b4:	3332      	adds	r3, #50	@ 0x32
 80070b6:	4a08      	ldr	r2, [pc, #32]	@ (80070d8 <UART_SetConfig+0x2d4>)
 80070b8:	fba2 2303 	umull	r2, r3, r2, r3
 80070bc:	095b      	lsrs	r3, r3, #5
 80070be:	f003 0207 	and.w	r2, r3, #7
 80070c2:	f8d7 30f4 	ldr.w	r3, [r7, #244]	@ 0xf4
 80070c6:	681b      	ldr	r3, [r3, #0]
 80070c8:	4422      	add	r2, r4
 80070ca:	609a      	str	r2, [r3, #8]
  }
  else
  {
    huart->Instance->BRR = UART_BRR_SAMPLING16(pclk, huart->Init.BaudRate);
  }
}
 80070cc:	e106      	b.n	80072dc <UART_SetConfig+0x4d8>
 80070ce:	bf00      	nop
 80070d0:	40011000 	.word	0x40011000
 80070d4:	40011400 	.word	0x40011400
 80070d8:	51eb851f 	.word	0x51eb851f
    huart->Instance->BRR = UART_BRR_SAMPLING16(pclk, huart->Init.BaudRate);
 80070dc:	f8d7 30fc 	ldr.w	r3, [r7, #252]	@ 0xfc
 80070e0:	2200      	movs	r2, #0
 80070e2:	f8c7 30a0 	str.w	r3, [r7, #160]	@ 0xa0
 80070e6:	f8c7 20a4 	str.w	r2, [r7, #164]	@ 0xa4
 80070ea:	e9d7 8928 	ldrd	r8, r9, [r7, #160]	@ 0xa0
 80070ee:	4642      	mov	r2, r8
 80070f0:	464b      	mov	r3, r9
 80070f2:	1891      	adds	r1, r2, r2
 80070f4:	6239      	str	r1, [r7, #32]
 80070f6:	415b      	adcs	r3, r3
 80070f8:	627b      	str	r3, [r7, #36]	@ 0x24
 80070fa:	e9d7 2308 	ldrd	r2, r3, [r7, #32]
 80070fe:	4641      	mov	r1, r8
 8007100:	1854      	adds	r4, r2, r1
 8007102:	4649      	mov	r1, r9
 8007104:	eb43 0501 	adc.w	r5, r3, r1
 8007108:	f04f 0200 	mov.w	r2, #0
 800710c:	f04f 0300 	mov.w	r3, #0
 8007110:	00eb      	lsls	r3, r5, #3
 8007112:	ea43 7354 	orr.w	r3, r3, r4, lsr #29
 8007116:	00e2      	lsls	r2, r4, #3
 8007118:	4614      	mov	r4, r2
 800711a:	461d      	mov	r5, r3
 800711c:	4643      	mov	r3, r8
 800711e:	18e3      	adds	r3, r4, r3
 8007120:	f8c7 3098 	str.w	r3, [r7, #152]	@ 0x98
 8007124:	464b      	mov	r3, r9
 8007126:	eb45 0303 	adc.w	r3, r5, r3
 800712a:	f8c7 309c 	str.w	r3, [r7, #156]	@ 0x9c
 800712e:	f8d7 30f4 	ldr.w	r3, [r7, #244]	@ 0xf4
 8007132:	685b      	ldr	r3, [r3, #4]
 8007134:	2200      	movs	r2, #0
 8007136:	f8c7 3090 	str.w	r3, [r7, #144]	@ 0x90
 800713a:	f8c7 2094 	str.w	r2, [r7, #148]	@ 0x94
 800713e:	f04f 0200 	mov.w	r2, #0
 8007142:	f04f 0300 	mov.w	r3, #0
 8007146:	e9d7 4524 	ldrd	r4, r5, [r7, #144]	@ 0x90
 800714a:	4629      	mov	r1, r5
 800714c:	008b      	lsls	r3, r1, #2
 800714e:	4621      	mov	r1, r4
 8007150:	ea43 7391 	orr.w	r3, r3, r1, lsr #30
 8007154:	4621      	mov	r1, r4
 8007156:	008a      	lsls	r2, r1, #2
 8007158:	e9d7 0126 	ldrd	r0, r1, [r7, #152]	@ 0x98
 800715c:	f7f9 f8a8 	bl	80002b0 <__aeabi_uldivmod>
 8007160:	4602      	mov	r2, r0
 8007162:	460b      	mov	r3, r1
 8007164:	4b60      	ldr	r3, [pc, #384]	@ (80072e8 <UART_SetConfig+0x4e4>)
 8007166:	fba3 2302 	umull	r2, r3, r3, r2
 800716a:	095b      	lsrs	r3, r3, #5
 800716c:	011c      	lsls	r4, r3, #4
 800716e:	f8d7 30fc 	ldr.w	r3, [r7, #252]	@ 0xfc
 8007172:	2200      	movs	r2, #0
 8007174:	f8c7 3088 	str.w	r3, [r7, #136]	@ 0x88
 8007178:	f8c7 208c 	str.w	r2, [r7, #140]	@ 0x8c
 800717c:	e9d7 8922 	ldrd	r8, r9, [r7, #136]	@ 0x88
 8007180:	4642      	mov	r2, r8
 8007182:	464b      	mov	r3, r9
 8007184:	1891      	adds	r1, r2, r2
 8007186:	61b9      	str	r1, [r7, #24]
 8007188:	415b      	adcs	r3, r3
 800718a:	61fb      	str	r3, [r7, #28]
 800718c:	e9d7 2306 	ldrd	r2, r3, [r7, #24]
 8007190:	4641      	mov	r1, r8
 8007192:	1851      	adds	r1, r2, r1
 8007194:	6139      	str	r1, [r7, #16]
 8007196:	4649      	mov	r1, r9
 8007198:	414b      	adcs	r3, r1
 800719a:	617b      	str	r3, [r7, #20]
 800719c:	f04f 0200 	mov.w	r2, #0
 80071a0:	f04f 0300 	mov.w	r3, #0
 80071a4:	e9d7 ab04 	ldrd	sl, fp, [r7, #16]
 80071a8:	4659      	mov	r1, fp
 80071aa:	00cb      	lsls	r3, r1, #3
 80071ac:	4651      	mov	r1, sl
 80071ae:	ea43 7351 	orr.w	r3, r3, r1, lsr #29
 80071b2:	4651      	mov	r1, sl
 80071b4:	00ca      	lsls	r2, r1, #3
 80071b6:	4610      	mov	r0, r2
 80071b8:	4619      	mov	r1, r3
 80071ba:	4603      	mov	r3, r0
 80071bc:	4642      	mov	r2, r8
 80071be:	189b      	adds	r3, r3, r2
 80071c0:	f8c7 3080 	str.w	r3, [r7, #128]	@ 0x80
 80071c4:	464b      	mov	r3, r9
 80071c6:	460a      	mov	r2, r1
 80071c8:	eb42 0303 	adc.w	r3, r2, r3
 80071cc:	f8c7 3084 	str.w	r3, [r7, #132]	@ 0x84
 80071d0:	f8d7 30f4 	ldr.w	r3, [r7, #244]	@ 0xf4
 80071d4:	685b      	ldr	r3, [r3, #4]
 80071d6:	2200      	movs	r2, #0
 80071d8:	67bb      	str	r3, [r7, #120]	@ 0x78
 80071da:	67fa      	str	r2, [r7, #124]	@ 0x7c
 80071dc:	f04f 0200 	mov.w	r2, #0
 80071e0:	f04f 0300 	mov.w	r3, #0
 80071e4:	e9d7 891e 	ldrd	r8, r9, [r7, #120]	@ 0x78
 80071e8:	4649      	mov	r1, r9
 80071ea:	008b      	lsls	r3, r1, #2
 80071ec:	4641      	mov	r1, r8
 80071ee:	ea43 7391 	orr.w	r3, r3, r1, lsr #30
 80071f2:	4641      	mov	r1, r8
 80071f4:	008a      	lsls	r2, r1, #2
 80071f6:	e9d7 0120 	ldrd	r0, r1, [r7, #128]	@ 0x80
 80071fa:	f7f9 f859 	bl	80002b0 <__aeabi_uldivmod>
 80071fe:	4602      	mov	r2, r0
 8007200:	460b      	mov	r3, r1
 8007202:	4611      	mov	r1, r2
 8007204:	4b38      	ldr	r3, [pc, #224]	@ (80072e8 <UART_SetConfig+0x4e4>)
 8007206:	fba3 2301 	umull	r2, r3, r3, r1
 800720a:	095b      	lsrs	r3, r3, #5
 800720c:	2264      	movs	r2, #100	@ 0x64
 800720e:	fb02 f303 	mul.w	r3, r2, r3
 8007212:	1acb      	subs	r3, r1, r3
 8007214:	011b      	lsls	r3, r3, #4
 8007216:	3332      	adds	r3, #50	@ 0x32
 8007218:	4a33      	ldr	r2, [pc, #204]	@ (80072e8 <UART_SetConfig+0x4e4>)
 800721a:	fba2 2303 	umull	r2, r3, r2, r3
 800721e:	095b      	lsrs	r3, r3, #5
 8007220:	f003 03f0 	and.w	r3, r3, #240	@ 0xf0
 8007224:	441c      	add	r4, r3
 8007226:	f8d7 30fc 	ldr.w	r3, [r7, #252]	@ 0xfc
 800722a:	2200      	movs	r2, #0
 800722c:	673b      	str	r3, [r7, #112]	@ 0x70
 800722e:	677a      	str	r2, [r7, #116]	@ 0x74
 8007230:	e9d7 891c 	ldrd	r8, r9, [r7, #112]	@ 0x70
 8007234:	4642      	mov	r2, r8
 8007236:	464b      	mov	r3, r9
 8007238:	1891      	adds	r1, r2, r2
 800723a:	60b9      	str	r1, [r7, #8]
 800723c:	415b      	adcs	r3, r3
 800723e:	60fb      	str	r3, [r7, #12]
 8007240:	e9d7 2302 	ldrd	r2, r3, [r7, #8]
 8007244:	4641      	mov	r1, r8
 8007246:	1851      	adds	r1, r2, r1
 8007248:	6039      	str	r1, [r7, #0]
 800724a:	4649      	mov	r1, r9
 800724c:	414b      	adcs	r3, r1
 800724e:	607b      	str	r3, [r7, #4]
 8007250:	f04f 0200 	mov.w	r2, #0
 8007254:	f04f 0300 	mov.w	r3, #0
 8007258:	e9d7 ab00 	ldrd	sl, fp, [r7]
 800725c:	4659      	mov	r1, fp
 800725e:	00cb      	lsls	r3, r1, #3
 8007260:	4651      	mov	r1, sl
 8007262:	ea43 7351 	orr.w	r3, r3, r1, lsr #29
 8007266:	4651      	mov	r1, sl
 8007268:	00ca      	lsls	r2, r1, #3
 800726a:	4610      	mov	r0, r2
 800726c:	4619      	mov	r1, r3
 800726e:	4603      	mov	r3, r0
 8007270:	4642      	mov	r2, r8
 8007272:	189b      	adds	r3, r3, r2
 8007274:	66bb      	str	r3, [r7, #104]	@ 0x68
 8007276:	464b      	mov	r3, r9
 8007278:	460a      	mov	r2, r1
 800727a:	eb42 0303 	adc.w	r3, r2, r3
 800727e:	66fb      	str	r3, [r7, #108]	@ 0x6c
 8007280:	f8d7 30f4 	ldr.w	r3, [r7, #244]	@ 0xf4
 8007284:	685b      	ldr	r3, [r3, #4]
 8007286:	2200      	movs	r2, #0
 8007288:	663b      	str	r3, [r7, #96]	@ 0x60
 800728a:	667a      	str	r2, [r7, #100]	@ 0x64
 800728c:	f04f 0200 	mov.w	r2, #0
 8007290:	f04f 0300 	mov.w	r3, #0
 8007294:	e9d7 8918 	ldrd	r8, r9, [r7, #96]	@ 0x60
 8007298:	4649      	mov	r1, r9
 800729a:	008b      	lsls	r3, r1, #2
 800729c:	4641      	mov	r1, r8
 800729e:	ea43 7391 	orr.w	r3, r3, r1, lsr #30
 80072a2:	4641      	mov	r1, r8
 80072a4:	008a      	lsls	r2, r1, #2
 80072a6:	e9d7 011a 	ldrd	r0, r1, [r7, #104]	@ 0x68
 80072aa:	f7f9 f801 	bl	80002b0 <__aeabi_uldivmod>
 80072ae:	4602      	mov	r2, r0
 80072b0:	460b      	mov	r3, r1
 80072b2:	4b0d      	ldr	r3, [pc, #52]	@ (80072e8 <UART_SetConfig+0x4e4>)
 80072b4:	fba3 1302 	umull	r1, r3, r3, r2
 80072b8:	095b      	lsrs	r3, r3, #5
 80072ba:	2164      	movs	r1, #100	@ 0x64
 80072bc:	fb01 f303 	mul.w	r3, r1, r3
 80072c0:	1ad3      	subs	r3, r2, r3
 80072c2:	011b      	lsls	r3, r3, #4
 80072c4:	3332      	adds	r3, #50	@ 0x32
 80072c6:	4a08      	ldr	r2, [pc, #32]	@ (80072e8 <UART_SetConfig+0x4e4>)
 80072c8:	fba2 2303 	umull	r2, r3, r2, r3
 80072cc:	095b      	lsrs	r3, r3, #5
 80072ce:	f003 020f 	and.w	r2, r3, #15
 80072d2:	f8d7 30f4 	ldr.w	r3, [r7, #244]	@ 0xf4
 80072d6:	681b      	ldr	r3, [r3, #0]
 80072d8:	4422      	add	r2, r4
 80072da:	609a      	str	r2, [r3, #8]
}
 80072dc:	bf00      	nop
 80072de:	f507 7780 	add.w	r7, r7, #256	@ 0x100
 80072e2:	46bd      	mov	sp, r7
 80072e4:	e8bd 8fb0 	ldmia.w	sp!, {r4, r5, r7, r8, r9, sl, fp, pc}
 80072e8:	51eb851f 	.word	0x51eb851f

080072ec <std>:
 80072ec:	2300      	movs	r3, #0
 80072ee:	b510      	push	{r4, lr}
 80072f0:	4604      	mov	r4, r0
 80072f2:	e9c0 3300 	strd	r3, r3, [r0]
 80072f6:	e9c0 3304 	strd	r3, r3, [r0, #16]
 80072fa:	6083      	str	r3, [r0, #8]
 80072fc:	8181      	strh	r1, [r0, #12]
 80072fe:	6643      	str	r3, [r0, #100]	@ 0x64
 8007300:	81c2      	strh	r2, [r0, #14]
 8007302:	6183      	str	r3, [r0, #24]
 8007304:	4619      	mov	r1, r3
 8007306:	2208      	movs	r2, #8
 8007308:	305c      	adds	r0, #92	@ 0x5c
 800730a:	f000 f9f9 	bl	8007700 <memset>
 800730e:	4b0d      	ldr	r3, [pc, #52]	@ (8007344 <std+0x58>)
 8007310:	6263      	str	r3, [r4, #36]	@ 0x24
 8007312:	4b0d      	ldr	r3, [pc, #52]	@ (8007348 <std+0x5c>)
 8007314:	62a3      	str	r3, [r4, #40]	@ 0x28
 8007316:	4b0d      	ldr	r3, [pc, #52]	@ (800734c <std+0x60>)
 8007318:	62e3      	str	r3, [r4, #44]	@ 0x2c
 800731a:	4b0d      	ldr	r3, [pc, #52]	@ (8007350 <std+0x64>)
 800731c:	6323      	str	r3, [r4, #48]	@ 0x30
 800731e:	4b0d      	ldr	r3, [pc, #52]	@ (8007354 <std+0x68>)
 8007320:	6224      	str	r4, [r4, #32]
 8007322:	429c      	cmp	r4, r3
 8007324:	d006      	beq.n	8007334 <std+0x48>
 8007326:	f103 0268 	add.w	r2, r3, #104	@ 0x68
 800732a:	4294      	cmp	r4, r2
 800732c:	d002      	beq.n	8007334 <std+0x48>
 800732e:	33d0      	adds	r3, #208	@ 0xd0
 8007330:	429c      	cmp	r4, r3
 8007332:	d105      	bne.n	8007340 <std+0x54>
 8007334:	f104 0058 	add.w	r0, r4, #88	@ 0x58
 8007338:	e8bd 4010 	ldmia.w	sp!, {r4, lr}
 800733c:	f000 ba58 	b.w	80077f0 <__retarget_lock_init_recursive>
 8007340:	bd10      	pop	{r4, pc}
 8007342:	bf00      	nop
 8007344:	08007551 	.word	0x08007551
 8007348:	08007573 	.word	0x08007573
 800734c:	080075ab 	.word	0x080075ab
 8007350:	080075cf 	.word	0x080075cf
 8007354:	2000048c 	.word	0x2000048c

08007358 <stdio_exit_handler>:
 8007358:	4a02      	ldr	r2, [pc, #8]	@ (8007364 <stdio_exit_handler+0xc>)
 800735a:	4903      	ldr	r1, [pc, #12]	@ (8007368 <stdio_exit_handler+0x10>)
 800735c:	4803      	ldr	r0, [pc, #12]	@ (800736c <stdio_exit_handler+0x14>)
 800735e:	f000 b869 	b.w	8007434 <_fwalk_sglue>
 8007362:	bf00      	nop
 8007364:	2000000c 	.word	0x2000000c
 8007368:	0800808d 	.word	0x0800808d
 800736c:	2000001c 	.word	0x2000001c

08007370 <cleanup_stdio>:
 8007370:	6841      	ldr	r1, [r0, #4]
 8007372:	4b0c      	ldr	r3, [pc, #48]	@ (80073a4 <cleanup_stdio+0x34>)
 8007374:	4299      	cmp	r1, r3
 8007376:	b510      	push	{r4, lr}
 8007378:	4604      	mov	r4, r0
 800737a:	d001      	beq.n	8007380 <cleanup_stdio+0x10>
 800737c:	f000 fe86 	bl	800808c <_fflush_r>
 8007380:	68a1      	ldr	r1, [r4, #8]
 8007382:	4b09      	ldr	r3, [pc, #36]	@ (80073a8 <cleanup_stdio+0x38>)
 8007384:	4299      	cmp	r1, r3
 8007386:	d002      	beq.n	800738e <cleanup_stdio+0x1e>
 8007388:	4620      	mov	r0, r4
 800738a:	f000 fe7f 	bl	800808c <_fflush_r>
 800738e:	68e1      	ldr	r1, [r4, #12]
 8007390:	4b06      	ldr	r3, [pc, #24]	@ (80073ac <cleanup_stdio+0x3c>)
 8007392:	4299      	cmp	r1, r3
 8007394:	d004      	beq.n	80073a0 <cleanup_stdio+0x30>
 8007396:	4620      	mov	r0, r4
 8007398:	e8bd 4010 	ldmia.w	sp!, {r4, lr}
 800739c:	f000 be76 	b.w	800808c <_fflush_r>
 80073a0:	bd10      	pop	{r4, pc}
 80073a2:	bf00      	nop
 80073a4:	2000048c 	.word	0x2000048c
 80073a8:	200004f4 	.word	0x200004f4
 80073ac:	2000055c 	.word	0x2000055c

080073b0 <global_stdio_init.part.0>:
 80073b0:	b510      	push	{r4, lr}
 80073b2:	4b0b      	ldr	r3, [pc, #44]	@ (80073e0 <global_stdio_init.part.0+0x30>)
 80073b4:	4c0b      	ldr	r4, [pc, #44]	@ (80073e4 <global_stdio_init.part.0+0x34>)
 80073b6:	4a0c      	ldr	r2, [pc, #48]	@ (80073e8 <global_stdio_init.part.0+0x38>)
 80073b8:	601a      	str	r2, [r3, #0]
 80073ba:	4620      	mov	r0, r4
 80073bc:	2200      	movs	r2, #0
 80073be:	2104      	movs	r1, #4
 80073c0:	f7ff ff94 	bl	80072ec <std>
 80073c4:	f104 0068 	add.w	r0, r4, #104	@ 0x68
 80073c8:	2201      	movs	r2, #1
 80073ca:	2109      	movs	r1, #9
 80073cc:	f7ff ff8e 	bl	80072ec <std>
 80073d0:	f104 00d0 	add.w	r0, r4, #208	@ 0xd0
 80073d4:	2202      	movs	r2, #2
 80073d6:	e8bd 4010 	ldmia.w	sp!, {r4, lr}
 80073da:	2112      	movs	r1, #18
 80073dc:	f7ff bf86 	b.w	80072ec <std>
 80073e0:	200005c4 	.word	0x200005c4
 80073e4:	2000048c 	.word	0x2000048c
 80073e8:	08007359 	.word	0x08007359

080073ec <__sfp_lock_acquire>:
 80073ec:	4801      	ldr	r0, [pc, #4]	@ (80073f4 <__sfp_lock_acquire+0x8>)
 80073ee:	f000 ba00 	b.w	80077f2 <__retarget_lock_acquire_recursive>
 80073f2:	bf00      	nop
 80073f4:	200005cd 	.word	0x200005cd

080073f8 <__sfp_lock_release>:
 80073f8:	4801      	ldr	r0, [pc, #4]	@ (8007400 <__sfp_lock_release+0x8>)
 80073fa:	f000 b9fb 	b.w	80077f4 <__retarget_lock_release_recursive>
 80073fe:	bf00      	nop
 8007400:	200005cd 	.word	0x200005cd

08007404 <__sinit>:
 8007404:	b510      	push	{r4, lr}
 8007406:	4604      	mov	r4, r0
 8007408:	f7ff fff0 	bl	80073ec <__sfp_lock_acquire>
 800740c:	6a23      	ldr	r3, [r4, #32]
 800740e:	b11b      	cbz	r3, 8007418 <__sinit+0x14>
 8007410:	e8bd 4010 	ldmia.w	sp!, {r4, lr}
 8007414:	f7ff bff0 	b.w	80073f8 <__sfp_lock_release>
 8007418:	4b04      	ldr	r3, [pc, #16]	@ (800742c <__sinit+0x28>)
 800741a:	6223      	str	r3, [r4, #32]
 800741c:	4b04      	ldr	r3, [pc, #16]	@ (8007430 <__sinit+0x2c>)
 800741e:	681b      	ldr	r3, [r3, #0]
 8007420:	2b00      	cmp	r3, #0
 8007422:	d1f5      	bne.n	8007410 <__sinit+0xc>
 8007424:	f7ff ffc4 	bl	80073b0 <global_stdio_init.part.0>
 8007428:	e7f2      	b.n	8007410 <__sinit+0xc>
 800742a:	bf00      	nop
 800742c:	08007371 	.word	0x08007371
 8007430:	200005c4 	.word	0x200005c4

08007434 <_fwalk_sglue>:
 8007434:	e92d 43f8 	stmdb	sp!, {r3, r4, r5, r6, r7, r8, r9, lr}
 8007438:	4607      	mov	r7, r0
 800743a:	4688      	mov	r8, r1
 800743c:	4614      	mov	r4, r2
 800743e:	2600      	movs	r6, #0
 8007440:	e9d4 9501 	ldrd	r9, r5, [r4, #4]
 8007444:	f1b9 0901 	subs.w	r9, r9, #1
 8007448:	d505      	bpl.n	8007456 <_fwalk_sglue+0x22>
 800744a:	6824      	ldr	r4, [r4, #0]
 800744c:	2c00      	cmp	r4, #0
 800744e:	d1f7      	bne.n	8007440 <_fwalk_sglue+0xc>
 8007450:	4630      	mov	r0, r6
 8007452:	e8bd 83f8 	ldmia.w	sp!, {r3, r4, r5, r6, r7, r8, r9, pc}
 8007456:	89ab      	ldrh	r3, [r5, #12]
 8007458:	2b01      	cmp	r3, #1
 800745a:	d907      	bls.n	800746c <_fwalk_sglue+0x38>
 800745c:	f9b5 300e 	ldrsh.w	r3, [r5, #14]
 8007460:	3301      	adds	r3, #1
 8007462:	d003      	beq.n	800746c <_fwalk_sglue+0x38>
 8007464:	4629      	mov	r1, r5
 8007466:	4638      	mov	r0, r7
 8007468:	47c0      	blx	r8
 800746a:	4306      	orrs	r6, r0
 800746c:	3568      	adds	r5, #104	@ 0x68
 800746e:	e7e9      	b.n	8007444 <_fwalk_sglue+0x10>

08007470 <iprintf>:
 8007470:	b40f      	push	{r0, r1, r2, r3}
 8007472:	b507      	push	{r0, r1, r2, lr}
 8007474:	4906      	ldr	r1, [pc, #24]	@ (8007490 <iprintf+0x20>)
 8007476:	ab04      	add	r3, sp, #16
 8007478:	6808      	ldr	r0, [r1, #0]
 800747a:	f853 2b04 	ldr.w	r2, [r3], #4
 800747e:	6881      	ldr	r1, [r0, #8]
 8007480:	9301      	str	r3, [sp, #4]
 8007482:	f000 fadb 	bl	8007a3c <_vfiprintf_r>
 8007486:	b003      	add	sp, #12
 8007488:	f85d eb04 	ldr.w	lr, [sp], #4
 800748c:	b004      	add	sp, #16
 800748e:	4770      	bx	lr
 8007490:	20000018 	.word	0x20000018

08007494 <_puts_r>:
 8007494:	6a03      	ldr	r3, [r0, #32]
 8007496:	b570      	push	{r4, r5, r6, lr}
 8007498:	6884      	ldr	r4, [r0, #8]
 800749a:	4605      	mov	r5, r0
 800749c:	460e      	mov	r6, r1
 800749e:	b90b      	cbnz	r3, 80074a4 <_puts_r+0x10>
 80074a0:	f7ff ffb0 	bl	8007404 <__sinit>
 80074a4:	6e63      	ldr	r3, [r4, #100]	@ 0x64
 80074a6:	07db      	lsls	r3, r3, #31
 80074a8:	d405      	bmi.n	80074b6 <_puts_r+0x22>
 80074aa:	89a3      	ldrh	r3, [r4, #12]
 80074ac:	0598      	lsls	r0, r3, #22
 80074ae:	d402      	bmi.n	80074b6 <_puts_r+0x22>
 80074b0:	6da0      	ldr	r0, [r4, #88]	@ 0x58
 80074b2:	f000 f99e 	bl	80077f2 <__retarget_lock_acquire_recursive>
 80074b6:	89a3      	ldrh	r3, [r4, #12]
 80074b8:	0719      	lsls	r1, r3, #28
 80074ba:	d502      	bpl.n	80074c2 <_puts_r+0x2e>
 80074bc:	6923      	ldr	r3, [r4, #16]
 80074be:	2b00      	cmp	r3, #0
 80074c0:	d135      	bne.n	800752e <_puts_r+0x9a>
 80074c2:	4621      	mov	r1, r4
 80074c4:	4628      	mov	r0, r5
 80074c6:	f000 f8c5 	bl	8007654 <__swsetup_r>
 80074ca:	b380      	cbz	r0, 800752e <_puts_r+0x9a>
 80074cc:	f04f 35ff 	mov.w	r5, #4294967295
 80074d0:	6e63      	ldr	r3, [r4, #100]	@ 0x64
 80074d2:	07da      	lsls	r2, r3, #31
 80074d4:	d405      	bmi.n	80074e2 <_puts_r+0x4e>
 80074d6:	89a3      	ldrh	r3, [r4, #12]
 80074d8:	059b      	lsls	r3, r3, #22
 80074da:	d402      	bmi.n	80074e2 <_puts_r+0x4e>
 80074dc:	6da0      	ldr	r0, [r4, #88]	@ 0x58
 80074de:	f000 f989 	bl	80077f4 <__retarget_lock_release_recursive>
 80074e2:	4628      	mov	r0, r5
 80074e4:	bd70      	pop	{r4, r5, r6, pc}
 80074e6:	2b00      	cmp	r3, #0
 80074e8:	da04      	bge.n	80074f4 <_puts_r+0x60>
 80074ea:	69a2      	ldr	r2, [r4, #24]
 80074ec:	429a      	cmp	r2, r3
 80074ee:	dc17      	bgt.n	8007520 <_puts_r+0x8c>
 80074f0:	290a      	cmp	r1, #10
 80074f2:	d015      	beq.n	8007520 <_puts_r+0x8c>
 80074f4:	6823      	ldr	r3, [r4, #0]
 80074f6:	1c5a      	adds	r2, r3, #1
 80074f8:	6022      	str	r2, [r4, #0]
 80074fa:	7019      	strb	r1, [r3, #0]
 80074fc:	68a3      	ldr	r3, [r4, #8]
 80074fe:	f816 1f01 	ldrb.w	r1, [r6, #1]!
 8007502:	3b01      	subs	r3, #1
 8007504:	60a3      	str	r3, [r4, #8]
 8007506:	2900      	cmp	r1, #0
 8007508:	d1ed      	bne.n	80074e6 <_puts_r+0x52>
 800750a:	2b00      	cmp	r3, #0
 800750c:	da11      	bge.n	8007532 <_puts_r+0x9e>
 800750e:	4622      	mov	r2, r4
 8007510:	210a      	movs	r1, #10
 8007512:	4628      	mov	r0, r5
 8007514:	f000 f85f 	bl	80075d6 <__swbuf_r>
 8007518:	3001      	adds	r0, #1
 800751a:	d0d7      	beq.n	80074cc <_puts_r+0x38>
 800751c:	250a      	movs	r5, #10
 800751e:	e7d7      	b.n	80074d0 <_puts_r+0x3c>
 8007520:	4622      	mov	r2, r4
 8007522:	4628      	mov	r0, r5
 8007524:	f000 f857 	bl	80075d6 <__swbuf_r>
 8007528:	3001      	adds	r0, #1
 800752a:	d1e7      	bne.n	80074fc <_puts_r+0x68>
 800752c:	e7ce      	b.n	80074cc <_puts_r+0x38>
 800752e:	3e01      	subs	r6, #1
 8007530:	e7e4      	b.n	80074fc <_puts_r+0x68>
 8007532:	6823      	ldr	r3, [r4, #0]
 8007534:	1c5a      	adds	r2, r3, #1
 8007536:	6022      	str	r2, [r4, #0]
 8007538:	220a      	movs	r2, #10
 800753a:	701a      	strb	r2, [r3, #0]
 800753c:	e7ee      	b.n	800751c <_puts_r+0x88>
	...

08007540 <puts>:
 8007540:	4b02      	ldr	r3, [pc, #8]	@ (800754c <puts+0xc>)
 8007542:	4601      	mov	r1, r0
 8007544:	6818      	ldr	r0, [r3, #0]
 8007546:	f7ff bfa5 	b.w	8007494 <_puts_r>
 800754a:	bf00      	nop
 800754c:	20000018 	.word	0x20000018

08007550 <__sread>:
 8007550:	b510      	push	{r4, lr}
 8007552:	460c      	mov	r4, r1
 8007554:	f9b1 100e 	ldrsh.w	r1, [r1, #14]
 8007558:	f000 f8fc 	bl	8007754 <_read_r>
 800755c:	2800      	cmp	r0, #0
 800755e:	bfab      	itete	ge
 8007560:	6d63      	ldrge	r3, [r4, #84]	@ 0x54
 8007562:	89a3      	ldrhlt	r3, [r4, #12]
 8007564:	181b      	addge	r3, r3, r0
 8007566:	f423 5380 	biclt.w	r3, r3, #4096	@ 0x1000
 800756a:	bfac      	ite	ge
 800756c:	6563      	strge	r3, [r4, #84]	@ 0x54
 800756e:	81a3      	strhlt	r3, [r4, #12]
 8007570:	bd10      	pop	{r4, pc}

08007572 <__swrite>:
 8007572:	e92d 41f0 	stmdb	sp!, {r4, r5, r6, r7, r8, lr}
 8007576:	461f      	mov	r7, r3
 8007578:	898b      	ldrh	r3, [r1, #12]
 800757a:	05db      	lsls	r3, r3, #23
 800757c:	4605      	mov	r5, r0
 800757e:	460c      	mov	r4, r1
 8007580:	4616      	mov	r6, r2
 8007582:	d505      	bpl.n	8007590 <__swrite+0x1e>
 8007584:	f9b1 100e 	ldrsh.w	r1, [r1, #14]
 8007588:	2302      	movs	r3, #2
 800758a:	2200      	movs	r2, #0
 800758c:	f000 f8d0 	bl	8007730 <_lseek_r>
 8007590:	89a3      	ldrh	r3, [r4, #12]
 8007592:	f9b4 100e 	ldrsh.w	r1, [r4, #14]
 8007596:	f423 5380 	bic.w	r3, r3, #4096	@ 0x1000
 800759a:	81a3      	strh	r3, [r4, #12]
 800759c:	4632      	mov	r2, r6
 800759e:	463b      	mov	r3, r7
 80075a0:	4628      	mov	r0, r5
 80075a2:	e8bd 41f0 	ldmia.w	sp!, {r4, r5, r6, r7, r8, lr}
 80075a6:	f000 b8e7 	b.w	8007778 <_write_r>

080075aa <__sseek>:
 80075aa:	b510      	push	{r4, lr}
 80075ac:	460c      	mov	r4, r1
 80075ae:	f9b1 100e 	ldrsh.w	r1, [r1, #14]
 80075b2:	f000 f8bd 	bl	8007730 <_lseek_r>
 80075b6:	1c43      	adds	r3, r0, #1
 80075b8:	89a3      	ldrh	r3, [r4, #12]
 80075ba:	bf15      	itete	ne
 80075bc:	6560      	strne	r0, [r4, #84]	@ 0x54
 80075be:	f423 5380 	biceq.w	r3, r3, #4096	@ 0x1000
 80075c2:	f443 5380 	orrne.w	r3, r3, #4096	@ 0x1000
 80075c6:	81a3      	strheq	r3, [r4, #12]
 80075c8:	bf18      	it	ne
 80075ca:	81a3      	strhne	r3, [r4, #12]
 80075cc:	bd10      	pop	{r4, pc}

080075ce <__sclose>:
 80075ce:	f9b1 100e 	ldrsh.w	r1, [r1, #14]
 80075d2:	f000 b89d 	b.w	8007710 <_close_r>

080075d6 <__swbuf_r>:
 80075d6:	b5f8      	push	{r3, r4, r5, r6, r7, lr}
 80075d8:	460e      	mov	r6, r1
 80075da:	4614      	mov	r4, r2
 80075dc:	4605      	mov	r5, r0
 80075de:	b118      	cbz	r0, 80075e8 <__swbuf_r+0x12>
 80075e0:	6a03      	ldr	r3, [r0, #32]
 80075e2:	b90b      	cbnz	r3, 80075e8 <__swbuf_r+0x12>
 80075e4:	f7ff ff0e 	bl	8007404 <__sinit>
 80075e8:	69a3      	ldr	r3, [r4, #24]
 80075ea:	60a3      	str	r3, [r4, #8]
 80075ec:	89a3      	ldrh	r3, [r4, #12]
 80075ee:	071a      	lsls	r2, r3, #28
 80075f0:	d501      	bpl.n	80075f6 <__swbuf_r+0x20>
 80075f2:	6923      	ldr	r3, [r4, #16]
 80075f4:	b943      	cbnz	r3, 8007608 <__swbuf_r+0x32>
 80075f6:	4621      	mov	r1, r4
 80075f8:	4628      	mov	r0, r5
 80075fa:	f000 f82b 	bl	8007654 <__swsetup_r>
 80075fe:	b118      	cbz	r0, 8007608 <__swbuf_r+0x32>
 8007600:	f04f 37ff 	mov.w	r7, #4294967295
 8007604:	4638      	mov	r0, r7
 8007606:	bdf8      	pop	{r3, r4, r5, r6, r7, pc}
 8007608:	6823      	ldr	r3, [r4, #0]
 800760a:	6922      	ldr	r2, [r4, #16]
 800760c:	1a98      	subs	r0, r3, r2
 800760e:	6963      	ldr	r3, [r4, #20]
 8007610:	b2f6      	uxtb	r6, r6
 8007612:	4283      	cmp	r3, r0
 8007614:	4637      	mov	r7, r6
 8007616:	dc05      	bgt.n	8007624 <__swbuf_r+0x4e>
 8007618:	4621      	mov	r1, r4
 800761a:	4628      	mov	r0, r5
 800761c:	f000 fd36 	bl	800808c <_fflush_r>
 8007620:	2800      	cmp	r0, #0
 8007622:	d1ed      	bne.n	8007600 <__swbuf_r+0x2a>
 8007624:	68a3      	ldr	r3, [r4, #8]
 8007626:	3b01      	subs	r3, #1
 8007628:	60a3      	str	r3, [r4, #8]
 800762a:	6823      	ldr	r3, [r4, #0]
 800762c:	1c5a      	adds	r2, r3, #1
 800762e:	6022      	str	r2, [r4, #0]
 8007630:	701e      	strb	r6, [r3, #0]
 8007632:	6962      	ldr	r2, [r4, #20]
 8007634:	1c43      	adds	r3, r0, #1
 8007636:	429a      	cmp	r2, r3
 8007638:	d004      	beq.n	8007644 <__swbuf_r+0x6e>
 800763a:	89a3      	ldrh	r3, [r4, #12]
 800763c:	07db      	lsls	r3, r3, #31
 800763e:	d5e1      	bpl.n	8007604 <__swbuf_r+0x2e>
 8007640:	2e0a      	cmp	r6, #10
 8007642:	d1df      	bne.n	8007604 <__swbuf_r+0x2e>
 8007644:	4621      	mov	r1, r4
 8007646:	4628      	mov	r0, r5
 8007648:	f000 fd20 	bl	800808c <_fflush_r>
 800764c:	2800      	cmp	r0, #0
 800764e:	d0d9      	beq.n	8007604 <__swbuf_r+0x2e>
 8007650:	e7d6      	b.n	8007600 <__swbuf_r+0x2a>
	...

08007654 <__swsetup_r>:
 8007654:	b538      	push	{r3, r4, r5, lr}
 8007656:	4b29      	ldr	r3, [pc, #164]	@ (80076fc <__swsetup_r+0xa8>)
 8007658:	4605      	mov	r5, r0
 800765a:	6818      	ldr	r0, [r3, #0]
 800765c:	460c      	mov	r4, r1
 800765e:	b118      	cbz	r0, 8007668 <__swsetup_r+0x14>
 8007660:	6a03      	ldr	r3, [r0, #32]
 8007662:	b90b      	cbnz	r3, 8007668 <__swsetup_r+0x14>
 8007664:	f7ff fece 	bl	8007404 <__sinit>
 8007668:	f9b4 300c 	ldrsh.w	r3, [r4, #12]
 800766c:	0719      	lsls	r1, r3, #28
 800766e:	d422      	bmi.n	80076b6 <__swsetup_r+0x62>
 8007670:	06da      	lsls	r2, r3, #27
 8007672:	d407      	bmi.n	8007684 <__swsetup_r+0x30>
 8007674:	2209      	movs	r2, #9
 8007676:	602a      	str	r2, [r5, #0]
 8007678:	f043 0340 	orr.w	r3, r3, #64	@ 0x40
 800767c:	81a3      	strh	r3, [r4, #12]
 800767e:	f04f 30ff 	mov.w	r0, #4294967295
 8007682:	e033      	b.n	80076ec <__swsetup_r+0x98>
 8007684:	0758      	lsls	r0, r3, #29
 8007686:	d512      	bpl.n	80076ae <__swsetup_r+0x5a>
 8007688:	6b61      	ldr	r1, [r4, #52]	@ 0x34
 800768a:	b141      	cbz	r1, 800769e <__swsetup_r+0x4a>
 800768c:	f104 0344 	add.w	r3, r4, #68	@ 0x44
 8007690:	4299      	cmp	r1, r3
 8007692:	d002      	beq.n	800769a <__swsetup_r+0x46>
 8007694:	4628      	mov	r0, r5
 8007696:	f000 f8af 	bl	80077f8 <_free_r>
 800769a:	2300      	movs	r3, #0
 800769c:	6363      	str	r3, [r4, #52]	@ 0x34
 800769e:	89a3      	ldrh	r3, [r4, #12]
 80076a0:	f023 0324 	bic.w	r3, r3, #36	@ 0x24
 80076a4:	81a3      	strh	r3, [r4, #12]
 80076a6:	2300      	movs	r3, #0
 80076a8:	6063      	str	r3, [r4, #4]
 80076aa:	6923      	ldr	r3, [r4, #16]
 80076ac:	6023      	str	r3, [r4, #0]
 80076ae:	89a3      	ldrh	r3, [r4, #12]
 80076b0:	f043 0308 	orr.w	r3, r3, #8
 80076b4:	81a3      	strh	r3, [r4, #12]
 80076b6:	6923      	ldr	r3, [r4, #16]
 80076b8:	b94b      	cbnz	r3, 80076ce <__swsetup_r+0x7a>
 80076ba:	89a3      	ldrh	r3, [r4, #12]
 80076bc:	f403 7320 	and.w	r3, r3, #640	@ 0x280
 80076c0:	f5b3 7f00 	cmp.w	r3, #512	@ 0x200
 80076c4:	d003      	beq.n	80076ce <__swsetup_r+0x7a>
 80076c6:	4621      	mov	r1, r4
 80076c8:	4628      	mov	r0, r5
 80076ca:	f000 fd2d 	bl	8008128 <__smakebuf_r>
 80076ce:	f9b4 300c 	ldrsh.w	r3, [r4, #12]
 80076d2:	f013 0201 	ands.w	r2, r3, #1
 80076d6:	d00a      	beq.n	80076ee <__swsetup_r+0x9a>
 80076d8:	2200      	movs	r2, #0
 80076da:	60a2      	str	r2, [r4, #8]
 80076dc:	6962      	ldr	r2, [r4, #20]
 80076de:	4252      	negs	r2, r2
 80076e0:	61a2      	str	r2, [r4, #24]
 80076e2:	6922      	ldr	r2, [r4, #16]
 80076e4:	b942      	cbnz	r2, 80076f8 <__swsetup_r+0xa4>
 80076e6:	f013 0080 	ands.w	r0, r3, #128	@ 0x80
 80076ea:	d1c5      	bne.n	8007678 <__swsetup_r+0x24>
 80076ec:	bd38      	pop	{r3, r4, r5, pc}
 80076ee:	0799      	lsls	r1, r3, #30
 80076f0:	bf58      	it	pl
 80076f2:	6962      	ldrpl	r2, [r4, #20]
 80076f4:	60a2      	str	r2, [r4, #8]
 80076f6:	e7f4      	b.n	80076e2 <__swsetup_r+0x8e>
 80076f8:	2000      	movs	r0, #0
 80076fa:	e7f7      	b.n	80076ec <__swsetup_r+0x98>
 80076fc:	20000018 	.word	0x20000018

08007700 <memset>:
 8007700:	4402      	add	r2, r0
 8007702:	4603      	mov	r3, r0
 8007704:	4293      	cmp	r3, r2
 8007706:	d100      	bne.n	800770a <memset+0xa>
 8007708:	4770      	bx	lr
 800770a:	f803 1b01 	strb.w	r1, [r3], #1
 800770e:	e7f9      	b.n	8007704 <memset+0x4>

08007710 <_close_r>:
 8007710:	b538      	push	{r3, r4, r5, lr}
 8007712:	4d06      	ldr	r5, [pc, #24]	@ (800772c <_close_r+0x1c>)
 8007714:	2300      	movs	r3, #0
 8007716:	4604      	mov	r4, r0
 8007718:	4608      	mov	r0, r1
 800771a:	602b      	str	r3, [r5, #0]
 800771c:	f7fc faf7 	bl	8003d0e <_close>
 8007720:	1c43      	adds	r3, r0, #1
 8007722:	d102      	bne.n	800772a <_close_r+0x1a>
 8007724:	682b      	ldr	r3, [r5, #0]
 8007726:	b103      	cbz	r3, 800772a <_close_r+0x1a>
 8007728:	6023      	str	r3, [r4, #0]
 800772a:	bd38      	pop	{r3, r4, r5, pc}
 800772c:	200005c8 	.word	0x200005c8

08007730 <_lseek_r>:
 8007730:	b538      	push	{r3, r4, r5, lr}
 8007732:	4d07      	ldr	r5, [pc, #28]	@ (8007750 <_lseek_r+0x20>)
 8007734:	4604      	mov	r4, r0
 8007736:	4608      	mov	r0, r1
 8007738:	4611      	mov	r1, r2
 800773a:	2200      	movs	r2, #0
 800773c:	602a      	str	r2, [r5, #0]
 800773e:	461a      	mov	r2, r3
 8007740:	f7fc fb0c 	bl	8003d5c <_lseek>
 8007744:	1c43      	adds	r3, r0, #1
 8007746:	d102      	bne.n	800774e <_lseek_r+0x1e>
 8007748:	682b      	ldr	r3, [r5, #0]
 800774a:	b103      	cbz	r3, 800774e <_lseek_r+0x1e>
 800774c:	6023      	str	r3, [r4, #0]
 800774e:	bd38      	pop	{r3, r4, r5, pc}
 8007750:	200005c8 	.word	0x200005c8

08007754 <_read_r>:
 8007754:	b538      	push	{r3, r4, r5, lr}
 8007756:	4d07      	ldr	r5, [pc, #28]	@ (8007774 <_read_r+0x20>)
 8007758:	4604      	mov	r4, r0
 800775a:	4608      	mov	r0, r1
 800775c:	4611      	mov	r1, r2
 800775e:	2200      	movs	r2, #0
 8007760:	602a      	str	r2, [r5, #0]
 8007762:	461a      	mov	r2, r3
 8007764:	f7fc fa9a 	bl	8003c9c <_read>
 8007768:	1c43      	adds	r3, r0, #1
 800776a:	d102      	bne.n	8007772 <_read_r+0x1e>
 800776c:	682b      	ldr	r3, [r5, #0]
 800776e:	b103      	cbz	r3, 8007772 <_read_r+0x1e>
 8007770:	6023      	str	r3, [r4, #0]
 8007772:	bd38      	pop	{r3, r4, r5, pc}
 8007774:	200005c8 	.word	0x200005c8

08007778 <_write_r>:
 8007778:	b538      	push	{r3, r4, r5, lr}
 800777a:	4d07      	ldr	r5, [pc, #28]	@ (8007798 <_write_r+0x20>)
 800777c:	4604      	mov	r4, r0
 800777e:	4608      	mov	r0, r1
 8007780:	4611      	mov	r1, r2
 8007782:	2200      	movs	r2, #0
 8007784:	602a      	str	r2, [r5, #0]
 8007786:	461a      	mov	r2, r3
 8007788:	f7fc faa5 	bl	8003cd6 <_write>
 800778c:	1c43      	adds	r3, r0, #1
 800778e:	d102      	bne.n	8007796 <_write_r+0x1e>
 8007790:	682b      	ldr	r3, [r5, #0]
 8007792:	b103      	cbz	r3, 8007796 <_write_r+0x1e>
 8007794:	6023      	str	r3, [r4, #0]
 8007796:	bd38      	pop	{r3, r4, r5, pc}
 8007798:	200005c8 	.word	0x200005c8

0800779c <__errno>:
 800779c:	4b01      	ldr	r3, [pc, #4]	@ (80077a4 <__errno+0x8>)
 800779e:	6818      	ldr	r0, [r3, #0]
 80077a0:	4770      	bx	lr
 80077a2:	bf00      	nop
 80077a4:	20000018 	.word	0x20000018

080077a8 <__libc_init_array>:
 80077a8:	b570      	push	{r4, r5, r6, lr}
 80077aa:	4d0d      	ldr	r5, [pc, #52]	@ (80077e0 <__libc_init_array+0x38>)
 80077ac:	4c0d      	ldr	r4, [pc, #52]	@ (80077e4 <__libc_init_array+0x3c>)
 80077ae:	1b64      	subs	r4, r4, r5
 80077b0:	10a4      	asrs	r4, r4, #2
 80077b2:	2600      	movs	r6, #0
 80077b4:	42a6      	cmp	r6, r4
 80077b6:	d109      	bne.n	80077cc <__libc_init_array+0x24>
 80077b8:	4d0b      	ldr	r5, [pc, #44]	@ (80077e8 <__libc_init_array+0x40>)
 80077ba:	4c0c      	ldr	r4, [pc, #48]	@ (80077ec <__libc_init_array+0x44>)
 80077bc:	f000 fd22 	bl	8008204 <_init>
 80077c0:	1b64      	subs	r4, r4, r5
 80077c2:	10a4      	asrs	r4, r4, #2
 80077c4:	2600      	movs	r6, #0
 80077c6:	42a6      	cmp	r6, r4
 80077c8:	d105      	bne.n	80077d6 <__libc_init_array+0x2e>
 80077ca:	bd70      	pop	{r4, r5, r6, pc}
 80077cc:	f855 3b04 	ldr.w	r3, [r5], #4
 80077d0:	4798      	blx	r3
 80077d2:	3601      	adds	r6, #1
 80077d4:	e7ee      	b.n	80077b4 <__libc_init_array+0xc>
 80077d6:	f855 3b04 	ldr.w	r3, [r5], #4
 80077da:	4798      	blx	r3
 80077dc:	3601      	adds	r6, #1
 80077de:	e7f2      	b.n	80077c6 <__libc_init_array+0x1e>
 80077e0:	080087f8 	.word	0x080087f8
 80077e4:	080087f8 	.word	0x080087f8
 80077e8:	080087f8 	.word	0x080087f8
 80077ec:	080087fc 	.word	0x080087fc

080077f0 <__retarget_lock_init_recursive>:
 80077f0:	4770      	bx	lr

080077f2 <__retarget_lock_acquire_recursive>:
 80077f2:	4770      	bx	lr

080077f4 <__retarget_lock_release_recursive>:
 80077f4:	4770      	bx	lr
	...

080077f8 <_free_r>:
 80077f8:	b538      	push	{r3, r4, r5, lr}
 80077fa:	4605      	mov	r5, r0
 80077fc:	2900      	cmp	r1, #0
 80077fe:	d041      	beq.n	8007884 <_free_r+0x8c>
 8007800:	f851 3c04 	ldr.w	r3, [r1, #-4]
 8007804:	1f0c      	subs	r4, r1, #4
 8007806:	2b00      	cmp	r3, #0
 8007808:	bfb8      	it	lt
 800780a:	18e4      	addlt	r4, r4, r3
 800780c:	f000 f8e0 	bl	80079d0 <__malloc_lock>
 8007810:	4a1d      	ldr	r2, [pc, #116]	@ (8007888 <_free_r+0x90>)
 8007812:	6813      	ldr	r3, [r2, #0]
 8007814:	b933      	cbnz	r3, 8007824 <_free_r+0x2c>
 8007816:	6063      	str	r3, [r4, #4]
 8007818:	6014      	str	r4, [r2, #0]
 800781a:	4628      	mov	r0, r5
 800781c:	e8bd 4038 	ldmia.w	sp!, {r3, r4, r5, lr}
 8007820:	f000 b8dc 	b.w	80079dc <__malloc_unlock>
 8007824:	42a3      	cmp	r3, r4
 8007826:	d908      	bls.n	800783a <_free_r+0x42>
 8007828:	6820      	ldr	r0, [r4, #0]
 800782a:	1821      	adds	r1, r4, r0
 800782c:	428b      	cmp	r3, r1
 800782e:	bf01      	itttt	eq
 8007830:	6819      	ldreq	r1, [r3, #0]
 8007832:	685b      	ldreq	r3, [r3, #4]
 8007834:	1809      	addeq	r1, r1, r0
 8007836:	6021      	streq	r1, [r4, #0]
 8007838:	e7ed      	b.n	8007816 <_free_r+0x1e>
 800783a:	461a      	mov	r2, r3
 800783c:	685b      	ldr	r3, [r3, #4]
 800783e:	b10b      	cbz	r3, 8007844 <_free_r+0x4c>
 8007840:	42a3      	cmp	r3, r4
 8007842:	d9fa      	bls.n	800783a <_free_r+0x42>
 8007844:	6811      	ldr	r1, [r2, #0]
 8007846:	1850      	adds	r0, r2, r1
 8007848:	42a0      	cmp	r0, r4
 800784a:	d10b      	bne.n	8007864 <_free_r+0x6c>
 800784c:	6820      	ldr	r0, [r4, #0]
 800784e:	4401      	add	r1, r0
 8007850:	1850      	adds	r0, r2, r1
 8007852:	4283      	cmp	r3, r0
 8007854:	6011      	str	r1, [r2, #0]
 8007856:	d1e0      	bne.n	800781a <_free_r+0x22>
 8007858:	6818      	ldr	r0, [r3, #0]
 800785a:	685b      	ldr	r3, [r3, #4]
 800785c:	6053      	str	r3, [r2, #4]
 800785e:	4408      	add	r0, r1
 8007860:	6010      	str	r0, [r2, #0]
 8007862:	e7da      	b.n	800781a <_free_r+0x22>
 8007864:	d902      	bls.n	800786c <_free_r+0x74>
 8007866:	230c      	movs	r3, #12
 8007868:	602b      	str	r3, [r5, #0]
 800786a:	e7d6      	b.n	800781a <_free_r+0x22>
 800786c:	6820      	ldr	r0, [r4, #0]
 800786e:	1821      	adds	r1, r4, r0
 8007870:	428b      	cmp	r3, r1
 8007872:	bf04      	itt	eq
 8007874:	6819      	ldreq	r1, [r3, #0]
 8007876:	685b      	ldreq	r3, [r3, #4]
 8007878:	6063      	str	r3, [r4, #4]
 800787a:	bf04      	itt	eq
 800787c:	1809      	addeq	r1, r1, r0
 800787e:	6021      	streq	r1, [r4, #0]
 8007880:	6054      	str	r4, [r2, #4]
 8007882:	e7ca      	b.n	800781a <_free_r+0x22>
 8007884:	bd38      	pop	{r3, r4, r5, pc}
 8007886:	bf00      	nop
 8007888:	200005d4 	.word	0x200005d4

0800788c <sbrk_aligned>:
 800788c:	b570      	push	{r4, r5, r6, lr}
 800788e:	4e0f      	ldr	r6, [pc, #60]	@ (80078cc <sbrk_aligned+0x40>)
 8007890:	460c      	mov	r4, r1
 8007892:	6831      	ldr	r1, [r6, #0]
 8007894:	4605      	mov	r5, r0
 8007896:	b911      	cbnz	r1, 800789e <sbrk_aligned+0x12>
 8007898:	f000 fca4 	bl	80081e4 <_sbrk_r>
 800789c:	6030      	str	r0, [r6, #0]
 800789e:	4621      	mov	r1, r4
 80078a0:	4628      	mov	r0, r5
 80078a2:	f000 fc9f 	bl	80081e4 <_sbrk_r>
 80078a6:	1c43      	adds	r3, r0, #1
 80078a8:	d103      	bne.n	80078b2 <sbrk_aligned+0x26>
 80078aa:	f04f 34ff 	mov.w	r4, #4294967295
 80078ae:	4620      	mov	r0, r4
 80078b0:	bd70      	pop	{r4, r5, r6, pc}
 80078b2:	1cc4      	adds	r4, r0, #3
 80078b4:	f024 0403 	bic.w	r4, r4, #3
 80078b8:	42a0      	cmp	r0, r4
 80078ba:	d0f8      	beq.n	80078ae <sbrk_aligned+0x22>
 80078bc:	1a21      	subs	r1, r4, r0
 80078be:	4628      	mov	r0, r5
 80078c0:	f000 fc90 	bl	80081e4 <_sbrk_r>
 80078c4:	3001      	adds	r0, #1
 80078c6:	d1f2      	bne.n	80078ae <sbrk_aligned+0x22>
 80078c8:	e7ef      	b.n	80078aa <sbrk_aligned+0x1e>
 80078ca:	bf00      	nop
 80078cc:	200005d0 	.word	0x200005d0

080078d0 <_malloc_r>:
 80078d0:	e92d 43f8 	stmdb	sp!, {r3, r4, r5, r6, r7, r8, r9, lr}
 80078d4:	1ccd      	adds	r5, r1, #3
 80078d6:	f025 0503 	bic.w	r5, r5, #3
 80078da:	3508      	adds	r5, #8
 80078dc:	2d0c      	cmp	r5, #12
 80078de:	bf38      	it	cc
 80078e0:	250c      	movcc	r5, #12
 80078e2:	2d00      	cmp	r5, #0
 80078e4:	4606      	mov	r6, r0
 80078e6:	db01      	blt.n	80078ec <_malloc_r+0x1c>
 80078e8:	42a9      	cmp	r1, r5
 80078ea:	d904      	bls.n	80078f6 <_malloc_r+0x26>
 80078ec:	230c      	movs	r3, #12
 80078ee:	6033      	str	r3, [r6, #0]
 80078f0:	2000      	movs	r0, #0
 80078f2:	e8bd 83f8 	ldmia.w	sp!, {r3, r4, r5, r6, r7, r8, r9, pc}
 80078f6:	f8df 80d4 	ldr.w	r8, [pc, #212]	@ 80079cc <_malloc_r+0xfc>
 80078fa:	f000 f869 	bl	80079d0 <__malloc_lock>
 80078fe:	f8d8 3000 	ldr.w	r3, [r8]
 8007902:	461c      	mov	r4, r3
 8007904:	bb44      	cbnz	r4, 8007958 <_malloc_r+0x88>
 8007906:	4629      	mov	r1, r5
 8007908:	4630      	mov	r0, r6
 800790a:	f7ff ffbf 	bl	800788c <sbrk_aligned>
 800790e:	1c43      	adds	r3, r0, #1
 8007910:	4604      	mov	r4, r0
 8007912:	d158      	bne.n	80079c6 <_malloc_r+0xf6>
 8007914:	f8d8 4000 	ldr.w	r4, [r8]
 8007918:	4627      	mov	r7, r4
 800791a:	2f00      	cmp	r7, #0
 800791c:	d143      	bne.n	80079a6 <_malloc_r+0xd6>
 800791e:	2c00      	cmp	r4, #0
 8007920:	d04b      	beq.n	80079ba <_malloc_r+0xea>
 8007922:	6823      	ldr	r3, [r4, #0]
 8007924:	4639      	mov	r1, r7
 8007926:	4630      	mov	r0, r6
 8007928:	eb04 0903 	add.w	r9, r4, r3
 800792c:	f000 fc5a 	bl	80081e4 <_sbrk_r>
 8007930:	4581      	cmp	r9, r0
 8007932:	d142      	bne.n	80079ba <_malloc_r+0xea>
 8007934:	6821      	ldr	r1, [r4, #0]
 8007936:	1a6d      	subs	r5, r5, r1
 8007938:	4629      	mov	r1, r5
 800793a:	4630      	mov	r0, r6
 800793c:	f7ff ffa6 	bl	800788c <sbrk_aligned>
 8007940:	3001      	adds	r0, #1
 8007942:	d03a      	beq.n	80079ba <_malloc_r+0xea>
 8007944:	6823      	ldr	r3, [r4, #0]
 8007946:	442b      	add	r3, r5
 8007948:	6023      	str	r3, [r4, #0]
 800794a:	f8d8 3000 	ldr.w	r3, [r8]
 800794e:	685a      	ldr	r2, [r3, #4]
 8007950:	bb62      	cbnz	r2, 80079ac <_malloc_r+0xdc>
 8007952:	f8c8 7000 	str.w	r7, [r8]
 8007956:	e00f      	b.n	8007978 <_malloc_r+0xa8>
 8007958:	6822      	ldr	r2, [r4, #0]
 800795a:	1b52      	subs	r2, r2, r5
 800795c:	d420      	bmi.n	80079a0 <_malloc_r+0xd0>
 800795e:	2a0b      	cmp	r2, #11
 8007960:	d917      	bls.n	8007992 <_malloc_r+0xc2>
 8007962:	1961      	adds	r1, r4, r5
 8007964:	42a3      	cmp	r3, r4
 8007966:	6025      	str	r5, [r4, #0]
 8007968:	bf18      	it	ne
 800796a:	6059      	strne	r1, [r3, #4]
 800796c:	6863      	ldr	r3, [r4, #4]
 800796e:	bf08      	it	eq
 8007970:	f8c8 1000 	streq.w	r1, [r8]
 8007974:	5162      	str	r2, [r4, r5]
 8007976:	604b      	str	r3, [r1, #4]
 8007978:	4630      	mov	r0, r6
 800797a:	f000 f82f 	bl	80079dc <__malloc_unlock>
 800797e:	f104 000b 	add.w	r0, r4, #11
 8007982:	1d23      	adds	r3, r4, #4
 8007984:	f020 0007 	bic.w	r0, r0, #7
 8007988:	1ac2      	subs	r2, r0, r3
 800798a:	bf1c      	itt	ne
 800798c:	1a1b      	subne	r3, r3, r0
 800798e:	50a3      	strne	r3, [r4, r2]
 8007990:	e7af      	b.n	80078f2 <_malloc_r+0x22>
 8007992:	6862      	ldr	r2, [r4, #4]
 8007994:	42a3      	cmp	r3, r4
 8007996:	bf0c      	ite	eq
 8007998:	f8c8 2000 	streq.w	r2, [r8]
 800799c:	605a      	strne	r2, [r3, #4]
 800799e:	e7eb      	b.n	8007978 <_malloc_r+0xa8>
 80079a0:	4623      	mov	r3, r4
 80079a2:	6864      	ldr	r4, [r4, #4]
 80079a4:	e7ae      	b.n	8007904 <_malloc_r+0x34>
 80079a6:	463c      	mov	r4, r7
 80079a8:	687f      	ldr	r7, [r7, #4]
 80079aa:	e7b6      	b.n	800791a <_malloc_r+0x4a>
 80079ac:	461a      	mov	r2, r3
 80079ae:	685b      	ldr	r3, [r3, #4]
 80079b0:	42a3      	cmp	r3, r4
 80079b2:	d1fb      	bne.n	80079ac <_malloc_r+0xdc>
 80079b4:	2300      	movs	r3, #0
 80079b6:	6053      	str	r3, [r2, #4]
 80079b8:	e7de      	b.n	8007978 <_malloc_r+0xa8>
 80079ba:	230c      	movs	r3, #12
 80079bc:	6033      	str	r3, [r6, #0]
 80079be:	4630      	mov	r0, r6
 80079c0:	f000 f80c 	bl	80079dc <__malloc_unlock>
 80079c4:	e794      	b.n	80078f0 <_malloc_r+0x20>
 80079c6:	6005      	str	r5, [r0, #0]
 80079c8:	e7d6      	b.n	8007978 <_malloc_r+0xa8>
 80079ca:	bf00      	nop
 80079cc:	200005d4 	.word	0x200005d4

080079d0 <__malloc_lock>:
 80079d0:	4801      	ldr	r0, [pc, #4]	@ (80079d8 <__malloc_lock+0x8>)
 80079d2:	f7ff bf0e 	b.w	80077f2 <__retarget_lock_acquire_recursive>
 80079d6:	bf00      	nop
 80079d8:	200005cc 	.word	0x200005cc

080079dc <__malloc_unlock>:
 80079dc:	4801      	ldr	r0, [pc, #4]	@ (80079e4 <__malloc_unlock+0x8>)
 80079de:	f7ff bf09 	b.w	80077f4 <__retarget_lock_release_recursive>
 80079e2:	bf00      	nop
 80079e4:	200005cc 	.word	0x200005cc

080079e8 <__sfputc_r>:
 80079e8:	6893      	ldr	r3, [r2, #8]
 80079ea:	3b01      	subs	r3, #1
 80079ec:	2b00      	cmp	r3, #0
 80079ee:	b410      	push	{r4}
 80079f0:	6093      	str	r3, [r2, #8]
 80079f2:	da08      	bge.n	8007a06 <__sfputc_r+0x1e>
 80079f4:	6994      	ldr	r4, [r2, #24]
 80079f6:	42a3      	cmp	r3, r4
 80079f8:	db01      	blt.n	80079fe <__sfputc_r+0x16>
 80079fa:	290a      	cmp	r1, #10
 80079fc:	d103      	bne.n	8007a06 <__sfputc_r+0x1e>
 80079fe:	f85d 4b04 	ldr.w	r4, [sp], #4
 8007a02:	f7ff bde8 	b.w	80075d6 <__swbuf_r>
 8007a06:	6813      	ldr	r3, [r2, #0]
 8007a08:	1c58      	adds	r0, r3, #1
 8007a0a:	6010      	str	r0, [r2, #0]
 8007a0c:	7019      	strb	r1, [r3, #0]
 8007a0e:	4608      	mov	r0, r1
 8007a10:	f85d 4b04 	ldr.w	r4, [sp], #4
 8007a14:	4770      	bx	lr

08007a16 <__sfputs_r>:
 8007a16:	b5f8      	push	{r3, r4, r5, r6, r7, lr}
 8007a18:	4606      	mov	r6, r0
 8007a1a:	460f      	mov	r7, r1
 8007a1c:	4614      	mov	r4, r2
 8007a1e:	18d5      	adds	r5, r2, r3
 8007a20:	42ac      	cmp	r4, r5
 8007a22:	d101      	bne.n	8007a28 <__sfputs_r+0x12>
 8007a24:	2000      	movs	r0, #0
 8007a26:	e007      	b.n	8007a38 <__sfputs_r+0x22>
 8007a28:	f814 1b01 	ldrb.w	r1, [r4], #1
 8007a2c:	463a      	mov	r2, r7
 8007a2e:	4630      	mov	r0, r6
 8007a30:	f7ff ffda 	bl	80079e8 <__sfputc_r>
 8007a34:	1c43      	adds	r3, r0, #1
 8007a36:	d1f3      	bne.n	8007a20 <__sfputs_r+0xa>
 8007a38:	bdf8      	pop	{r3, r4, r5, r6, r7, pc}
	...

08007a3c <_vfiprintf_r>:
 8007a3c:	e92d 4ff0 	stmdb	sp!, {r4, r5, r6, r7, r8, r9, sl, fp, lr}
 8007a40:	460d      	mov	r5, r1
 8007a42:	b09d      	sub	sp, #116	@ 0x74
 8007a44:	4614      	mov	r4, r2
 8007a46:	4698      	mov	r8, r3
 8007a48:	4606      	mov	r6, r0
 8007a4a:	b118      	cbz	r0, 8007a54 <_vfiprintf_r+0x18>
 8007a4c:	6a03      	ldr	r3, [r0, #32]
 8007a4e:	b90b      	cbnz	r3, 8007a54 <_vfiprintf_r+0x18>
 8007a50:	f7ff fcd8 	bl	8007404 <__sinit>
 8007a54:	6e6b      	ldr	r3, [r5, #100]	@ 0x64
 8007a56:	07d9      	lsls	r1, r3, #31
 8007a58:	d405      	bmi.n	8007a66 <_vfiprintf_r+0x2a>
 8007a5a:	89ab      	ldrh	r3, [r5, #12]
 8007a5c:	059a      	lsls	r2, r3, #22
 8007a5e:	d402      	bmi.n	8007a66 <_vfiprintf_r+0x2a>
 8007a60:	6da8      	ldr	r0, [r5, #88]	@ 0x58
 8007a62:	f7ff fec6 	bl	80077f2 <__retarget_lock_acquire_recursive>
 8007a66:	89ab      	ldrh	r3, [r5, #12]
 8007a68:	071b      	lsls	r3, r3, #28
 8007a6a:	d501      	bpl.n	8007a70 <_vfiprintf_r+0x34>
 8007a6c:	692b      	ldr	r3, [r5, #16]
 8007a6e:	b99b      	cbnz	r3, 8007a98 <_vfiprintf_r+0x5c>
 8007a70:	4629      	mov	r1, r5
 8007a72:	4630      	mov	r0, r6
 8007a74:	f7ff fdee 	bl	8007654 <__swsetup_r>
 8007a78:	b170      	cbz	r0, 8007a98 <_vfiprintf_r+0x5c>
 8007a7a:	6e6b      	ldr	r3, [r5, #100]	@ 0x64
 8007a7c:	07dc      	lsls	r4, r3, #31
 8007a7e:	d504      	bpl.n	8007a8a <_vfiprintf_r+0x4e>
 8007a80:	f04f 30ff 	mov.w	r0, #4294967295
 8007a84:	b01d      	add	sp, #116	@ 0x74
 8007a86:	e8bd 8ff0 	ldmia.w	sp!, {r4, r5, r6, r7, r8, r9, sl, fp, pc}
 8007a8a:	89ab      	ldrh	r3, [r5, #12]
 8007a8c:	0598      	lsls	r0, r3, #22
 8007a8e:	d4f7      	bmi.n	8007a80 <_vfiprintf_r+0x44>
 8007a90:	6da8      	ldr	r0, [r5, #88]	@ 0x58
 8007a92:	f7ff feaf 	bl	80077f4 <__retarget_lock_release_recursive>
 8007a96:	e7f3      	b.n	8007a80 <_vfiprintf_r+0x44>
 8007a98:	2300      	movs	r3, #0
 8007a9a:	9309      	str	r3, [sp, #36]	@ 0x24
 8007a9c:	2320      	movs	r3, #32
 8007a9e:	f88d 3029 	strb.w	r3, [sp, #41]	@ 0x29
 8007aa2:	f8cd 800c 	str.w	r8, [sp, #12]
 8007aa6:	2330      	movs	r3, #48	@ 0x30
 8007aa8:	f8df 81ac 	ldr.w	r8, [pc, #428]	@ 8007c58 <_vfiprintf_r+0x21c>
 8007aac:	f88d 302a 	strb.w	r3, [sp, #42]	@ 0x2a
 8007ab0:	f04f 0901 	mov.w	r9, #1
 8007ab4:	4623      	mov	r3, r4
 8007ab6:	469a      	mov	sl, r3
 8007ab8:	f813 2b01 	ldrb.w	r2, [r3], #1
 8007abc:	b10a      	cbz	r2, 8007ac2 <_vfiprintf_r+0x86>
 8007abe:	2a25      	cmp	r2, #37	@ 0x25
 8007ac0:	d1f9      	bne.n	8007ab6 <_vfiprintf_r+0x7a>
 8007ac2:	ebba 0b04 	subs.w	fp, sl, r4
 8007ac6:	d00b      	beq.n	8007ae0 <_vfiprintf_r+0xa4>
 8007ac8:	465b      	mov	r3, fp
 8007aca:	4622      	mov	r2, r4
 8007acc:	4629      	mov	r1, r5
 8007ace:	4630      	mov	r0, r6
 8007ad0:	f7ff ffa1 	bl	8007a16 <__sfputs_r>
 8007ad4:	3001      	adds	r0, #1
 8007ad6:	f000 80a7 	beq.w	8007c28 <_vfiprintf_r+0x1ec>
 8007ada:	9a09      	ldr	r2, [sp, #36]	@ 0x24
 8007adc:	445a      	add	r2, fp
 8007ade:	9209      	str	r2, [sp, #36]	@ 0x24
 8007ae0:	f89a 3000 	ldrb.w	r3, [sl]
 8007ae4:	2b00      	cmp	r3, #0
 8007ae6:	f000 809f 	beq.w	8007c28 <_vfiprintf_r+0x1ec>
 8007aea:	2300      	movs	r3, #0
 8007aec:	f04f 32ff 	mov.w	r2, #4294967295
 8007af0:	e9cd 2305 	strd	r2, r3, [sp, #20]
 8007af4:	f10a 0a01 	add.w	sl, sl, #1
 8007af8:	9304      	str	r3, [sp, #16]
 8007afa:	9307      	str	r3, [sp, #28]
 8007afc:	f88d 3053 	strb.w	r3, [sp, #83]	@ 0x53
 8007b00:	931a      	str	r3, [sp, #104]	@ 0x68
 8007b02:	4654      	mov	r4, sl
 8007b04:	2205      	movs	r2, #5
 8007b06:	f814 1b01 	ldrb.w	r1, [r4], #1
 8007b0a:	4853      	ldr	r0, [pc, #332]	@ (8007c58 <_vfiprintf_r+0x21c>)
 8007b0c:	f7f8 fb80 	bl	8000210 <memchr>
 8007b10:	9a04      	ldr	r2, [sp, #16]
 8007b12:	b9d8      	cbnz	r0, 8007b4c <_vfiprintf_r+0x110>
 8007b14:	06d1      	lsls	r1, r2, #27
 8007b16:	bf44      	itt	mi
 8007b18:	2320      	movmi	r3, #32
 8007b1a:	f88d 3053 	strbmi.w	r3, [sp, #83]	@ 0x53
 8007b1e:	0713      	lsls	r3, r2, #28
 8007b20:	bf44      	itt	mi
 8007b22:	232b      	movmi	r3, #43	@ 0x2b
 8007b24:	f88d 3053 	strbmi.w	r3, [sp, #83]	@ 0x53
 8007b28:	f89a 3000 	ldrb.w	r3, [sl]
 8007b2c:	2b2a      	cmp	r3, #42	@ 0x2a
 8007b2e:	d015      	beq.n	8007b5c <_vfiprintf_r+0x120>
 8007b30:	9a07      	ldr	r2, [sp, #28]
 8007b32:	4654      	mov	r4, sl
 8007b34:	2000      	movs	r0, #0
 8007b36:	f04f 0c0a 	mov.w	ip, #10
 8007b3a:	4621      	mov	r1, r4
 8007b3c:	f811 3b01 	ldrb.w	r3, [r1], #1
 8007b40:	3b30      	subs	r3, #48	@ 0x30
 8007b42:	2b09      	cmp	r3, #9
 8007b44:	d94b      	bls.n	8007bde <_vfiprintf_r+0x1a2>
 8007b46:	b1b0      	cbz	r0, 8007b76 <_vfiprintf_r+0x13a>
 8007b48:	9207      	str	r2, [sp, #28]
 8007b4a:	e014      	b.n	8007b76 <_vfiprintf_r+0x13a>
 8007b4c:	eba0 0308 	sub.w	r3, r0, r8
 8007b50:	fa09 f303 	lsl.w	r3, r9, r3
 8007b54:	4313      	orrs	r3, r2
 8007b56:	9304      	str	r3, [sp, #16]
 8007b58:	46a2      	mov	sl, r4
 8007b5a:	e7d2      	b.n	8007b02 <_vfiprintf_r+0xc6>
 8007b5c:	9b03      	ldr	r3, [sp, #12]
 8007b5e:	1d19      	adds	r1, r3, #4
 8007b60:	681b      	ldr	r3, [r3, #0]
 8007b62:	9103      	str	r1, [sp, #12]
 8007b64:	2b00      	cmp	r3, #0
 8007b66:	bfbb      	ittet	lt
 8007b68:	425b      	neglt	r3, r3
 8007b6a:	f042 0202 	orrlt.w	r2, r2, #2
 8007b6e:	9307      	strge	r3, [sp, #28]
 8007b70:	9307      	strlt	r3, [sp, #28]
 8007b72:	bfb8      	it	lt
 8007b74:	9204      	strlt	r2, [sp, #16]
 8007b76:	7823      	ldrb	r3, [r4, #0]
 8007b78:	2b2e      	cmp	r3, #46	@ 0x2e
 8007b7a:	d10a      	bne.n	8007b92 <_vfiprintf_r+0x156>
 8007b7c:	7863      	ldrb	r3, [r4, #1]
 8007b7e:	2b2a      	cmp	r3, #42	@ 0x2a
 8007b80:	d132      	bne.n	8007be8 <_vfiprintf_r+0x1ac>
 8007b82:	9b03      	ldr	r3, [sp, #12]
 8007b84:	1d1a      	adds	r2, r3, #4
 8007b86:	681b      	ldr	r3, [r3, #0]
 8007b88:	9203      	str	r2, [sp, #12]
 8007b8a:	ea43 73e3 	orr.w	r3, r3, r3, asr #31
 8007b8e:	3402      	adds	r4, #2
 8007b90:	9305      	str	r3, [sp, #20]
 8007b92:	f8df a0d4 	ldr.w	sl, [pc, #212]	@ 8007c68 <_vfiprintf_r+0x22c>
 8007b96:	7821      	ldrb	r1, [r4, #0]
 8007b98:	2203      	movs	r2, #3
 8007b9a:	4650      	mov	r0, sl
 8007b9c:	f7f8 fb38 	bl	8000210 <memchr>
 8007ba0:	b138      	cbz	r0, 8007bb2 <_vfiprintf_r+0x176>
 8007ba2:	9b04      	ldr	r3, [sp, #16]
 8007ba4:	eba0 000a 	sub.w	r0, r0, sl
 8007ba8:	2240      	movs	r2, #64	@ 0x40
 8007baa:	4082      	lsls	r2, r0
 8007bac:	4313      	orrs	r3, r2
 8007bae:	3401      	adds	r4, #1
 8007bb0:	9304      	str	r3, [sp, #16]
 8007bb2:	f814 1b01 	ldrb.w	r1, [r4], #1
 8007bb6:	4829      	ldr	r0, [pc, #164]	@ (8007c5c <_vfiprintf_r+0x220>)
 8007bb8:	f88d 1028 	strb.w	r1, [sp, #40]	@ 0x28
 8007bbc:	2206      	movs	r2, #6
 8007bbe:	f7f8 fb27 	bl	8000210 <memchr>
 8007bc2:	2800      	cmp	r0, #0
 8007bc4:	d03f      	beq.n	8007c46 <_vfiprintf_r+0x20a>
 8007bc6:	4b26      	ldr	r3, [pc, #152]	@ (8007c60 <_vfiprintf_r+0x224>)
 8007bc8:	bb1b      	cbnz	r3, 8007c12 <_vfiprintf_r+0x1d6>
 8007bca:	9b03      	ldr	r3, [sp, #12]
 8007bcc:	3307      	adds	r3, #7
 8007bce:	f023 0307 	bic.w	r3, r3, #7
 8007bd2:	3308      	adds	r3, #8
 8007bd4:	9303      	str	r3, [sp, #12]
 8007bd6:	9b09      	ldr	r3, [sp, #36]	@ 0x24
 8007bd8:	443b      	add	r3, r7
 8007bda:	9309      	str	r3, [sp, #36]	@ 0x24
 8007bdc:	e76a      	b.n	8007ab4 <_vfiprintf_r+0x78>
 8007bde:	fb0c 3202 	mla	r2, ip, r2, r3
 8007be2:	460c      	mov	r4, r1
 8007be4:	2001      	movs	r0, #1
 8007be6:	e7a8      	b.n	8007b3a <_vfiprintf_r+0xfe>
 8007be8:	2300      	movs	r3, #0
 8007bea:	3401      	adds	r4, #1
 8007bec:	9305      	str	r3, [sp, #20]
 8007bee:	4619      	mov	r1, r3
 8007bf0:	f04f 0c0a 	mov.w	ip, #10
 8007bf4:	4620      	mov	r0, r4
 8007bf6:	f810 2b01 	ldrb.w	r2, [r0], #1
 8007bfa:	3a30      	subs	r2, #48	@ 0x30
 8007bfc:	2a09      	cmp	r2, #9
 8007bfe:	d903      	bls.n	8007c08 <_vfiprintf_r+0x1cc>
 8007c00:	2b00      	cmp	r3, #0
 8007c02:	d0c6      	beq.n	8007b92 <_vfiprintf_r+0x156>
 8007c04:	9105      	str	r1, [sp, #20]
 8007c06:	e7c4      	b.n	8007b92 <_vfiprintf_r+0x156>
 8007c08:	fb0c 2101 	mla	r1, ip, r1, r2
 8007c0c:	4604      	mov	r4, r0
 8007c0e:	2301      	movs	r3, #1
 8007c10:	e7f0      	b.n	8007bf4 <_vfiprintf_r+0x1b8>
 8007c12:	ab03      	add	r3, sp, #12
 8007c14:	9300      	str	r3, [sp, #0]
 8007c16:	462a      	mov	r2, r5
 8007c18:	4b12      	ldr	r3, [pc, #72]	@ (8007c64 <_vfiprintf_r+0x228>)
 8007c1a:	a904      	add	r1, sp, #16
 8007c1c:	4630      	mov	r0, r6
 8007c1e:	f3af 8000 	nop.w
 8007c22:	4607      	mov	r7, r0
 8007c24:	1c78      	adds	r0, r7, #1
 8007c26:	d1d6      	bne.n	8007bd6 <_vfiprintf_r+0x19a>
 8007c28:	6e6b      	ldr	r3, [r5, #100]	@ 0x64
 8007c2a:	07d9      	lsls	r1, r3, #31
 8007c2c:	d405      	bmi.n	8007c3a <_vfiprintf_r+0x1fe>
 8007c2e:	89ab      	ldrh	r3, [r5, #12]
 8007c30:	059a      	lsls	r2, r3, #22
 8007c32:	d402      	bmi.n	8007c3a <_vfiprintf_r+0x1fe>
 8007c34:	6da8      	ldr	r0, [r5, #88]	@ 0x58
 8007c36:	f7ff fddd 	bl	80077f4 <__retarget_lock_release_recursive>
 8007c3a:	89ab      	ldrh	r3, [r5, #12]
 8007c3c:	065b      	lsls	r3, r3, #25
 8007c3e:	f53f af1f 	bmi.w	8007a80 <_vfiprintf_r+0x44>
 8007c42:	9809      	ldr	r0, [sp, #36]	@ 0x24
 8007c44:	e71e      	b.n	8007a84 <_vfiprintf_r+0x48>
 8007c46:	ab03      	add	r3, sp, #12
 8007c48:	9300      	str	r3, [sp, #0]
 8007c4a:	462a      	mov	r2, r5
 8007c4c:	4b05      	ldr	r3, [pc, #20]	@ (8007c64 <_vfiprintf_r+0x228>)
 8007c4e:	a904      	add	r1, sp, #16
 8007c50:	4630      	mov	r0, r6
 8007c52:	f000 f879 	bl	8007d48 <_printf_i>
 8007c56:	e7e4      	b.n	8007c22 <_vfiprintf_r+0x1e6>
 8007c58:	080087bc 	.word	0x080087bc
 8007c5c:	080087c6 	.word	0x080087c6
 8007c60:	00000000 	.word	0x00000000
 8007c64:	08007a17 	.word	0x08007a17
 8007c68:	080087c2 	.word	0x080087c2

08007c6c <_printf_common>:
 8007c6c:	e92d 47f0 	stmdb	sp!, {r4, r5, r6, r7, r8, r9, sl, lr}
 8007c70:	4616      	mov	r6, r2
 8007c72:	4698      	mov	r8, r3
 8007c74:	688a      	ldr	r2, [r1, #8]
 8007c76:	690b      	ldr	r3, [r1, #16]
 8007c78:	f8dd 9020 	ldr.w	r9, [sp, #32]
 8007c7c:	4293      	cmp	r3, r2
 8007c7e:	bfb8      	it	lt
 8007c80:	4613      	movlt	r3, r2
 8007c82:	6033      	str	r3, [r6, #0]
 8007c84:	f891 2043 	ldrb.w	r2, [r1, #67]	@ 0x43
 8007c88:	4607      	mov	r7, r0
 8007c8a:	460c      	mov	r4, r1
 8007c8c:	b10a      	cbz	r2, 8007c92 <_printf_common+0x26>
 8007c8e:	3301      	adds	r3, #1
 8007c90:	6033      	str	r3, [r6, #0]
 8007c92:	6823      	ldr	r3, [r4, #0]
 8007c94:	0699      	lsls	r1, r3, #26
 8007c96:	bf42      	ittt	mi
 8007c98:	6833      	ldrmi	r3, [r6, #0]
 8007c9a:	3302      	addmi	r3, #2
 8007c9c:	6033      	strmi	r3, [r6, #0]
 8007c9e:	6825      	ldr	r5, [r4, #0]
 8007ca0:	f015 0506 	ands.w	r5, r5, #6
 8007ca4:	d106      	bne.n	8007cb4 <_printf_common+0x48>
 8007ca6:	f104 0a19 	add.w	sl, r4, #25
 8007caa:	68e3      	ldr	r3, [r4, #12]
 8007cac:	6832      	ldr	r2, [r6, #0]
 8007cae:	1a9b      	subs	r3, r3, r2
 8007cb0:	42ab      	cmp	r3, r5
 8007cb2:	dc26      	bgt.n	8007d02 <_printf_common+0x96>
 8007cb4:	f894 3043 	ldrb.w	r3, [r4, #67]	@ 0x43
 8007cb8:	6822      	ldr	r2, [r4, #0]
 8007cba:	3b00      	subs	r3, #0
 8007cbc:	bf18      	it	ne
 8007cbe:	2301      	movne	r3, #1
 8007cc0:	0692      	lsls	r2, r2, #26
 8007cc2:	d42b      	bmi.n	8007d1c <_printf_common+0xb0>
 8007cc4:	f104 0243 	add.w	r2, r4, #67	@ 0x43
 8007cc8:	4641      	mov	r1, r8
 8007cca:	4638      	mov	r0, r7
 8007ccc:	47c8      	blx	r9
 8007cce:	3001      	adds	r0, #1
 8007cd0:	d01e      	beq.n	8007d10 <_printf_common+0xa4>
 8007cd2:	6823      	ldr	r3, [r4, #0]
 8007cd4:	6922      	ldr	r2, [r4, #16]
 8007cd6:	f003 0306 	and.w	r3, r3, #6
 8007cda:	2b04      	cmp	r3, #4
 8007cdc:	bf02      	ittt	eq
 8007cde:	68e5      	ldreq	r5, [r4, #12]
 8007ce0:	6833      	ldreq	r3, [r6, #0]
 8007ce2:	1aed      	subeq	r5, r5, r3
 8007ce4:	68a3      	ldr	r3, [r4, #8]
 8007ce6:	bf0c      	ite	eq
 8007ce8:	ea25 75e5 	biceq.w	r5, r5, r5, asr #31
 8007cec:	2500      	movne	r5, #0
 8007cee:	4293      	cmp	r3, r2
 8007cf0:	bfc4      	itt	gt
 8007cf2:	1a9b      	subgt	r3, r3, r2
 8007cf4:	18ed      	addgt	r5, r5, r3
 8007cf6:	2600      	movs	r6, #0
 8007cf8:	341a      	adds	r4, #26
 8007cfa:	42b5      	cmp	r5, r6
 8007cfc:	d11a      	bne.n	8007d34 <_printf_common+0xc8>
 8007cfe:	2000      	movs	r0, #0
 8007d00:	e008      	b.n	8007d14 <_printf_common+0xa8>
 8007d02:	2301      	movs	r3, #1
 8007d04:	4652      	mov	r2, sl
 8007d06:	4641      	mov	r1, r8
 8007d08:	4638      	mov	r0, r7
 8007d0a:	47c8      	blx	r9
 8007d0c:	3001      	adds	r0, #1
 8007d0e:	d103      	bne.n	8007d18 <_printf_common+0xac>
 8007d10:	f04f 30ff 	mov.w	r0, #4294967295
 8007d14:	e8bd 87f0 	ldmia.w	sp!, {r4, r5, r6, r7, r8, r9, sl, pc}
 8007d18:	3501      	adds	r5, #1
 8007d1a:	e7c6      	b.n	8007caa <_printf_common+0x3e>
 8007d1c:	18e1      	adds	r1, r4, r3
 8007d1e:	1c5a      	adds	r2, r3, #1
 8007d20:	2030      	movs	r0, #48	@ 0x30
 8007d22:	f881 0043 	strb.w	r0, [r1, #67]	@ 0x43
 8007d26:	4422      	add	r2, r4
 8007d28:	f894 1045 	ldrb.w	r1, [r4, #69]	@ 0x45
 8007d2c:	f882 1043 	strb.w	r1, [r2, #67]	@ 0x43
 8007d30:	3302      	adds	r3, #2
 8007d32:	e7c7      	b.n	8007cc4 <_printf_common+0x58>
 8007d34:	2301      	movs	r3, #1
 8007d36:	4622      	mov	r2, r4
 8007d38:	4641      	mov	r1, r8
 8007d3a:	4638      	mov	r0, r7
 8007d3c:	47c8      	blx	r9
 8007d3e:	3001      	adds	r0, #1
 8007d40:	d0e6      	beq.n	8007d10 <_printf_common+0xa4>
 8007d42:	3601      	adds	r6, #1
 8007d44:	e7d9      	b.n	8007cfa <_printf_common+0x8e>
	...

08007d48 <_printf_i>:
 8007d48:	e92d 47ff 	stmdb	sp!, {r0, r1, r2, r3, r4, r5, r6, r7, r8, r9, sl, lr}
 8007d4c:	7e0f      	ldrb	r7, [r1, #24]
 8007d4e:	9e0c      	ldr	r6, [sp, #48]	@ 0x30
 8007d50:	2f78      	cmp	r7, #120	@ 0x78
 8007d52:	4691      	mov	r9, r2
 8007d54:	4680      	mov	r8, r0
 8007d56:	460c      	mov	r4, r1
 8007d58:	469a      	mov	sl, r3
 8007d5a:	f101 0243 	add.w	r2, r1, #67	@ 0x43
 8007d5e:	d807      	bhi.n	8007d70 <_printf_i+0x28>
 8007d60:	2f62      	cmp	r7, #98	@ 0x62
 8007d62:	d80a      	bhi.n	8007d7a <_printf_i+0x32>
 8007d64:	2f00      	cmp	r7, #0
 8007d66:	f000 80d1 	beq.w	8007f0c <_printf_i+0x1c4>
 8007d6a:	2f58      	cmp	r7, #88	@ 0x58
 8007d6c:	f000 80b8 	beq.w	8007ee0 <_printf_i+0x198>
 8007d70:	f104 0642 	add.w	r6, r4, #66	@ 0x42
 8007d74:	f884 7042 	strb.w	r7, [r4, #66]	@ 0x42
 8007d78:	e03a      	b.n	8007df0 <_printf_i+0xa8>
 8007d7a:	f1a7 0363 	sub.w	r3, r7, #99	@ 0x63
 8007d7e:	2b15      	cmp	r3, #21
 8007d80:	d8f6      	bhi.n	8007d70 <_printf_i+0x28>
 8007d82:	a101      	add	r1, pc, #4	@ (adr r1, 8007d88 <_printf_i+0x40>)
 8007d84:	f851 f023 	ldr.w	pc, [r1, r3, lsl #2]
 8007d88:	08007de1 	.word	0x08007de1
 8007d8c:	08007df5 	.word	0x08007df5
 8007d90:	08007d71 	.word	0x08007d71
 8007d94:	08007d71 	.word	0x08007d71
 8007d98:	08007d71 	.word	0x08007d71
 8007d9c:	08007d71 	.word	0x08007d71
 8007da0:	08007df5 	.word	0x08007df5
 8007da4:	08007d71 	.word	0x08007d71
 8007da8:	08007d71 	.word	0x08007d71
 8007dac:	08007d71 	.word	0x08007d71
 8007db0:	08007d71 	.word	0x08007d71
 8007db4:	08007ef3 	.word	0x08007ef3
 8007db8:	08007e1f 	.word	0x08007e1f
 8007dbc:	08007ead 	.word	0x08007ead
 8007dc0:	08007d71 	.word	0x08007d71
 8007dc4:	08007d71 	.word	0x08007d71
 8007dc8:	08007f15 	.word	0x08007f15
 8007dcc:	08007d71 	.word	0x08007d71
 8007dd0:	08007e1f 	.word	0x08007e1f
 8007dd4:	08007d71 	.word	0x08007d71
 8007dd8:	08007d71 	.word	0x08007d71
 8007ddc:	08007eb5 	.word	0x08007eb5
 8007de0:	6833      	ldr	r3, [r6, #0]
 8007de2:	1d1a      	adds	r2, r3, #4
 8007de4:	681b      	ldr	r3, [r3, #0]
 8007de6:	6032      	str	r2, [r6, #0]
 8007de8:	f104 0642 	add.w	r6, r4, #66	@ 0x42
 8007dec:	f884 3042 	strb.w	r3, [r4, #66]	@ 0x42
 8007df0:	2301      	movs	r3, #1
 8007df2:	e09c      	b.n	8007f2e <_printf_i+0x1e6>
 8007df4:	6833      	ldr	r3, [r6, #0]
 8007df6:	6820      	ldr	r0, [r4, #0]
 8007df8:	1d19      	adds	r1, r3, #4
 8007dfa:	6031      	str	r1, [r6, #0]
 8007dfc:	0606      	lsls	r6, r0, #24
 8007dfe:	d501      	bpl.n	8007e04 <_printf_i+0xbc>
 8007e00:	681d      	ldr	r5, [r3, #0]
 8007e02:	e003      	b.n	8007e0c <_printf_i+0xc4>
 8007e04:	0645      	lsls	r5, r0, #25
 8007e06:	d5fb      	bpl.n	8007e00 <_printf_i+0xb8>
 8007e08:	f9b3 5000 	ldrsh.w	r5, [r3]
 8007e0c:	2d00      	cmp	r5, #0
 8007e0e:	da03      	bge.n	8007e18 <_printf_i+0xd0>
 8007e10:	232d      	movs	r3, #45	@ 0x2d
 8007e12:	426d      	negs	r5, r5
 8007e14:	f884 3043 	strb.w	r3, [r4, #67]	@ 0x43
 8007e18:	4858      	ldr	r0, [pc, #352]	@ (8007f7c <_printf_i+0x234>)
 8007e1a:	230a      	movs	r3, #10
 8007e1c:	e011      	b.n	8007e42 <_printf_i+0xfa>
 8007e1e:	6821      	ldr	r1, [r4, #0]
 8007e20:	6833      	ldr	r3, [r6, #0]
 8007e22:	0608      	lsls	r0, r1, #24
 8007e24:	f853 5b04 	ldr.w	r5, [r3], #4
 8007e28:	d402      	bmi.n	8007e30 <_printf_i+0xe8>
 8007e2a:	0649      	lsls	r1, r1, #25
 8007e2c:	bf48      	it	mi
 8007e2e:	b2ad      	uxthmi	r5, r5
 8007e30:	2f6f      	cmp	r7, #111	@ 0x6f
 8007e32:	4852      	ldr	r0, [pc, #328]	@ (8007f7c <_printf_i+0x234>)
 8007e34:	6033      	str	r3, [r6, #0]
 8007e36:	bf14      	ite	ne
 8007e38:	230a      	movne	r3, #10
 8007e3a:	2308      	moveq	r3, #8
 8007e3c:	2100      	movs	r1, #0
 8007e3e:	f884 1043 	strb.w	r1, [r4, #67]	@ 0x43
 8007e42:	6866      	ldr	r6, [r4, #4]
 8007e44:	60a6      	str	r6, [r4, #8]
 8007e46:	2e00      	cmp	r6, #0
 8007e48:	db05      	blt.n	8007e56 <_printf_i+0x10e>
 8007e4a:	6821      	ldr	r1, [r4, #0]
 8007e4c:	432e      	orrs	r6, r5
 8007e4e:	f021 0104 	bic.w	r1, r1, #4
 8007e52:	6021      	str	r1, [r4, #0]
 8007e54:	d04b      	beq.n	8007eee <_printf_i+0x1a6>
 8007e56:	4616      	mov	r6, r2
 8007e58:	fbb5 f1f3 	udiv	r1, r5, r3
 8007e5c:	fb03 5711 	mls	r7, r3, r1, r5
 8007e60:	5dc7      	ldrb	r7, [r0, r7]
 8007e62:	f806 7d01 	strb.w	r7, [r6, #-1]!
 8007e66:	462f      	mov	r7, r5
 8007e68:	42bb      	cmp	r3, r7
 8007e6a:	460d      	mov	r5, r1
 8007e6c:	d9f4      	bls.n	8007e58 <_printf_i+0x110>
 8007e6e:	2b08      	cmp	r3, #8
 8007e70:	d10b      	bne.n	8007e8a <_printf_i+0x142>
 8007e72:	6823      	ldr	r3, [r4, #0]
 8007e74:	07df      	lsls	r7, r3, #31
 8007e76:	d508      	bpl.n	8007e8a <_printf_i+0x142>
 8007e78:	6923      	ldr	r3, [r4, #16]
 8007e7a:	6861      	ldr	r1, [r4, #4]
 8007e7c:	4299      	cmp	r1, r3
 8007e7e:	bfde      	ittt	le
 8007e80:	2330      	movle	r3, #48	@ 0x30
 8007e82:	f806 3c01 	strble.w	r3, [r6, #-1]
 8007e86:	f106 36ff 	addle.w	r6, r6, #4294967295
 8007e8a:	1b92      	subs	r2, r2, r6
 8007e8c:	6122      	str	r2, [r4, #16]
 8007e8e:	f8cd a000 	str.w	sl, [sp]
 8007e92:	464b      	mov	r3, r9
 8007e94:	aa03      	add	r2, sp, #12
 8007e96:	4621      	mov	r1, r4
 8007e98:	4640      	mov	r0, r8
 8007e9a:	f7ff fee7 	bl	8007c6c <_printf_common>
 8007e9e:	3001      	adds	r0, #1
 8007ea0:	d14a      	bne.n	8007f38 <_printf_i+0x1f0>
 8007ea2:	f04f 30ff 	mov.w	r0, #4294967295
 8007ea6:	b004      	add	sp, #16
 8007ea8:	e8bd 87f0 	ldmia.w	sp!, {r4, r5, r6, r7, r8, r9, sl, pc}
 8007eac:	6823      	ldr	r3, [r4, #0]
 8007eae:	f043 0320 	orr.w	r3, r3, #32
 8007eb2:	6023      	str	r3, [r4, #0]
 8007eb4:	4832      	ldr	r0, [pc, #200]	@ (8007f80 <_printf_i+0x238>)
 8007eb6:	2778      	movs	r7, #120	@ 0x78
 8007eb8:	f884 7045 	strb.w	r7, [r4, #69]	@ 0x45
 8007ebc:	6823      	ldr	r3, [r4, #0]
 8007ebe:	6831      	ldr	r1, [r6, #0]
 8007ec0:	061f      	lsls	r7, r3, #24
 8007ec2:	f851 5b04 	ldr.w	r5, [r1], #4
 8007ec6:	d402      	bmi.n	8007ece <_printf_i+0x186>
 8007ec8:	065f      	lsls	r7, r3, #25
 8007eca:	bf48      	it	mi
 8007ecc:	b2ad      	uxthmi	r5, r5
 8007ece:	6031      	str	r1, [r6, #0]
 8007ed0:	07d9      	lsls	r1, r3, #31
 8007ed2:	bf44      	itt	mi
 8007ed4:	f043 0320 	orrmi.w	r3, r3, #32
 8007ed8:	6023      	strmi	r3, [r4, #0]
 8007eda:	b11d      	cbz	r5, 8007ee4 <_printf_i+0x19c>
 8007edc:	2310      	movs	r3, #16
 8007ede:	e7ad      	b.n	8007e3c <_printf_i+0xf4>
 8007ee0:	4826      	ldr	r0, [pc, #152]	@ (8007f7c <_printf_i+0x234>)
 8007ee2:	e7e9      	b.n	8007eb8 <_printf_i+0x170>
 8007ee4:	6823      	ldr	r3, [r4, #0]
 8007ee6:	f023 0320 	bic.w	r3, r3, #32
 8007eea:	6023      	str	r3, [r4, #0]
 8007eec:	e7f6      	b.n	8007edc <_printf_i+0x194>
 8007eee:	4616      	mov	r6, r2
 8007ef0:	e7bd      	b.n	8007e6e <_printf_i+0x126>
 8007ef2:	6833      	ldr	r3, [r6, #0]
 8007ef4:	6825      	ldr	r5, [r4, #0]
 8007ef6:	6961      	ldr	r1, [r4, #20]
 8007ef8:	1d18      	adds	r0, r3, #4
 8007efa:	6030      	str	r0, [r6, #0]
 8007efc:	062e      	lsls	r6, r5, #24
 8007efe:	681b      	ldr	r3, [r3, #0]
 8007f00:	d501      	bpl.n	8007f06 <_printf_i+0x1be>
 8007f02:	6019      	str	r1, [r3, #0]
 8007f04:	e002      	b.n	8007f0c <_printf_i+0x1c4>
 8007f06:	0668      	lsls	r0, r5, #25
 8007f08:	d5fb      	bpl.n	8007f02 <_printf_i+0x1ba>
 8007f0a:	8019      	strh	r1, [r3, #0]
 8007f0c:	2300      	movs	r3, #0
 8007f0e:	6123      	str	r3, [r4, #16]
 8007f10:	4616      	mov	r6, r2
 8007f12:	e7bc      	b.n	8007e8e <_printf_i+0x146>
 8007f14:	6833      	ldr	r3, [r6, #0]
 8007f16:	1d1a      	adds	r2, r3, #4
 8007f18:	6032      	str	r2, [r6, #0]
 8007f1a:	681e      	ldr	r6, [r3, #0]
 8007f1c:	6862      	ldr	r2, [r4, #4]
 8007f1e:	2100      	movs	r1, #0
 8007f20:	4630      	mov	r0, r6
 8007f22:	f7f8 f975 	bl	8000210 <memchr>
 8007f26:	b108      	cbz	r0, 8007f2c <_printf_i+0x1e4>
 8007f28:	1b80      	subs	r0, r0, r6
 8007f2a:	6060      	str	r0, [r4, #4]
 8007f2c:	6863      	ldr	r3, [r4, #4]
 8007f2e:	6123      	str	r3, [r4, #16]
 8007f30:	2300      	movs	r3, #0
 8007f32:	f884 3043 	strb.w	r3, [r4, #67]	@ 0x43
 8007f36:	e7aa      	b.n	8007e8e <_printf_i+0x146>
 8007f38:	6923      	ldr	r3, [r4, #16]
 8007f3a:	4632      	mov	r2, r6
 8007f3c:	4649      	mov	r1, r9
 8007f3e:	4640      	mov	r0, r8
 8007f40:	47d0      	blx	sl
 8007f42:	3001      	adds	r0, #1
 8007f44:	d0ad      	beq.n	8007ea2 <_printf_i+0x15a>
 8007f46:	6823      	ldr	r3, [r4, #0]
 8007f48:	079b      	lsls	r3, r3, #30
 8007f4a:	d413      	bmi.n	8007f74 <_printf_i+0x22c>
 8007f4c:	68e0      	ldr	r0, [r4, #12]
 8007f4e:	9b03      	ldr	r3, [sp, #12]
 8007f50:	4298      	cmp	r0, r3
 8007f52:	bfb8      	it	lt
 8007f54:	4618      	movlt	r0, r3
 8007f56:	e7a6      	b.n	8007ea6 <_printf_i+0x15e>
 8007f58:	2301      	movs	r3, #1
 8007f5a:	4632      	mov	r2, r6
 8007f5c:	4649      	mov	r1, r9
 8007f5e:	4640      	mov	r0, r8
 8007f60:	47d0      	blx	sl
 8007f62:	3001      	adds	r0, #1
 8007f64:	d09d      	beq.n	8007ea2 <_printf_i+0x15a>
 8007f66:	3501      	adds	r5, #1
 8007f68:	68e3      	ldr	r3, [r4, #12]
 8007f6a:	9903      	ldr	r1, [sp, #12]
 8007f6c:	1a5b      	subs	r3, r3, r1
 8007f6e:	42ab      	cmp	r3, r5
 8007f70:	dcf2      	bgt.n	8007f58 <_printf_i+0x210>
 8007f72:	e7eb      	b.n	8007f4c <_printf_i+0x204>
 8007f74:	2500      	movs	r5, #0
 8007f76:	f104 0619 	add.w	r6, r4, #25
 8007f7a:	e7f5      	b.n	8007f68 <_printf_i+0x220>
 8007f7c:	080087cd 	.word	0x080087cd
 8007f80:	080087de 	.word	0x080087de

08007f84 <__sflush_r>:
 8007f84:	f9b1 200c 	ldrsh.w	r2, [r1, #12]
 8007f88:	e92d 41f0 	stmdb	sp!, {r4, r5, r6, r7, r8, lr}
 8007f8c:	0716      	lsls	r6, r2, #28
 8007f8e:	4605      	mov	r5, r0
 8007f90:	460c      	mov	r4, r1
 8007f92:	d454      	bmi.n	800803e <__sflush_r+0xba>
 8007f94:	684b      	ldr	r3, [r1, #4]
 8007f96:	2b00      	cmp	r3, #0
 8007f98:	dc02      	bgt.n	8007fa0 <__sflush_r+0x1c>
 8007f9a:	6c0b      	ldr	r3, [r1, #64]	@ 0x40
 8007f9c:	2b00      	cmp	r3, #0
 8007f9e:	dd48      	ble.n	8008032 <__sflush_r+0xae>
 8007fa0:	6ae6      	ldr	r6, [r4, #44]	@ 0x2c
 8007fa2:	2e00      	cmp	r6, #0
 8007fa4:	d045      	beq.n	8008032 <__sflush_r+0xae>
 8007fa6:	2300      	movs	r3, #0
 8007fa8:	f412 5280 	ands.w	r2, r2, #4096	@ 0x1000
 8007fac:	682f      	ldr	r7, [r5, #0]
 8007fae:	6a21      	ldr	r1, [r4, #32]
 8007fb0:	602b      	str	r3, [r5, #0]
 8007fb2:	d030      	beq.n	8008016 <__sflush_r+0x92>
 8007fb4:	6d62      	ldr	r2, [r4, #84]	@ 0x54
 8007fb6:	89a3      	ldrh	r3, [r4, #12]
 8007fb8:	0759      	lsls	r1, r3, #29
 8007fba:	d505      	bpl.n	8007fc8 <__sflush_r+0x44>
 8007fbc:	6863      	ldr	r3, [r4, #4]
 8007fbe:	1ad2      	subs	r2, r2, r3
 8007fc0:	6b63      	ldr	r3, [r4, #52]	@ 0x34
 8007fc2:	b10b      	cbz	r3, 8007fc8 <__sflush_r+0x44>
 8007fc4:	6c23      	ldr	r3, [r4, #64]	@ 0x40
 8007fc6:	1ad2      	subs	r2, r2, r3
 8007fc8:	2300      	movs	r3, #0
 8007fca:	6ae6      	ldr	r6, [r4, #44]	@ 0x2c
 8007fcc:	6a21      	ldr	r1, [r4, #32]
 8007fce:	4628      	mov	r0, r5
 8007fd0:	47b0      	blx	r6
 8007fd2:	1c43      	adds	r3, r0, #1
 8007fd4:	89a3      	ldrh	r3, [r4, #12]
 8007fd6:	d106      	bne.n	8007fe6 <__sflush_r+0x62>
 8007fd8:	6829      	ldr	r1, [r5, #0]
 8007fda:	291d      	cmp	r1, #29
 8007fdc:	d82b      	bhi.n	8008036 <__sflush_r+0xb2>
 8007fde:	4a2a      	ldr	r2, [pc, #168]	@ (8008088 <__sflush_r+0x104>)
 8007fe0:	40ca      	lsrs	r2, r1
 8007fe2:	07d6      	lsls	r6, r2, #31
 8007fe4:	d527      	bpl.n	8008036 <__sflush_r+0xb2>
 8007fe6:	2200      	movs	r2, #0
 8007fe8:	6062      	str	r2, [r4, #4]
 8007fea:	04d9      	lsls	r1, r3, #19
 8007fec:	6922      	ldr	r2, [r4, #16]
 8007fee:	6022      	str	r2, [r4, #0]
 8007ff0:	d504      	bpl.n	8007ffc <__sflush_r+0x78>
 8007ff2:	1c42      	adds	r2, r0, #1
 8007ff4:	d101      	bne.n	8007ffa <__sflush_r+0x76>
 8007ff6:	682b      	ldr	r3, [r5, #0]
 8007ff8:	b903      	cbnz	r3, 8007ffc <__sflush_r+0x78>
 8007ffa:	6560      	str	r0, [r4, #84]	@ 0x54
 8007ffc:	6b61      	ldr	r1, [r4, #52]	@ 0x34
 8007ffe:	602f      	str	r7, [r5, #0]
 8008000:	b1b9      	cbz	r1, 8008032 <__sflush_r+0xae>
 8008002:	f104 0344 	add.w	r3, r4, #68	@ 0x44
 8008006:	4299      	cmp	r1, r3
 8008008:	d002      	beq.n	8008010 <__sflush_r+0x8c>
 800800a:	4628      	mov	r0, r5
 800800c:	f7ff fbf4 	bl	80077f8 <_free_r>
 8008010:	2300      	movs	r3, #0
 8008012:	6363      	str	r3, [r4, #52]	@ 0x34
 8008014:	e00d      	b.n	8008032 <__sflush_r+0xae>
 8008016:	2301      	movs	r3, #1
 8008018:	4628      	mov	r0, r5
 800801a:	47b0      	blx	r6
 800801c:	4602      	mov	r2, r0
 800801e:	1c50      	adds	r0, r2, #1
 8008020:	d1c9      	bne.n	8007fb6 <__sflush_r+0x32>
 8008022:	682b      	ldr	r3, [r5, #0]
 8008024:	2b00      	cmp	r3, #0
 8008026:	d0c6      	beq.n	8007fb6 <__sflush_r+0x32>
 8008028:	2b1d      	cmp	r3, #29
 800802a:	d001      	beq.n	8008030 <__sflush_r+0xac>
 800802c:	2b16      	cmp	r3, #22
 800802e:	d11e      	bne.n	800806e <__sflush_r+0xea>
 8008030:	602f      	str	r7, [r5, #0]
 8008032:	2000      	movs	r0, #0
 8008034:	e022      	b.n	800807c <__sflush_r+0xf8>
 8008036:	f043 0340 	orr.w	r3, r3, #64	@ 0x40
 800803a:	b21b      	sxth	r3, r3
 800803c:	e01b      	b.n	8008076 <__sflush_r+0xf2>
 800803e:	690f      	ldr	r7, [r1, #16]
 8008040:	2f00      	cmp	r7, #0
 8008042:	d0f6      	beq.n	8008032 <__sflush_r+0xae>
 8008044:	0793      	lsls	r3, r2, #30
 8008046:	680e      	ldr	r6, [r1, #0]
 8008048:	bf08      	it	eq
 800804a:	694b      	ldreq	r3, [r1, #20]
 800804c:	600f      	str	r7, [r1, #0]
 800804e:	bf18      	it	ne
 8008050:	2300      	movne	r3, #0
 8008052:	eba6 0807 	sub.w	r8, r6, r7
 8008056:	608b      	str	r3, [r1, #8]
 8008058:	f1b8 0f00 	cmp.w	r8, #0
 800805c:	dde9      	ble.n	8008032 <__sflush_r+0xae>
 800805e:	6a21      	ldr	r1, [r4, #32]
 8008060:	6aa6      	ldr	r6, [r4, #40]	@ 0x28
 8008062:	4643      	mov	r3, r8
 8008064:	463a      	mov	r2, r7
 8008066:	4628      	mov	r0, r5
 8008068:	47b0      	blx	r6
 800806a:	2800      	cmp	r0, #0
 800806c:	dc08      	bgt.n	8008080 <__sflush_r+0xfc>
 800806e:	f9b4 300c 	ldrsh.w	r3, [r4, #12]
 8008072:	f043 0340 	orr.w	r3, r3, #64	@ 0x40
 8008076:	81a3      	strh	r3, [r4, #12]
 8008078:	f04f 30ff 	mov.w	r0, #4294967295
 800807c:	e8bd 81f0 	ldmia.w	sp!, {r4, r5, r6, r7, r8, pc}
 8008080:	4407      	add	r7, r0
 8008082:	eba8 0800 	sub.w	r8, r8, r0
 8008086:	e7e7      	b.n	8008058 <__sflush_r+0xd4>
 8008088:	20400001 	.word	0x20400001

0800808c <_fflush_r>:
 800808c:	b538      	push	{r3, r4, r5, lr}
 800808e:	690b      	ldr	r3, [r1, #16]
 8008090:	4605      	mov	r5, r0
 8008092:	460c      	mov	r4, r1
 8008094:	b913      	cbnz	r3, 800809c <_fflush_r+0x10>
 8008096:	2500      	movs	r5, #0
 8008098:	4628      	mov	r0, r5
 800809a:	bd38      	pop	{r3, r4, r5, pc}
 800809c:	b118      	cbz	r0, 80080a6 <_fflush_r+0x1a>
 800809e:	6a03      	ldr	r3, [r0, #32]
 80080a0:	b90b      	cbnz	r3, 80080a6 <_fflush_r+0x1a>
 80080a2:	f7ff f9af 	bl	8007404 <__sinit>
 80080a6:	f9b4 300c 	ldrsh.w	r3, [r4, #12]
 80080aa:	2b00      	cmp	r3, #0
 80080ac:	d0f3      	beq.n	8008096 <_fflush_r+0xa>
 80080ae:	6e62      	ldr	r2, [r4, #100]	@ 0x64
 80080b0:	07d0      	lsls	r0, r2, #31
 80080b2:	d404      	bmi.n	80080be <_fflush_r+0x32>
 80080b4:	0599      	lsls	r1, r3, #22
 80080b6:	d402      	bmi.n	80080be <_fflush_r+0x32>
 80080b8:	6da0      	ldr	r0, [r4, #88]	@ 0x58
 80080ba:	f7ff fb9a 	bl	80077f2 <__retarget_lock_acquire_recursive>
 80080be:	4628      	mov	r0, r5
 80080c0:	4621      	mov	r1, r4
 80080c2:	f7ff ff5f 	bl	8007f84 <__sflush_r>
 80080c6:	6e63      	ldr	r3, [r4, #100]	@ 0x64
 80080c8:	07da      	lsls	r2, r3, #31
 80080ca:	4605      	mov	r5, r0
 80080cc:	d4e4      	bmi.n	8008098 <_fflush_r+0xc>
 80080ce:	89a3      	ldrh	r3, [r4, #12]
 80080d0:	059b      	lsls	r3, r3, #22
 80080d2:	d4e1      	bmi.n	8008098 <_fflush_r+0xc>
 80080d4:	6da0      	ldr	r0, [r4, #88]	@ 0x58
 80080d6:	f7ff fb8d 	bl	80077f4 <__retarget_lock_release_recursive>
 80080da:	e7dd      	b.n	8008098 <_fflush_r+0xc>

080080dc <__swhatbuf_r>:
 80080dc:	b570      	push	{r4, r5, r6, lr}
 80080de:	460c      	mov	r4, r1
 80080e0:	f9b1 100e 	ldrsh.w	r1, [r1, #14]
 80080e4:	2900      	cmp	r1, #0
 80080e6:	b096      	sub	sp, #88	@ 0x58
 80080e8:	4615      	mov	r5, r2
 80080ea:	461e      	mov	r6, r3
 80080ec:	da0d      	bge.n	800810a <__swhatbuf_r+0x2e>
 80080ee:	89a3      	ldrh	r3, [r4, #12]
 80080f0:	f013 0f80 	tst.w	r3, #128	@ 0x80
 80080f4:	f04f 0100 	mov.w	r1, #0
 80080f8:	bf14      	ite	ne
 80080fa:	2340      	movne	r3, #64	@ 0x40
 80080fc:	f44f 6380 	moveq.w	r3, #1024	@ 0x400
 8008100:	2000      	movs	r0, #0
 8008102:	6031      	str	r1, [r6, #0]
 8008104:	602b      	str	r3, [r5, #0]
 8008106:	b016      	add	sp, #88	@ 0x58
 8008108:	bd70      	pop	{r4, r5, r6, pc}
 800810a:	466a      	mov	r2, sp
 800810c:	f000 f848 	bl	80081a0 <_fstat_r>
 8008110:	2800      	cmp	r0, #0
 8008112:	dbec      	blt.n	80080ee <__swhatbuf_r+0x12>
 8008114:	9901      	ldr	r1, [sp, #4]
 8008116:	f401 4170 	and.w	r1, r1, #61440	@ 0xf000
 800811a:	f5a1 5300 	sub.w	r3, r1, #8192	@ 0x2000
 800811e:	4259      	negs	r1, r3
 8008120:	4159      	adcs	r1, r3
 8008122:	f44f 6380 	mov.w	r3, #1024	@ 0x400
 8008126:	e7eb      	b.n	8008100 <__swhatbuf_r+0x24>

08008128 <__smakebuf_r>:
 8008128:	898b      	ldrh	r3, [r1, #12]
 800812a:	b5f7      	push	{r0, r1, r2, r4, r5, r6, r7, lr}
 800812c:	079d      	lsls	r5, r3, #30
 800812e:	4606      	mov	r6, r0
 8008130:	460c      	mov	r4, r1
 8008132:	d507      	bpl.n	8008144 <__smakebuf_r+0x1c>
 8008134:	f104 0347 	add.w	r3, r4, #71	@ 0x47
 8008138:	6023      	str	r3, [r4, #0]
 800813a:	6123      	str	r3, [r4, #16]
 800813c:	2301      	movs	r3, #1
 800813e:	6163      	str	r3, [r4, #20]
 8008140:	b003      	add	sp, #12
 8008142:	bdf0      	pop	{r4, r5, r6, r7, pc}
 8008144:	ab01      	add	r3, sp, #4
 8008146:	466a      	mov	r2, sp
 8008148:	f7ff ffc8 	bl	80080dc <__swhatbuf_r>
 800814c:	9f00      	ldr	r7, [sp, #0]
 800814e:	4605      	mov	r5, r0
 8008150:	4639      	mov	r1, r7
 8008152:	4630      	mov	r0, r6
 8008154:	f7ff fbbc 	bl	80078d0 <_malloc_r>
 8008158:	b948      	cbnz	r0, 800816e <__smakebuf_r+0x46>
 800815a:	f9b4 300c 	ldrsh.w	r3, [r4, #12]
 800815e:	059a      	lsls	r2, r3, #22
 8008160:	d4ee      	bmi.n	8008140 <__smakebuf_r+0x18>
 8008162:	f023 0303 	bic.w	r3, r3, #3
 8008166:	f043 0302 	orr.w	r3, r3, #2
 800816a:	81a3      	strh	r3, [r4, #12]
 800816c:	e7e2      	b.n	8008134 <__smakebuf_r+0xc>
 800816e:	89a3      	ldrh	r3, [r4, #12]
 8008170:	6020      	str	r0, [r4, #0]
 8008172:	f043 0380 	orr.w	r3, r3, #128	@ 0x80
 8008176:	81a3      	strh	r3, [r4, #12]
 8008178:	9b01      	ldr	r3, [sp, #4]
 800817a:	e9c4 0704 	strd	r0, r7, [r4, #16]
 800817e:	b15b      	cbz	r3, 8008198 <__smakebuf_r+0x70>
 8008180:	f9b4 100e 	ldrsh.w	r1, [r4, #14]
 8008184:	4630      	mov	r0, r6
 8008186:	f000 f81d 	bl	80081c4 <_isatty_r>
 800818a:	b128      	cbz	r0, 8008198 <__smakebuf_r+0x70>
 800818c:	89a3      	ldrh	r3, [r4, #12]
 800818e:	f023 0303 	bic.w	r3, r3, #3
 8008192:	f043 0301 	orr.w	r3, r3, #1
 8008196:	81a3      	strh	r3, [r4, #12]
 8008198:	89a3      	ldrh	r3, [r4, #12]
 800819a:	431d      	orrs	r5, r3
 800819c:	81a5      	strh	r5, [r4, #12]
 800819e:	e7cf      	b.n	8008140 <__smakebuf_r+0x18>

080081a0 <_fstat_r>:
 80081a0:	b538      	push	{r3, r4, r5, lr}
 80081a2:	4d07      	ldr	r5, [pc, #28]	@ (80081c0 <_fstat_r+0x20>)
 80081a4:	2300      	movs	r3, #0
 80081a6:	4604      	mov	r4, r0
 80081a8:	4608      	mov	r0, r1
 80081aa:	4611      	mov	r1, r2
 80081ac:	602b      	str	r3, [r5, #0]
 80081ae:	f7fb fdba 	bl	8003d26 <_fstat>
 80081b2:	1c43      	adds	r3, r0, #1
 80081b4:	d102      	bne.n	80081bc <_fstat_r+0x1c>
 80081b6:	682b      	ldr	r3, [r5, #0]
 80081b8:	b103      	cbz	r3, 80081bc <_fstat_r+0x1c>
 80081ba:	6023      	str	r3, [r4, #0]
 80081bc:	bd38      	pop	{r3, r4, r5, pc}
 80081be:	bf00      	nop
 80081c0:	200005c8 	.word	0x200005c8

080081c4 <_isatty_r>:
 80081c4:	b538      	push	{r3, r4, r5, lr}
 80081c6:	4d06      	ldr	r5, [pc, #24]	@ (80081e0 <_isatty_r+0x1c>)
 80081c8:	2300      	movs	r3, #0
 80081ca:	4604      	mov	r4, r0
 80081cc:	4608      	mov	r0, r1
 80081ce:	602b      	str	r3, [r5, #0]
 80081d0:	f7fb fdb9 	bl	8003d46 <_isatty>
 80081d4:	1c43      	adds	r3, r0, #1
 80081d6:	d102      	bne.n	80081de <_isatty_r+0x1a>
 80081d8:	682b      	ldr	r3, [r5, #0]
 80081da:	b103      	cbz	r3, 80081de <_isatty_r+0x1a>
 80081dc:	6023      	str	r3, [r4, #0]
 80081de:	bd38      	pop	{r3, r4, r5, pc}
 80081e0:	200005c8 	.word	0x200005c8

080081e4 <_sbrk_r>:
 80081e4:	b538      	push	{r3, r4, r5, lr}
 80081e6:	4d06      	ldr	r5, [pc, #24]	@ (8008200 <_sbrk_r+0x1c>)
 80081e8:	2300      	movs	r3, #0
 80081ea:	4604      	mov	r4, r0
 80081ec:	4608      	mov	r0, r1
 80081ee:	602b      	str	r3, [r5, #0]
 80081f0:	f7fb fdc2 	bl	8003d78 <_sbrk>
 80081f4:	1c43      	adds	r3, r0, #1
 80081f6:	d102      	bne.n	80081fe <_sbrk_r+0x1a>
 80081f8:	682b      	ldr	r3, [r5, #0]
 80081fa:	b103      	cbz	r3, 80081fe <_sbrk_r+0x1a>
 80081fc:	6023      	str	r3, [r4, #0]
 80081fe:	bd38      	pop	{r3, r4, r5, pc}
 8008200:	200005c8 	.word	0x200005c8

08008204 <_init>:
 8008204:	b5f8      	push	{r3, r4, r5, r6, r7, lr}
 8008206:	bf00      	nop
 8008208:	bcf8      	pop	{r3, r4, r5, r6, r7}
 800820a:	bc08      	pop	{r3}
 800820c:	469e      	mov	lr, r3
 800820e:	4770      	bx	lr

08008210 <_fini>:
 8008210:	b5f8      	push	{r3, r4, r5, r6, r7, lr}
 8008212:	bf00      	nop
 8008214:	bcf8      	pop	{r3, r4, r5, r6, r7}
 8008216:	bc08      	pop	{r3}
 8008218:	469e      	mov	lr, r3
 800821a:	4770      	bx	lr
